
/mnt/users/ssd0/no_backup/petrisko/black-parrot/bp_top/syn/results/verilator/bp_tethered.e_bp_default_cfg.none.sim.bp-tests.hello_world/bootrom.riscv:     file format elf64-littleriscv

SYMBOL TABLE:
0000000000000000 l    d  .text.start	0000000000000000 .text.start
0000000000000000 l    d  .riscv.attributes	0000000000000000 .riscv.attributes
0000000000000000 l    df *ABS*	0000000000000000 ccVyam99.o
00000000000000c8 l       .text.start	0000000000000000 cce_ucode_bin
000000000000005a l       .text.start	0000000000000000 load_ucode
000000000000006c l       .text.start	0000000000000000 load_config
00000000000000c4 l       .text.start	0000000000000000 halt
0000000000000000 g       .text.start	0000000000000000 _start



Disassembly of section .text.start:

0000000000000000 <_start>:
   0:	00000013          	nop
   4:	4081                	li	ra,0
   6:	4101                	li	sp,0
   8:	4181                	li	gp,0
   a:	4201                	li	tp,0
   c:	4281                	li	t0,0
   e:	4301                	li	t1,0
  10:	4381                	li	t2,0
  12:	4401                	li	s0,0
  14:	4481                	li	s1,0
  16:	4501                	li	a0,0
  18:	4581                	li	a1,0
  1a:	4601                	li	a2,0
  1c:	4681                	li	a3,0
  1e:	4701                	li	a4,0
  20:	4781                	li	a5,0
  22:	4801                	li	a6,0
  24:	4881                	li	a7,0
  26:	4901                	li	s2,0
  28:	4981                	li	s3,0
  2a:	4a01                	li	s4,0
  2c:	4a81                	li	s5,0
  2e:	4b01                	li	s6,0
  30:	4b81                	li	s7,0
  32:	4c01                	li	s8,0
  34:	4c81                	li	s9,0
  36:	4d01                	li	s10,0
  38:	4d81                	li	s11,0
  3a:	4e01                	li	t3,0
  3c:	4e81                	li	t4,0
  3e:	4f01                	li	t5,0
  40:	4f81                	li	t6,0
  42:	f1402ef3          	csrr	t4,mhartid
  46:	0ee2                	sll	t4,t4,0x18
  48:	00000297          	auipc	t0,0x0
  4c:	08028293          	add	t0,t0,128 # c8 <cce_ucode_bin>
  50:	00208337          	lui	t1,0x208
  54:	01d36333          	or	t1,t1,t4
  58:	53fd                	li	t2,-1

000000000000005a <load_ucode>:
  5a:	0002be03          	ld	t3,0(t0)
  5e:	007e0763          	beq	t3,t2,6c <load_config>
  62:	01c33023          	sd	t3,0(t1) # 208000 <cce_ucode_bin+0x207f38>
  66:	02a1                	add	t0,t0,8
  68:	0321                	add	t1,t1,8
  6a:	bfc5                	j	5a <load_ucode>

000000000000006c <load_config>:
  6c:	4285                	li	t0,1
  6e:	00200337          	lui	t1,0x200
  72:	6043031b          	addw	t1,t1,1540 # 200604 <cce_ucode_bin+0x20053c>
  76:	01d36333          	or	t1,t1,t4
  7a:	00532023          	sw	t0,0(t1)
  7e:	00200337          	lui	t1,0x200
  82:	4043031b          	addw	t1,t1,1028 # 200404 <cce_ucode_bin+0x20033c>
  86:	01d36333          	or	t1,t1,t4
  8a:	00532023          	sw	t0,0(t1)
  8e:	00200337          	lui	t1,0x200
  92:	2043031b          	addw	t1,t1,516 # 200204 <cce_ucode_bin+0x20013c>
  96:	01d36333          	or	t1,t1,t4
  9a:	00532023          	sw	t0,0(t1)
  9e:	0ff0000f          	fence
  a2:	0000100f          	fence.i
  a6:	0001                	nop
  a8:	0010029b          	addw	t0,zero,1
  ac:	02fe                	sll	t0,t0,0x1f
  ae:	7b129073          	csrw	dpc,t0
  b2:	7b01d073          	csrw	dcsr,3
  b6:	4281                	li	t0,0
  b8:	4301                	li	t1,0
  ba:	4381                	li	t2,0
  bc:	4e01                	li	t3,0
  be:	4e81                	li	t4,0
  c0:	7b200073          	dret

00000000000000c4 <halt>:
  c4:	a001                	j	c4 <halt>
  c6:	0001                	nop

00000000000000c8 <cce_ucode_bin>:
  c8:	00000042          	.word	0x00000042
  cc:	00000000          	.word	0x00000000
  d0:	000008aa          	.word	0x000008aa
  d4:	00000000          	.word	0x00000000
  d8:	00001842          	.word	0x00001842
  dc:	00000000          	.word	0x00000000
  e0:	04000099          	.word	0x04000099
  e4:	00000001          	.word	0x00000001
  e8:	7807800e          	.word	0x7807800e
  ec:	00000000          	.word	0x00000000
  f0:	00000196          	.word	0x00000196
  f4:	00000000          	.word	0x00000000
  f8:	00010040          	.word	0x00010040
  fc:	00000000          	.word	0x00000000
 100:	01800001          	.word	0x01800001
 104:	00000003          	.word	0x00000003
 108:	00022852          	.word	0x00022852
 10c:	00000000          	.word	0x00000000
 110:	0000007a          	.word	0x0000007a
 114:	00000000          	.word	0x00000000
 118:	0000001e          	.word	0x0000001e
 11c:	00000000          	.word	0x00000000
 120:	00000405          	.word	0x00000405
 124:	00000000          	.word	0x00000000
 128:	23000954          	.word	0x23000954
 12c:	00000001          	.word	0x00000001
 130:	d044048e          	.word	0xd044048e
 134:	00000000          	.word	0x00000000
 138:	80000016          	.word	0x80000016
 13c:	00000000          	.word	0x00000000
 140:	0504040d          	.word	0x0504040d
 144:	00000000          	.word	0x00000000
 148:	0000004d          	.word	0x0000004d
 14c:	00000000          	.word	0x00000000
 150:	0a8ce2d4          	.word	0x0a8ce2d4
 154:	00000001          	.word	0x00000001
 158:	0054443d          	.word	0x0054443d
 15c:	00000000          	.word	0x00000000
 160:	000400ae          	.word	0x000400ae
 164:	00000000          	.word	0x00000000
 168:	04800001          	.word	0x04800001
 16c:	00000003          	.word	0x00000003
 170:	0f04004c          	.word	0x0f04004c
 174:	00000001          	.word	0x00000001
 178:	0000384a          	.word	0x0000384a
 17c:	00000000          	.word	0x00000000
 180:	5044b80e          	.word	0x5044b80e
 184:	00000000          	.word	0x00000000
 188:	0000019e          	.word	0x0000019e
 18c:	00000000          	.word	0x00000000
 190:	0c001041          	.word	0x0c001041
 194:	00000001          	.word	0x00000001
 198:	0e800444          	.word	0x0e800444
 19c:	00000001          	.word	0x00000001
 1a0:	d044888e          	.word	0xd044888e
 1a4:	00000000          	.word	0x00000000
 1a8:	0f000001          	.word	0x0f000001
 1ac:	00000003          	.word	0x00000003
 1b0:	00000196          	.word	0x00000196
 1b4:	00000000          	.word	0x00000000
 1b8:	120000c4          	.word	0x120000c4
 1bc:	00000001          	.word	0x00000001
 1c0:	1100e254          	.word	0x1100e254
 1c4:	00000001          	.word	0x00000001
 1c8:	0002384a          	.word	0x0002384a
 1cc:	00000000          	.word	0x00000000
 1d0:	12800001          	.word	0x12800001
 1d4:	00000003          	.word	0x00000003
 1d8:	0001384a          	.word	0x0001384a
 1dc:	00000000          	.word	0x00000000
 1e0:	12800001          	.word	0x12800001
 1e4:	00000003          	.word	0x00000003
 1e8:	0006384a          	.word	0x0006384a
 1ec:	00000000          	.word	0x00000000
 1f0:	138020dc          	.word	0x138020dc
 1f4:	00000003          	.word	0x00000003
 1f8:	00000046          	.word	0x00000046
 1fc:	00000000          	.word	0x00000000
 200:	1608004c          	.word	0x1608004c
 204:	00000003          	.word	0x00000003
 208:	00444445          	.word	0x00444445
 20c:	00000000          	.word	0x00000000
 210:	4044280e          	.word	0x4044280e
 214:	00000000          	.word	0x00000000
 218:	0004012e          	.word	0x0004012e
 21c:	00000000          	.word	0x00000000
 220:	04800001          	.word	0x04800001
 224:	00000003          	.word	0x00000003
 228:	0054443d          	.word	0x0054443d
 22c:	00000000          	.word	0x00000000
 230:	1f00c04c          	.word	0x1f00c04c
 234:	00000003          	.word	0x00000003
 238:	0004012e          	.word	0x0004012e
 23c:	00000000          	.word	0x00000000
 240:	1d0000c4          	.word	0x1d0000c4
 244:	00000001          	.word	0x00000001
 248:	0001584a          	.word	0x0001584a
 24c:	00000000          	.word	0x00000000
 250:	484c500e          	.word	0x484c500e
 254:	00000000          	.word	0x00000000
 258:	004cdc45          	.word	0x004cdc45
 25c:	00000000          	.word	0x00000000
 260:	0000019e          	.word	0x0000019e
 264:	00000000          	.word	0x00000000
 268:	19801041          	.word	0x19801041
 26c:	00000001          	.word	0x00000001
 270:	1c000444          	.word	0x1c000444
 274:	00000001          	.word	0x00000001
 278:	c84d888e          	.word	0xc84d888e
 27c:	00000000          	.word	0x00000000
 280:	04800001          	.word	0x04800001
 284:	00000003          	.word	0x00000003
 288:	00000196          	.word	0x00000196
 28c:	00000000          	.word	0x00000000
 290:	04800001          	.word	0x04800001
 294:	00000003          	.word	0x00000003
 298:	0000584a          	.word	0x0000584a
 29c:	00000000          	.word	0x00000000
 2a0:	484c480e          	.word	0x484c480e
 2a4:	00000000          	.word	0x00000000
 2a8:	004cdc45          	.word	0x004cdc45
 2ac:	00000000          	.word	0x00000000
 2b0:	04800001          	.word	0x04800001
 2b4:	00000003          	.word	0x00000003
 2b8:	210000c4          	.word	0x210000c4
 2bc:	00000001          	.word	0x00000001
 2c0:	22002254          	.word	0x22002254
 2c4:	00000001          	.word	0x00000001
 2c8:	000400ae          	.word	0x000400ae
 2cc:	00000000          	.word	0x00000000
 2d0:	04800001          	.word	0x04800001
 2d4:	00000003          	.word	0x00000003
 2d8:	003401ae          	.word	0x003401ae
 2dc:	00000000          	.word	0x00000000
 2e0:	04800001          	.word	0x04800001
 2e4:	00000003          	.word	0x00000003
 2e8:	000c01ae          	.word	0x000c01ae
 2ec:	00000000          	.word	0x00000000
 2f0:	04800001          	.word	0x04800001
 2f4:	00000003          	.word	0x00000003
 2f8:	04800844          	.word	0x04800844
 2fc:	00000001          	.word	0x00000001
 300:	27400044          	.word	0x27400044
 304:	00000001          	.word	0x00000001
 308:	260000c4          	.word	0x260000c4
 30c:	00000001          	.word	0x00000001
 310:	0044108e          	.word	0x0044108e
 314:	00000000          	.word	0x00000000
 318:	00000016          	.word	0x00000016
 31c:	00000000          	.word	0x00000000
 320:	04800001          	.word	0x04800001
 324:	00000003          	.word	0x00000003
 328:	0044188e          	.word	0x0044188e
 32c:	00000000          	.word	0x00000000
 330:	04800001          	.word	0x04800001
 334:	00000003          	.word	0x00000003
 338:	00000405          	.word	0x00000405
 33c:	00000000          	.word	0x00000000
 340:	27000844          	.word	0x27000844
 344:	00000001          	.word	0x00000001
 348:	0504040d          	.word	0x0504040d
 34c:	00000000          	.word	0x00000000
 350:	0000004d          	.word	0x0000004d
 354:	00000000          	.word	0x00000000
 358:	0000384a          	.word	0x0000384a
 35c:	00000000          	.word	0x00000000
 360:	00003c8a          	.word	0x00003c8a
 364:	00000000          	.word	0x00000000
 368:	0006484a          	.word	0x0006484a
 36c:	00000000          	.word	0x00000000
 370:	2f04004c          	.word	0x2f04004c
 374:	00000001          	.word	0x00000001
 378:	4044380e          	.word	0x4044380e
 37c:	00000000          	.word	0x00000000
 380:	00447c45          	.word	0x00447c45
 384:	00000000          	.word	0x00000000
 388:	0000019e          	.word	0x0000019e
 38c:	00000000          	.word	0x00000000
 390:	2c001041          	.word	0x2c001041
 394:	00000001          	.word	0x00000001
 398:	2e800444          	.word	0x2e800444
 39c:	00000001          	.word	0x00000001
 3a0:	c045888e          	.word	0xc045888e
 3a4:	00000000          	.word	0x00000000
 3a8:	2f000001          	.word	0x2f000001
 3ac:	00000003          	.word	0x00000003
 3b0:	00000196          	.word	0x00000196
 3b4:	00000000          	.word	0x00000000
 3b8:	3000204c          	.word	0x3000204c
 3bc:	00000003          	.word	0x00000003
 3c0:	00000046          	.word	0x00000046
 3c4:	00000000          	.word	0x00000000
 3c8:	3480c04c          	.word	0x3480c04c
 3cc:	00000003          	.word	0x00000003
 3d0:	484c380e          	.word	0x484c380e
 3d4:	00000000          	.word	0x00000000
 3d8:	004cfc45          	.word	0x004cfc45
 3dc:	00000000          	.word	0x00000000
 3e0:	0000019e          	.word	0x0000019e
 3e4:	00000000          	.word	0x00000000
 3e8:	31801041          	.word	0x31801041
 3ec:	00000001          	.word	0x00000001
 3f0:	34000444          	.word	0x34000444
 3f4:	00000001          	.word	0x00000001
 3f8:	c045888e          	.word	0xc045888e
 3fc:	00000000          	.word	0x00000000
 400:	34800001          	.word	0x34800001
 404:	00000003          	.word	0x00000003
 408:	00000196          	.word	0x00000196
 40c:	00000000          	.word	0x00000000
 410:	00004b92          	.word	0x00004b92
 414:	00000000          	.word	0x00000000
 418:	370000c4          	.word	0x370000c4
 41c:	00000001          	.word	0x00000001
 420:	8044108e          	.word	0x8044108e
 424:	00000000          	.word	0x00000000
 428:	00000016          	.word	0x00000016
 42c:	00000000          	.word	0x00000000
 430:	04800001          	.word	0x04800001
 434:	00000003          	.word	0x00000003
 438:	8044188e          	.word	0x8044188e
 43c:	00000000          	.word	0x00000000
 440:	04800001          	.word	0x04800001
 444:	00000003          	.word	0x00000003
 448:	ffffffff          	.word	0xffffffff
 44c:	ffffffff          	.word	0xffffffff
 450:	ffffffff          	.word	0xffffffff
 454:	ffffffff          	.word	0xffffffff
 458:	0000                	unimp
	...
