
/mnt/users/ssd0/no_backup/petrisko/black-parrot/bp_top/syn/results/verilator/bp_tethered.e_bp_default_cfg.none.sim.bp-tests.hello_world/prog.riscv:     file format elf64-littleriscv

SYMBOL TABLE:
0000000080000000 l    d  .text	0000000000000000 .text
0000000080004f88 l    d  .rodata	0000000000000000 .rodata
0000000080005068 l    d  .init_array	0000000000000000 .init_array
0000000080005078 l    d  .fini_array	0000000000000000 .fini_array
0000000080005080 l    d  .eh_frame	0000000000000000 .eh_frame
0000000080005090 l    d  .data	0000000000000000 .data
0000000080007e30 l    d  .got	0000000000000000 .got
0000000080007e40 l    d  .got.plt	0000000000000000 .got.plt
0000000080100000 l    d  .sdata	0000000000000000 .sdata
0000000080200048 l    d  .sbss	0000000000000000 .sbss
0000000080200068 l    d  .bss	0000000000000000 .bss
0000000000000000 l    d  .riscv.attributes	0000000000000000 .riscv.attributes
0000000000000000 l    d  .comment	0000000000000000 .comment
0000000000000000 l    df *ABS*	0000000000000000 crt0.o
000000008000008c l       .text	0000000000000000 init_hart0
000000008000007e l       .text	0000000000000000 wait_for_sync
00000000800000c8 l       .text	0000000000000000 init_hartn
0000000000000000 l    df *ABS*	0000000000000000 exception.o
0000000000000000 l    df *ABS*	0000000000000000 atomics.o
0000000000000000 l    df *ABS*	0000000000000000 muldiv.o
0000000000000000 l    df *ABS*	0000000000000000 crtstuff.c
0000000080005080 l     O .eh_frame	0000000000000000 __EH_FRAME_BEGIN__
00000000800000ee l     F .text	0000000000000000 __do_global_dtors_aux
0000000080200068 l     O .bss	0000000000000001 completed.1
0000000080005078 l     O .fini_array	0000000000000000 __do_global_dtors_aux_fini_array_entry
0000000080000126 l     F .text	0000000000000000 frame_dummy
0000000080200070 l     O .bss	0000000000000030 object.0
0000000080005070 l     O .init_array	0000000000000000 __frame_dummy_init_array_entry
0000000000000000 l    df *ABS*	0000000000000000 hello_world.c
0000000000000000 l    df *ABS*	0000000000000000 bp_trap.c
00000000800070f0 l     O .data	0000000000000080 exception_handler
0000000080007170 l     O .data	0000000000000060 interrupt_handler
0000000000000000 l    df *ABS*	0000000000000000 bp_utils.c
0000000000000000 l    df *ABS*	0000000000000000 bsg_newlib_intf.c
0000000000000000 l    df *ABS*	0000000000000000 emulation.c
00000000800071d0 l     O .data	0000000000000100 amow_jt
00000000800072d0 l     O .data	0000000000000100 amod_jt
0000000080007410 l     O .data	0000000000000040 amo_jt
00000000800073d0 l     O .data	0000000000000040 mul_jt
0000000000000000 l    df *ABS*	0000000000000000 atexit.c
0000000000000000 l    df *ABS*	0000000000000000 exit.c
0000000000000000 l    df *ABS*	0000000000000000 fini.c
0000000000000000 l    df *ABS*	0000000000000000 impure.c
0000000080007450 l     O .data	00000000000001d0 impure_data
0000000000000000 l    df *ABS*	0000000000000000 init.c
0000000000000000 l    df *ABS*	0000000000000000 lib_a-memset.o
0000000000000000 l    df *ABS*	0000000000000000 __atexit.c
0000000000000000 l    df *ABS*	0000000000000000 __call_atexit.c
0000000080003edc l     F .text	0000000000000012 register_fini
0000000000000000 l    df *ABS*	0000000000000000 sys_exit.c
0000000000000000 l    df *ABS*	0000000000000000 sysclose.c
0000000000000000 l    df *ABS*	0000000000000000 closer.c
0000000000000000 l    df *ABS*	0000000000000000 reent.c
0000000000000000 l    df *ABS*	0000000000000000 mallocr.c
0000000000000000 l    df *ABS*	0000000000000000 mallocr.c
0000000000000000 l    df *ABS*	0000000000000000 mlock.c
0000000000000000 l    df *ABS*	0000000000000000 sbrkr.c
0000000000000000 l    df *ABS*	0000000000000000 sys_close.c
0000000000000000 l    df *ABS*	0000000000000000 sys_sbrk.c
0000000000000000 l    df *ABS*	0000000000000000 dramfs_fdtable.c
00000000802000a0 l     O .bss	0000000000000640 dramfs_fdtable
0000000000000000 l    df *ABS*	0000000000000000 lfs.c
0000000080000db6 l     F .text	0000000000000010 lfs_bd_erase
0000000080000dc6 l     F .text	0000000000000034 lfs_alloc_lookahead
0000000080000dfa l     F .text	00000000000000ba lfs_dir_fromle32
0000000080000eb4 l     F .text	00000000000000ba lfs_dir_tole32
0000000080000f6e l     F .text	000000000000005e lfs_entry_fromle32
0000000080000fcc l     F .text	000000000000005e lfs_entry_tole32
000000008000102a l     F .text	0000000000000158 lfs_cache_read
0000000080001182 l     F .text	000000000000001c lfs_bd_read
000000008000119e l     F .text	000000000000015c lfs_dir_fetch
00000000800012fa l     F .text	00000000000000e0 lfs_dir_next
00000000800013da l     F .text	0000000000000098 lfs_moved
0000000080001472 l     F .text	00000000000000c0 lfs_parent
0000000080001532 l     F .text	0000000000000094 lfs_pred
00000000800015c6 l     F .text	0000000000000072 lfs_cache_cmp
0000000080001638 l     F .text	00000000000001ce lfs_dir_find
0000000080001806 l     F .text	000000000000003a lfs_deinit
0000000080001840 l     F .text	00000000000000bc lfs_ctz_index
00000000800018fc l     F .text	0000000000000102 lfs_ctz_traverse
00000000800019fe l     F .text	000000000000008c lfs_init
0000000080001a8a l     F .text	00000000000001a6 lfs_ctz_find
0000000080001c30 l     F .text	0000000000000080 lfs_cache_flush
0000000080001cb0 l     F .text	0000000000000132 lfs_cache_prog
00000000800023c8 l     F .text	00000000000000de lfs_alloc
00000000800024a6 l     F .text	0000000000000094 lfs_dir_alloc
000000008000253a l     F .text	00000000000000f8 lfs_file_relocate
00000000800029f4 l     F .text	00000000000000fa lfs_file_flush
00000000800034a6 l     F .text	000000000000014a lfs_dir_remove
0000000080002e90 l     F .text	000000000000038e lfs_dir_commit
000000008000321e l     F .text	0000000000000064 lfs_dir_update
000000008000336a l     F .text	000000000000013c lfs_dir_append
0000000000000000 l    df *ABS*	0000000000000000 lfs_util.c
0000000080004ff0 l     O .rodata	0000000000000040 rtable.0
0000000000000000 l    df *ABS*	0000000000000000 lfs_mem.c
0000000000000000 l    df *ABS*	0000000000000000 lfs_bd.c
0000000000000000 l    df *ABS*	0000000000000000 dramfs_fs.c
0000000000000000 l    df *ABS*	0000000000000000 errno.c
0000000000000000 l    df *ABS*	0000000000000000 malloc.c
0000000000000000 l    df *ABS*	0000000000000000 memcmp.c
0000000000000000 l    df *ABS*	0000000000000000 memcpy.c
0000000000000000 l    df *ABS*	0000000000000000 strchr.c
0000000000000000 l    df *ABS*	0000000000000000 strcspn.c
0000000000000000 l    df *ABS*	0000000000000000 strlen.c
0000000000000000 l    df *ABS*	0000000000000000 strspn.c
0000000000000000 l    df *ABS*	0000000000000000 sysopen.c
0000000000000000 l    df *ABS*	0000000000000000 openr.c
0000000000000000 l    df *ABS*	0000000000000000 sys_open.c
0000000000000000 l    df *ABS*	0000000000000000 crtstuff.c
0000000080005080 l     O .eh_frame	0000000000000000 __FRAME_END__
0000000080005080 l       .fini_array	0000000000000000 __fini_array_end
0000000080005078 l       .fini_array	0000000000000000 __fini_array_start
0000000080005078 l       .init_array	0000000000000000 __init_array_end
0000000080005067 l       .init_array	0000000000000000 __preinit_array_end
0000000080007e30 l     O .got	0000000000000000 _GLOBAL_OFFSET_TABLE_
0000000080005068 l       .init_array	0000000000000000 __init_array_start
0000000080005067 l       .init_array	0000000000000000 __preinit_array_start
0000000080100000  w      .sdata	0000000000000000 _argv
0000000080001de2 g     F .text	000000000000005c lfs_dir_open
0000000080004034 g     F .text	0000000000000060 cleanup_glue
0000000080001ff6 g     F .text	0000000000000004 lfs_file_tell
0000000080000530  w    F .text	0000000000000010 dramfs_fs_init
00000000800035f0 g     F .text	00000000000001ea lfs_format
0000000080001f66 g     F .text	000000000000002a lfs_dir_rewind
0000000080000310 g       .text	0000000000000000 amo_maxuw
00000000800003a8 g       .text	0000000000000000 amo_minuw
00000000800007bc g     F .text	0000000000000022 dramfs_sendchar
0000000080000230 g       .text	0000000000000000 amo_andd
0000000080008650 g       .sdata	0000000000000000 __global_pointer$
0000000080005090 g       .data	0000000000000000 _fdata
0000000080004ab0 g     F .text	0000000000000002 __malloc_unlock
0000000080000ba8 g       .text	0000000000000000 mul_mulhu
0000000080002bf8 g     F .text	000000000000004e lfs_file_seek
000000008000224a g     F .text	0000000000000010 lfs_unmount
0000000080004b22 g     F .text	000000000000000a __errno
0000000080003ce2 g     F .text	000000000000002c lfs_erase
0000000080003aa2 g     F .text	0000000000000190 lfs_rename
0000000080200048 g     O .sbss	0000000000000004 errno
0000000080005067 g       .rodata	0000000000000000 _etext
0000000080100000  w      .sdata	0000000000000000 _gp
00000000800006ec g     F .text	0000000000000046 bp_cget
0000000080001f90 g     F .text	0000000000000066 lfs_dir_seek
0000000080007090  w    O .data	0000000000000060 dramfs_fs_cfg
0000000080004b9a g     F .text	00000000000000e4 memcpy
0000000080005090  w    O .data	0000000000002000 lfs_mem
0000000080003c7e g     F .text	0000000000000032 lfs_read
0000000080000a02 g       .text	000000000000000a __mtvec_handler
0000000080002632 g     F .text	00000000000003c2 lfs_file_write
0000000080002c46 g     F .text	000000000000001e lfs_file_rewind
00000000800007de g     F .text	0000000000000018 dramfs_getchar
000000008000045c g     F .text	00000000000000d4 bp_trap_handler
000000008000064c g     F .text	0000000000000064 bp_hprint_uint64
00000000800006b0 g     F .text	000000000000003c bp_print_string
000000008000055a g     F .text	0000000000000046 bp_barrier_end
0000000080004b2c g     F .text	000000000000000e malloc
0000000080000754 g     F .text	000000000000001a bp_param_get
0000000080000204 g       .text	0000000000000000 amo_addd
0000000080000732 g     F .text	0000000000000022 bp_panic
0000000080200060 g     O .sbss	0000000000000008 __malloc_top_pad
0000000080004ab2 g     F .text	0000000000000038 _sbrk_r
000000008000025c g       .text	0000000000000000 amo_ord
0000000080200058 g     O .sbss	0000000000000008 __malloc_max_sbrked_mem
0000000080200020 g     O .sdata	0000000000000008 heap_ptr
0000000080200028 g     O .sdata	0000000000000008 _global_impure_ptr
0000000080003de4 g     F .text	000000000000006a __libc_init_array
0000000080000c96 g     F .text	0000000000000022 dramfs_init_fdtable
0000000080004ef4 g     F .text	000000000000008e _open
0000000080004b10 g     F .text	0000000000000012 _sbrk
0000000080003894 g     F .text	0000000000000170 lfs_file_opencfg
00000000802006e0  w    O .bss	0000000000000060 dramfs_fs
0000000080000d4e g     F .text	0000000000000014 dramfs_get_file
00000000800009cc g     F .text	0000000000000036 bp_unhandled_trap_abort
0000000080000b64 g       .text	0000000000000000 mul_mulhsu
0000000080002c64 g     F .text	00000000000000ca lfs_file_truncate
0000000080003dac g     F .text	0000000000000038 __libc_fini_array
0000000080000d62 g     F .text	0000000000000054 dramfs_free_fd
0000000080004094 g     F .text	00000000000000fa _reclaim_reent
0000000080200000 g     O .sdata	0000000000000008 lfs_ptr
0000000080003d0e g     F .text	0000000000000004 lfs_sync
0000000080001ffa g     F .text	000000000000001e lfs_file_size
000000008000029e g       .text	0000000000000000 amo_maxd
0000000080000336 g       .text	0000000000000000 amo_mind
00000000800001dc g       .text	0000000000000000 amo_swapd
00000000800001ca g       .text	0000000000000000 amo_swapw
0000000080004268 g     F .text	000000000000024c _free_r
0000000080003eee g     F .text	00000000000000e0 __call_exitprocs
000000008f000000 g       *ABS*	0000000000000000 _sp
0000000080000000 g       .text	0000000000000000 _ftext
0000000080200010 g     O .sdata	0000000000000008 __malloc_sbrk_base
0000000080000000 g     F .text	00000000000000e8 _start
000000008000021a g       .text	0000000000000000 amo_andw
000000008000076e g     F .text	0000000000000028 dramfs_init
0000000080004eb6 g     F .text	000000000000003e _open_r
0000000080003e4e g     F .text	000000000000008e __register_exitproc
0000000080001e5e g     F .text	0000000000000104 lfs_dir_read
0000000080200740 g     O .bss	0000000000000028 __malloc_current_mallinfo
0000000080003282 g     F .text	0000000000000094 lfs_file_sync
0000000080000d08 g     F .text	0000000000000046 dramfs_reserve_fd
0000000080003ffc g     F .text	0000000000000038 _close_r
0000000080004b48 g     F .text	0000000000000052 memcmp
000000008000225a g     F .text	000000000000016e lfs_traverse
0000000080000cb8 g     F .text	0000000000000034 dramfs_check_fd
00000000800037da g     F .text	00000000000000ba lfs_mkdir
0000000080007620 g     O .data	0000000000000810 __malloc_av_
0000000080003316 g     F .text	0000000000000054 lfs_file_close
0000000080004aae g     F .text	0000000000000002 __malloc_lock
000000008000062c g     F .text	0000000000000020 bp_cprint
0000000080200068 g       .bss	0000000000000000 __bss_start
0000000080000bec g     F .text	00000000000000aa memset
0000000080000146 g     F .text	0000000000000084 main
0000000080000cec g     F .text	000000000000001c dramfs_nonblock_fd
0000000080003cb0 g     F .text	0000000000000032 lfs_prog
0000000080200050 g     O .sbss	0000000000000008 __malloc_max_total_mem
00000000800002ea g       .text	0000000000000000 amo_maxud
0000000080000382 g       .text	0000000000000000 amo_minud
00000000800044b4 g     F .text	00000000000005fa _malloc_r
0000000080001f62 g     F .text	0000000000000004 lfs_dir_tell
000000008000418e g     F .text	00000000000000da _malloc_trim_r
0000000080000796 g     F .text	0000000000000026 dramfs_exit
0000000080002018 g     F .text	0000000000000096 lfs_stat
0000000080003d80 g     F .text	000000000000000a atexit
0000000080004d74 g     F .text	000000000000004c strcspn
00000000800005a0 g     F .text	0000000000000032 bp_finish
0000000080200008 g     O .sdata	0000000000000008 _impure_ptr
0000000080000246 g       .text	0000000000000000 amo_orw
0000000080000288 g       .text	0000000000000000 amo_xord
00000000800001ee g       .text	0000000000000000 amo_addw
0000000080000272 g       .text	0000000000000000 amo_xorw
0000000080003c32 g     F .text	0000000000000046 lfs_crc
0000000080200048 g       .sdata	0000000000000000 _edata
0000000080200768 g       .bss	0000000000000000 _end
00000000800005d2 g     F .text	000000000000005a bp_hprint
0000000080003a14 g     F .text	000000000000008e lfs_remove
0000000080200000  w      .sdata	0000000000000000 _sync
0000000080003a04 g     F .text	0000000000000010 lfs_file_open
00000000800003ce g     F .text	000000000000008e register_trap_handler
0000000080200018 g     O .sdata	0000000000000008 __malloc_trim_threshold
0000000080003d8a g     F .text	0000000000000022 exit
0000000080000854 g     F .text	0000000000000178 bp_emulate_illegal_instruction
0000000080003fce g     F .text	0000000000000022 _exit
00000000800020ae g     F .text	000000000000019c lfs_mount
0000000080004e54 g     F .text	0000000000000034 strspn
0000000080004dc0 g     F .text	0000000000000094 strlen
0000000080004e88 g     F .text	000000000000002e open
0000000080100000  w      .sdata	0000000000000004 _argc
0000000080004c7e g     F .text	00000000000000f6 strchr
0000000080002aee g     F .text	000000000000010a lfs_file_read
0000000080001e3e g     F .text	0000000000000020 lfs_dir_close
0000000080000540 g     F .text	000000000000001a bp_get_hart
00000000800002c4 g       .text	0000000000000000 amo_maxw
000000008000035c g       .text	0000000000000000 amo_minw
0000000080002d2e g     F .text	0000000000000162 lfs_deorphan
0000000080200048 g       .sbss	0000000000000000 _fbss
0000000080003ff0 g     F .text	000000000000000c close
0000000080000b20 g       .text	0000000000000000 mul_mulh
0000000080004aea g     F .text	0000000000000026 _close
0000000080004b3a g     F .text	000000000000000e free
00000000800007f6 g     F .text	000000000000005e bp_dump_trap_context



Disassembly of section .text:

0000000080000000 <_start>:
    80000000:	00100197          	auipc	gp,0x100
    80000004:	00018193          	mv	gp,gp
    80000008:	0f000117          	auipc	sp,0xf000
    8000000c:	ff810113          	add	sp,sp,-8 # 8f000000 <_sp>
    80000010:	f14022f3          	csrr	t0,mhartid
    80000014:	02b6                	sll	t0,t0,0xd
    80000016:	40510133          	sub	sp,sp,t0
    8000001a:	34011073          	csrw	mscratch,sp
    8000001e:	4285                	li	t0,1
    80000020:	02b2                	sll	t0,t0,0xc
    80000022:	40510133          	sub	sp,sp,t0
    80000026:	00001297          	auipc	t0,0x1
    8000002a:	9dc28293          	add	t0,t0,-1572 # 80000a02 <__mtvec_handler>
    8000002e:	30529073          	csrw	mtvec,t0
    80000032:	6289                	lui	t0,0x2
    80000034:	3002a073          	csrs	mstatus,t0
    80000038:	00305073          	csrw	fcsr,0
    8000003c:	4081                	li	ra,0
    8000003e:	4201                	li	tp,0
    80000040:	4281                	li	t0,0
    80000042:	4301                	li	t1,0
    80000044:	4381                	li	t2,0
    80000046:	4401                	li	s0,0
    80000048:	4481                	li	s1,0
    8000004a:	4501                	li	a0,0
    8000004c:	4581                	li	a1,0
    8000004e:	4601                	li	a2,0
    80000050:	4681                	li	a3,0
    80000052:	4701                	li	a4,0
    80000054:	4781                	li	a5,0
    80000056:	4801                	li	a6,0
    80000058:	4881                	li	a7,0
    8000005a:	4901                	li	s2,0
    8000005c:	4981                	li	s3,0
    8000005e:	4a01                	li	s4,0
    80000060:	4a81                	li	s5,0
    80000062:	4b01                	li	s6,0
    80000064:	4b81                	li	s7,0
    80000066:	4c01                	li	s8,0
    80000068:	4c81                	li	s9,0
    8000006a:	4d01                	li	s10,0
    8000006c:	4d81                	li	s11,0
    8000006e:	4e01                	li	t3,0
    80000070:	4e81                	li	t4,0
    80000072:	4f01                	li	t5,0
    80000074:	4f81                	li	t6,0
    80000076:	f14022f3          	csrr	t0,mhartid
    8000007a:	00028963          	beqz	t0,8000008c <init_hart0>

000000008000007e <wait_for_sync>:
    8000007e:	00200297          	auipc	t0,0x200
    80000082:	f822b283          	ld	t0,-126(t0) # 80200000 <lfs_ptr>
    80000086:	04029163          	bnez	t0,800000c8 <init_hartn>
    8000008a:	bfd5                	j	8000007e <wait_for_sync>

000000008000008c <init_hart0>:
    8000008c:	00200517          	auipc	a0,0x200
    80000090:	fbc50513          	add	a0,a0,-68 # 80200048 <errno>
    80000094:	00200617          	auipc	a2,0x200
    80000098:	6d460613          	add	a2,a2,1748 # 80200768 <_end>
    8000009c:	8e09                	sub	a2,a2,a0
    8000009e:	4581                	li	a1,0
    800000a0:	34d000ef          	jal	80000bec <memset>
    800000a4:	48c000ef          	jal	80000530 <dramfs_fs_init>
    800000a8:	ed05                	bnez	a0,800000e0 <init_hartn+0x18>
    800000aa:	00004517          	auipc	a0,0x4
    800000ae:	d0250513          	add	a0,a0,-766 # 80003dac <__libc_fini_array>
    800000b2:	4cf030ef          	jal	80003d80 <atexit>
    800000b6:	52f030ef          	jal	80003de4 <__libc_init_array>
    800000ba:	4285                	li	t0,1
    800000bc:	00200317          	auipc	t1,0x200
    800000c0:	f4430313          	add	t1,t1,-188 # 80200000 <lfs_ptr>
    800000c4:	00533023          	sd	t0,0(t1)

00000000800000c8 <init_hartn>:
    800000c8:	00100517          	auipc	a0,0x100
    800000cc:	f3850513          	add	a0,a0,-200 # 80100000 <_argc>
    800000d0:	4108                	lw	a0,0(a0)
    800000d2:	00100597          	auipc	a1,0x100
    800000d6:	f2e58593          	add	a1,a1,-210 # 80100000 <_argc>
    800000da:	4601                	li	a2,0
    800000dc:	06a000ef          	jal	80000146 <main>
    800000e0:	4ab0306f          	j	80003d8a <exit>
    800000e4:	0001                	nop
    800000e6:	bffd                	j	800000e4 <init_hartn+0x1c>
    800000e8:	557d                	li	a0,-1
    800000ea:	4a10306f          	j	80003d8a <exit>

00000000800000ee <__do_global_dtors_aux>:
    800000ee:	1141                	add	sp,sp,-16
    800000f0:	e022                	sd	s0,0(sp)
    800000f2:	00200417          	auipc	s0,0x200
    800000f6:	f7640413          	add	s0,s0,-138 # 80200068 <completed.1>
    800000fa:	00044783          	lbu	a5,0(s0)
    800000fe:	e406                	sd	ra,8(sp)
    80000100:	ef99                	bnez	a5,8000011e <__do_global_dtors_aux+0x30>
    80000102:	00000793          	li	a5,0
    80000106:	cb89                	beqz	a5,80000118 <__do_global_dtors_aux+0x2a>
    80000108:	00005517          	auipc	a0,0x5
    8000010c:	f7850513          	add	a0,a0,-136 # 80005080 <__EH_FRAME_BEGIN__>
    80000110:	00000097          	auipc	ra,0x0
    80000114:	000000e7          	jalr	zero # 0 <_start-0x80000000>
    80000118:	4785                	li	a5,1
    8000011a:	00f40023          	sb	a5,0(s0)
    8000011e:	60a2                	ld	ra,8(sp)
    80000120:	6402                	ld	s0,0(sp)
    80000122:	0141                	add	sp,sp,16
    80000124:	8082                	ret

0000000080000126 <frame_dummy>:
    80000126:	00000793          	li	a5,0
    8000012a:	cf89                	beqz	a5,80000144 <frame_dummy+0x1e>
    8000012c:	00200597          	auipc	a1,0x200
    80000130:	f4458593          	add	a1,a1,-188 # 80200070 <object.0>
    80000134:	00005517          	auipc	a0,0x5
    80000138:	f4c50513          	add	a0,a0,-180 # 80005080 <__EH_FRAME_BEGIN__>
    8000013c:	00000317          	auipc	t1,0x0
    80000140:	00000067          	jr	zero # 0 <_start-0x80000000>
    80000144:	8082                	ret

0000000080000146 <main>:
    80000146:	1101                	add	sp,sp,-32
    80000148:	ec06                	sd	ra,24(sp)
    8000014a:	e822                	sd	s0,16(sp)
    8000014c:	1000                	add	s0,sp,32
    8000014e:	87aa                	mv	a5,a0
    80000150:	feb43023          	sd	a1,-32(s0)
    80000154:	fef42623          	sw	a5,-20(s0)
    80000158:	04800513          	li	a0,72
    8000015c:	4d0000ef          	jal	8000062c <bp_cprint>
    80000160:	06500513          	li	a0,101
    80000164:	4c8000ef          	jal	8000062c <bp_cprint>
    80000168:	06c00513          	li	a0,108
    8000016c:	4c0000ef          	jal	8000062c <bp_cprint>
    80000170:	06c00513          	li	a0,108
    80000174:	4b8000ef          	jal	8000062c <bp_cprint>
    80000178:	06f00513          	li	a0,111
    8000017c:	4b0000ef          	jal	8000062c <bp_cprint>
    80000180:	02000513          	li	a0,32
    80000184:	4a8000ef          	jal	8000062c <bp_cprint>
    80000188:	05700513          	li	a0,87
    8000018c:	4a0000ef          	jal	8000062c <bp_cprint>
    80000190:	06f00513          	li	a0,111
    80000194:	498000ef          	jal	8000062c <bp_cprint>
    80000198:	07200513          	li	a0,114
    8000019c:	490000ef          	jal	8000062c <bp_cprint>
    800001a0:	06c00513          	li	a0,108
    800001a4:	488000ef          	jal	8000062c <bp_cprint>
    800001a8:	06400513          	li	a0,100
    800001ac:	480000ef          	jal	8000062c <bp_cprint>
    800001b0:	02100513          	li	a0,33
    800001b4:	478000ef          	jal	8000062c <bp_cprint>
    800001b8:	4529                	li	a0,10
    800001ba:	472000ef          	jal	8000062c <bp_cprint>
    800001be:	4781                	li	a5,0
    800001c0:	853e                	mv	a0,a5
    800001c2:	60e2                	ld	ra,24(sp)
    800001c4:	6442                	ld	s0,16(sp)
    800001c6:	6105                	add	sp,sp,32
    800001c8:	8082                	ret

00000000800001ca <amo_swapw>:
    800001ca:	100522af          	lr.w	t0,(a0)
    800001ce:	18b5232f          	sc.w	t1,a1,(a0)
    800001d2:	fe031ce3          	bnez	t1,800001ca <amo_swapw>
    800001d6:	8516                	mv	a0,t0
    800001d8:	00008067          	ret

00000000800001dc <amo_swapd>:
    800001dc:	100532af          	lr.d	t0,(a0)
    800001e0:	18b5332f          	sc.d	t1,a1,(a0)
    800001e4:	fe031ce3          	bnez	t1,800001dc <amo_swapd>
    800001e8:	8516                	mv	a0,t0
    800001ea:	00008067          	ret

00000000800001ee <amo_addw>:
    800001ee:	100522af          	lr.w	t0,(a0)
    800001f2:	00b2833b          	addw	t1,t0,a1
    800001f6:	1865232f          	sc.w	t1,t1,(a0)
    800001fa:	fe031ae3          	bnez	t1,800001ee <amo_addw>
    800001fe:	8516                	mv	a0,t0
    80000200:	00008067          	ret

0000000080000204 <amo_addd>:
    80000204:	100532af          	lr.d	t0,(a0)
    80000208:	00b28333          	add	t1,t0,a1
    8000020c:	1865332f          	sc.d	t1,t1,(a0)
    80000210:	fe031ae3          	bnez	t1,80000204 <amo_addd>
    80000214:	8516                	mv	a0,t0
    80000216:	00008067          	ret

000000008000021a <amo_andw>:
    8000021a:	100522af          	lr.w	t0,(a0)
    8000021e:	00b2f333          	and	t1,t0,a1
    80000222:	1865232f          	sc.w	t1,t1,(a0)
    80000226:	fe031ae3          	bnez	t1,8000021a <amo_andw>
    8000022a:	8516                	mv	a0,t0
    8000022c:	00008067          	ret

0000000080000230 <amo_andd>:
    80000230:	100532af          	lr.d	t0,(a0)
    80000234:	00b2f333          	and	t1,t0,a1
    80000238:	1865332f          	sc.d	t1,t1,(a0)
    8000023c:	fe031ae3          	bnez	t1,80000230 <amo_andd>
    80000240:	8516                	mv	a0,t0
    80000242:	00008067          	ret

0000000080000246 <amo_orw>:
    80000246:	100522af          	lr.w	t0,(a0)
    8000024a:	00b2e333          	or	t1,t0,a1
    8000024e:	1865232f          	sc.w	t1,t1,(a0)
    80000252:	fe031ae3          	bnez	t1,80000246 <amo_orw>
    80000256:	8516                	mv	a0,t0
    80000258:	00008067          	ret

000000008000025c <amo_ord>:
    8000025c:	100532af          	lr.d	t0,(a0)
    80000260:	00b2e333          	or	t1,t0,a1
    80000264:	1865332f          	sc.d	t1,t1,(a0)
    80000268:	fe031ae3          	bnez	t1,8000025c <amo_ord>
    8000026c:	8516                	mv	a0,t0
    8000026e:	00008067          	ret

0000000080000272 <amo_xorw>:
    80000272:	100522af          	lr.w	t0,(a0)
    80000276:	00b2c333          	xor	t1,t0,a1
    8000027a:	1865232f          	sc.w	t1,t1,(a0)
    8000027e:	fe031ae3          	bnez	t1,80000272 <amo_xorw>
    80000282:	8516                	mv	a0,t0
    80000284:	00008067          	ret

0000000080000288 <amo_xord>:
    80000288:	100532af          	lr.d	t0,(a0)
    8000028c:	00b2c333          	xor	t1,t0,a1
    80000290:	1865332f          	sc.d	t1,t1,(a0)
    80000294:	fe031ae3          	bnez	t1,80000288 <amo_xord>
    80000298:	8516                	mv	a0,t0
    8000029a:	00008067          	ret

000000008000029e <amo_maxd>:
    8000029e:	100532af          	lr.d	t0,(a0)
    800002a2:	00b2a333          	slt	t1,t0,a1
    800002a6:	40600333          	neg	t1,t1
    800002aa:	00b2c3b3          	xor	t2,t0,a1
    800002ae:	00737e33          	and	t3,t1,t2
    800002b2:	01c2ce33          	xor	t3,t0,t3
    800002b6:	19c5332f          	sc.d	t1,t3,(a0)
    800002ba:	fe0312e3          	bnez	t1,8000029e <amo_maxd>
    800002be:	8516                	mv	a0,t0
    800002c0:	00008067          	ret

00000000800002c4 <amo_maxw>:
    800002c4:	100522af          	lr.w	t0,(a0)
    800002c8:	00b2a333          	slt	t1,t0,a1
    800002cc:	4060033b          	negw	t1,t1
    800002d0:	00b2c3b3          	xor	t2,t0,a1
    800002d4:	00737e33          	and	t3,t1,t2
    800002d8:	01c2ce33          	xor	t3,t0,t3
    800002dc:	19c5232f          	sc.w	t1,t3,(a0)
    800002e0:	fe0312e3          	bnez	t1,800002c4 <amo_maxw>
    800002e4:	8516                	mv	a0,t0
    800002e6:	00008067          	ret

00000000800002ea <amo_maxud>:
    800002ea:	100532af          	lr.d	t0,(a0)
    800002ee:	00b2b333          	sltu	t1,t0,a1
    800002f2:	40600333          	neg	t1,t1
    800002f6:	00b2c3b3          	xor	t2,t0,a1
    800002fa:	00737e33          	and	t3,t1,t2
    800002fe:	01c2ce33          	xor	t3,t0,t3
    80000302:	19c5332f          	sc.d	t1,t3,(a0)
    80000306:	fe0312e3          	bnez	t1,800002ea <amo_maxud>
    8000030a:	8516                	mv	a0,t0
    8000030c:	00008067          	ret

0000000080000310 <amo_maxuw>:
    80000310:	100522af          	lr.w	t0,(a0)
    80000314:	00b2b333          	sltu	t1,t0,a1
    80000318:	4060033b          	negw	t1,t1
    8000031c:	00b2c3b3          	xor	t2,t0,a1
    80000320:	00737e33          	and	t3,t1,t2
    80000324:	01c2ce33          	xor	t3,t0,t3
    80000328:	19c5232f          	sc.w	t1,t3,(a0)
    8000032c:	fe0312e3          	bnez	t1,80000310 <amo_maxuw>
    80000330:	8516                	mv	a0,t0
    80000332:	00008067          	ret

0000000080000336 <amo_mind>:
    80000336:	100532af          	lr.d	t0,(a0)
    8000033a:	00b2a333          	slt	t1,t0,a1
    8000033e:	40600333          	neg	t1,t1
    80000342:	00b2c3b3          	xor	t2,t0,a1
    80000346:	00737e33          	and	t3,t1,t2
    8000034a:	01c5ce33          	xor	t3,a1,t3
    8000034e:	19c5332f          	sc.d	t1,t3,(a0)
    80000352:	fe0312e3          	bnez	t1,80000336 <amo_mind>
    80000356:	8516                	mv	a0,t0
    80000358:	00008067          	ret

000000008000035c <amo_minw>:
    8000035c:	100522af          	lr.w	t0,(a0)
    80000360:	00b2a333          	slt	t1,t0,a1
    80000364:	4060033b          	negw	t1,t1
    80000368:	00b2c3b3          	xor	t2,t0,a1
    8000036c:	00737e33          	and	t3,t1,t2
    80000370:	01c5ce33          	xor	t3,a1,t3
    80000374:	19c5232f          	sc.w	t1,t3,(a0)
    80000378:	fe0312e3          	bnez	t1,8000035c <amo_minw>
    8000037c:	8516                	mv	a0,t0
    8000037e:	00008067          	ret

0000000080000382 <amo_minud>:
    80000382:	100532af          	lr.d	t0,(a0)
    80000386:	00b2b333          	sltu	t1,t0,a1
    8000038a:	40600333          	neg	t1,t1
    8000038e:	00b2c3b3          	xor	t2,t0,a1
    80000392:	00737e33          	and	t3,t1,t2
    80000396:	01c5ce33          	xor	t3,a1,t3
    8000039a:	19c5332f          	sc.d	t1,t3,(a0)
    8000039e:	fe0312e3          	bnez	t1,80000382 <amo_minud>
    800003a2:	8516                	mv	a0,t0
    800003a4:	00008067          	ret

00000000800003a8 <amo_minuw>:
    800003a8:	100522af          	lr.w	t0,(a0)
    800003ac:	00b2b333          	sltu	t1,t0,a1
    800003b0:	4060033b          	negw	t1,t1
    800003b4:	00b2c3b3          	xor	t2,t0,a1
    800003b8:	00737e33          	and	t3,t1,t2
    800003bc:	01c5ce33          	xor	t3,a1,t3
    800003c0:	19c5232f          	sc.w	t1,t3,(a0)
    800003c4:	fe0312e3          	bnez	t1,800003a8 <amo_minuw>
    800003c8:	8516                	mv	a0,t0
    800003ca:	00008067          	ret

00000000800003ce <register_trap_handler>:
    800003ce:	7179                	add	sp,sp,-48
    800003d0:	f422                	sd	s0,40(sp)
    800003d2:	1800                	add	s0,sp,48
    800003d4:	fca43c23          	sd	a0,-40(s0)
    800003d8:	fcb43823          	sd	a1,-48(s0)
    800003dc:	fd043783          	ld	a5,-48(s0)
    800003e0:	fef42623          	sw	a5,-20(s0)
    800003e4:	fd043783          	ld	a5,-48(s0)
    800003e8:	fff7c793          	not	a5,a5
    800003ec:	93fd                	srl	a5,a5,0x3f
    800003ee:	0ff7f793          	zext.b	a5,a5
    800003f2:	fef42423          	sw	a5,-24(s0)
    800003f6:	fe842783          	lw	a5,-24(s0)
    800003fa:	2781                	sext.w	a5,a5
    800003fc:	c79d                	beqz	a5,8000042a <register_trap_handler+0x5c>
    800003fe:	fec42783          	lw	a5,-20(s0)
    80000402:	0007871b          	sext.w	a4,a5
    80000406:	47bd                	li	a5,15
    80000408:	00e7ef63          	bltu	a5,a4,80000426 <register_trap_handler+0x58>
    8000040c:	00007717          	auipc	a4,0x7
    80000410:	ce470713          	add	a4,a4,-796 # 800070f0 <exception_handler>
    80000414:	fec46783          	lwu	a5,-20(s0)
    80000418:	078e                	sll	a5,a5,0x3
    8000041a:	97ba                	add	a5,a5,a4
    8000041c:	fd843703          	ld	a4,-40(s0)
    80000420:	e398                	sd	a4,0(a5)
    80000422:	4781                	li	a5,0
    80000424:	a805                	j	80000454 <register_trap_handler+0x86>
    80000426:	57fd                	li	a5,-1
    80000428:	a035                	j	80000454 <register_trap_handler+0x86>
    8000042a:	fec42783          	lw	a5,-20(s0)
    8000042e:	0007871b          	sext.w	a4,a5
    80000432:	47ad                	li	a5,11
    80000434:	00e7ef63          	bltu	a5,a4,80000452 <register_trap_handler+0x84>
    80000438:	00007717          	auipc	a4,0x7
    8000043c:	d3870713          	add	a4,a4,-712 # 80007170 <interrupt_handler>
    80000440:	fec46783          	lwu	a5,-20(s0)
    80000444:	078e                	sll	a5,a5,0x3
    80000446:	97ba                	add	a5,a5,a4
    80000448:	fd843703          	ld	a4,-40(s0)
    8000044c:	e398                	sd	a4,0(a5)
    8000044e:	4781                	li	a5,0
    80000450:	a011                	j	80000454 <register_trap_handler+0x86>
    80000452:	57fd                	li	a5,-1
    80000454:	853e                	mv	a0,a5
    80000456:	7422                	ld	s0,40(sp)
    80000458:	6145                	add	sp,sp,48
    8000045a:	8082                	ret

000000008000045c <bp_trap_handler>:
    8000045c:	7139                	add	sp,sp,-64
    8000045e:	fc06                	sd	ra,56(sp)
    80000460:	f822                	sd	s0,48(sp)
    80000462:	0080                	add	s0,sp,64
    80000464:	fca43c23          	sd	a0,-40(s0)
    80000468:	fcb43823          	sd	a1,-48(s0)
    8000046c:	fcc43423          	sd	a2,-56(s0)
    80000470:	fd043783          	ld	a5,-48(s0)
    80000474:	93fd                	srl	a5,a5,0x3f
    80000476:	0ff7f793          	zext.b	a5,a5
    8000047a:	fef42623          	sw	a5,-20(s0)
    8000047e:	fd043783          	ld	a5,-48(s0)
    80000482:	fef42423          	sw	a5,-24(s0)
    80000486:	fec42783          	lw	a5,-20(s0)
    8000048a:	2781                	sext.w	a5,a5
    8000048c:	c7b9                	beqz	a5,800004da <bp_trap_handler+0x7e>
    8000048e:	fe842783          	lw	a5,-24(s0)
    80000492:	2781                	sext.w	a5,a5
    80000494:	0207ca63          	bltz	a5,800004c8 <bp_trap_handler+0x6c>
    80000498:	fe842783          	lw	a5,-24(s0)
    8000049c:	0007871b          	sext.w	a4,a5
    800004a0:	47ad                	li	a5,11
    800004a2:	02e7c363          	blt	a5,a4,800004c8 <bp_trap_handler+0x6c>
    800004a6:	00007717          	auipc	a4,0x7
    800004aa:	cca70713          	add	a4,a4,-822 # 80007170 <interrupt_handler>
    800004ae:	fe842783          	lw	a5,-24(s0)
    800004b2:	078e                	sll	a5,a5,0x3
    800004b4:	97ba                	add	a5,a5,a4
    800004b6:	639c                	ld	a5,0(a5)
    800004b8:	fc843603          	ld	a2,-56(s0)
    800004bc:	fd043583          	ld	a1,-48(s0)
    800004c0:	fd843503          	ld	a0,-40(s0)
    800004c4:	9782                	jalr	a5
    800004c6:	a085                	j	80000526 <bp_trap_handler+0xca>
    800004c8:	fc843603          	ld	a2,-56(s0)
    800004cc:	fd043583          	ld	a1,-48(s0)
    800004d0:	fd843503          	ld	a0,-40(s0)
    800004d4:	4f8000ef          	jal	800009cc <bp_unhandled_trap_abort>
    800004d8:	a0b9                	j	80000526 <bp_trap_handler+0xca>
    800004da:	fe842783          	lw	a5,-24(s0)
    800004de:	2781                	sext.w	a5,a5
    800004e0:	0207ca63          	bltz	a5,80000514 <bp_trap_handler+0xb8>
    800004e4:	fe842783          	lw	a5,-24(s0)
    800004e8:	0007871b          	sext.w	a4,a5
    800004ec:	47bd                	li	a5,15
    800004ee:	02e7c363          	blt	a5,a4,80000514 <bp_trap_handler+0xb8>
    800004f2:	00007717          	auipc	a4,0x7
    800004f6:	bfe70713          	add	a4,a4,-1026 # 800070f0 <exception_handler>
    800004fa:	fe842783          	lw	a5,-24(s0)
    800004fe:	078e                	sll	a5,a5,0x3
    80000500:	97ba                	add	a5,a5,a4
    80000502:	639c                	ld	a5,0(a5)
    80000504:	fc843603          	ld	a2,-56(s0)
    80000508:	fd043583          	ld	a1,-48(s0)
    8000050c:	fd843503          	ld	a0,-40(s0)
    80000510:	9782                	jalr	a5
    80000512:	a811                	j	80000526 <bp_trap_handler+0xca>
    80000514:	fc843603          	ld	a2,-56(s0)
    80000518:	fd043583          	ld	a1,-48(s0)
    8000051c:	fd843503          	ld	a0,-40(s0)
    80000520:	4ac000ef          	jal	800009cc <bp_unhandled_trap_abort>
    80000524:	a009                	j	80000526 <bp_trap_handler+0xca>
    80000526:	0001                	nop
    80000528:	70e2                	ld	ra,56(sp)
    8000052a:	7442                	ld	s0,48(sp)
    8000052c:	6121                	add	sp,sp,64
    8000052e:	8082                	ret

0000000080000530 <dramfs_fs_init>:
    80000530:	1141                	add	sp,sp,-16
    80000532:	e422                	sd	s0,8(sp)
    80000534:	0800                	add	s0,sp,16
    80000536:	4781                	li	a5,0
    80000538:	853e                	mv	a0,a5
    8000053a:	6422                	ld	s0,8(sp)
    8000053c:	0141                	add	sp,sp,16
    8000053e:	8082                	ret

0000000080000540 <bp_get_hart>:
    80000540:	1101                	add	sp,sp,-32
    80000542:	ec22                	sd	s0,24(sp)
    80000544:	1000                	add	s0,sp,32
    80000546:	f14027f3          	csrr	a5,mhartid
    8000054a:	fef43423          	sd	a5,-24(s0)
    8000054e:	fe843783          	ld	a5,-24(s0)
    80000552:	853e                	mv	a0,a5
    80000554:	6462                	ld	s0,24(sp)
    80000556:	6105                	add	sp,sp,32
    80000558:	8082                	ret

000000008000055a <bp_barrier_end>:
    8000055a:	7179                	add	sp,sp,-48
    8000055c:	f406                	sd	ra,40(sp)
    8000055e:	f022                	sd	s0,32(sp)
    80000560:	1800                	add	s0,sp,48
    80000562:	fca43c23          	sd	a0,-40(s0)
    80000566:	fcb43823          	sd	a1,-48(s0)
    8000056a:	4785                	li	a5,1
    8000056c:	fef43423          	sd	a5,-24(s0)
    80000570:	fd843783          	ld	a5,-40(s0)
    80000574:	fe843703          	ld	a4,-24(s0)
    80000578:	00e7b7af          	amoadd.d	a5,a4,(a5)
    8000057c:	fef43023          	sd	a5,-32(s0)
    80000580:	0001                	nop
    80000582:	fd843783          	ld	a5,-40(s0)
    80000586:	639c                	ld	a5,0(a5)
    80000588:	fd043703          	ld	a4,-48(s0)
    8000058c:	fee7ebe3          	bltu	a5,a4,80000582 <bp_barrier_end+0x28>
    80000590:	4501                	li	a0,0
    80000592:	00e000ef          	jal	800005a0 <bp_finish>
    80000596:	0001                	nop
    80000598:	70a2                	ld	ra,40(sp)
    8000059a:	7402                	ld	s0,32(sp)
    8000059c:	6145                	add	sp,sp,48
    8000059e:	8082                	ret

00000000800005a0 <bp_finish>:
    800005a0:	7179                	add	sp,sp,-48
    800005a2:	f406                	sd	ra,40(sp)
    800005a4:	f022                	sd	s0,32(sp)
    800005a6:	1800                	add	s0,sp,48
    800005a8:	87aa                	mv	a5,a0
    800005aa:	fcf40fa3          	sb	a5,-33(s0)
    800005ae:	f93ff0ef          	jal	80000540 <bp_get_hart>
    800005b2:	fea43423          	sd	a0,-24(s0)
    800005b6:	fe843783          	ld	a5,-24(s0)
    800005ba:	00379713          	sll	a4,a5,0x3
    800005be:	001027b7          	lui	a5,0x102
    800005c2:	97ba                	add	a5,a5,a4
    800005c4:	fdf44703          	lbu	a4,-33(s0)
    800005c8:	00e78023          	sb	a4,0(a5) # 102000 <_start-0x7fefe000>
    800005cc:	0ff0000f          	fence
    800005d0:	a001                	j	800005d0 <bp_finish+0x30>

00000000800005d2 <bp_hprint>:
    800005d2:	1101                	add	sp,sp,-32
    800005d4:	ec06                	sd	ra,24(sp)
    800005d6:	e822                	sd	s0,16(sp)
    800005d8:	1000                	add	s0,sp,32
    800005da:	87aa                	mv	a5,a0
    800005dc:	fef407a3          	sb	a5,-17(s0)
    800005e0:	fef44783          	lbu	a5,-17(s0)
    800005e4:	0ff7f713          	zext.b	a4,a5
    800005e8:	47a5                	li	a5,9
    800005ea:	00e7ec63          	bltu	a5,a4,80000602 <bp_hprint+0x30>
    800005ee:	fef44783          	lbu	a5,-17(s0)
    800005f2:	0307879b          	addw	a5,a5,48
    800005f6:	0ff7f793          	zext.b	a5,a5
    800005fa:	853e                	mv	a0,a5
    800005fc:	030000ef          	jal	8000062c <bp_cprint>
    80000600:	a00d                	j	80000622 <bp_hprint+0x50>
    80000602:	fef44783          	lbu	a5,-17(s0)
    80000606:	0ff7f713          	zext.b	a4,a5
    8000060a:	47bd                	li	a5,15
    8000060c:	00e7eb63          	bltu	a5,a4,80000622 <bp_hprint+0x50>
    80000610:	fef44783          	lbu	a5,-17(s0)
    80000614:	0577879b          	addw	a5,a5,87
    80000618:	0ff7f793          	zext.b	a5,a5
    8000061c:	853e                	mv	a0,a5
    8000061e:	00e000ef          	jal	8000062c <bp_cprint>
    80000622:	0001                	nop
    80000624:	60e2                	ld	ra,24(sp)
    80000626:	6442                	ld	s0,16(sp)
    80000628:	6105                	add	sp,sp,32
    8000062a:	8082                	ret

000000008000062c <bp_cprint>:
    8000062c:	1101                	add	sp,sp,-32
    8000062e:	ec22                	sd	s0,24(sp)
    80000630:	1000                	add	s0,sp,32
    80000632:	87aa                	mv	a5,a0
    80000634:	fef407a3          	sb	a5,-17(s0)
    80000638:	001017b7          	lui	a5,0x101
    8000063c:	fef44703          	lbu	a4,-17(s0)
    80000640:	00e78023          	sb	a4,0(a5) # 101000 <_start-0x7feff000>
    80000644:	0001                	nop
    80000646:	6462                	ld	s0,24(sp)
    80000648:	6105                	add	sp,sp,32
    8000064a:	8082                	ret

000000008000064c <bp_hprint_uint64>:
    8000064c:	7179                	add	sp,sp,-48
    8000064e:	f406                	sd	ra,40(sp)
    80000650:	f022                	sd	s0,32(sp)
    80000652:	1800                	add	s0,sp,48
    80000654:	fca43c23          	sd	a0,-40(s0)
    80000658:	03000513          	li	a0,48
    8000065c:	fd1ff0ef          	jal	8000062c <bp_cprint>
    80000660:	07800513          	li	a0,120
    80000664:	fc9ff0ef          	jal	8000062c <bp_cprint>
    80000668:	fe042623          	sw	zero,-20(s0)
    8000066c:	a02d                	j	80000696 <bp_hprint_uint64+0x4a>
    8000066e:	fd843783          	ld	a5,-40(s0)
    80000672:	93f1                	srl	a5,a5,0x3c
    80000674:	fef405a3          	sb	a5,-21(s0)
    80000678:	feb44783          	lbu	a5,-21(s0)
    8000067c:	853e                	mv	a0,a5
    8000067e:	f55ff0ef          	jal	800005d2 <bp_hprint>
    80000682:	fd843783          	ld	a5,-40(s0)
    80000686:	0792                	sll	a5,a5,0x4
    80000688:	fcf43c23          	sd	a5,-40(s0)
    8000068c:	fec42783          	lw	a5,-20(s0)
    80000690:	2785                	addw	a5,a5,1
    80000692:	fef42623          	sw	a5,-20(s0)
    80000696:	fec42783          	lw	a5,-20(s0)
    8000069a:	0007871b          	sext.w	a4,a5
    8000069e:	47bd                	li	a5,15
    800006a0:	fce7d7e3          	bge	a5,a4,8000066e <bp_hprint_uint64+0x22>
    800006a4:	0001                	nop
    800006a6:	0001                	nop
    800006a8:	70a2                	ld	ra,40(sp)
    800006aa:	7402                	ld	s0,32(sp)
    800006ac:	6145                	add	sp,sp,48
    800006ae:	8082                	ret

00000000800006b0 <bp_print_string>:
    800006b0:	1101                	add	sp,sp,-32
    800006b2:	ec06                	sd	ra,24(sp)
    800006b4:	e822                	sd	s0,16(sp)
    800006b6:	1000                	add	s0,sp,32
    800006b8:	fea43423          	sd	a0,-24(s0)
    800006bc:	a829                	j	800006d6 <bp_print_string+0x26>
    800006be:	fe843783          	ld	a5,-24(s0)
    800006c2:	0007c783          	lbu	a5,0(a5)
    800006c6:	853e                	mv	a0,a5
    800006c8:	f65ff0ef          	jal	8000062c <bp_cprint>
    800006cc:	fe843783          	ld	a5,-24(s0)
    800006d0:	0785                	add	a5,a5,1
    800006d2:	fef43423          	sd	a5,-24(s0)
    800006d6:	fe843783          	ld	a5,-24(s0)
    800006da:	0007c783          	lbu	a5,0(a5)
    800006de:	f3e5                	bnez	a5,800006be <bp_print_string+0xe>
    800006e0:	0001                	nop
    800006e2:	0001                	nop
    800006e4:	60e2                	ld	ra,24(sp)
    800006e6:	6442                	ld	s0,16(sp)
    800006e8:	6105                	add	sp,sp,32
    800006ea:	8082                	ret

00000000800006ec <bp_cget>:
    800006ec:	1101                	add	sp,sp,-32
    800006ee:	ec22                	sd	s0,24(sp)
    800006f0:	1000                	add	s0,sp,32
    800006f2:	001007b7          	lui	a5,0x100
    800006f6:	0007c783          	lbu	a5,0(a5) # 100000 <_start-0x7ff00000>
    800006fa:	fef407a3          	sb	a5,-17(s0)
    800006fe:	fef44783          	lbu	a5,-17(s0)
    80000702:	0ff7f713          	zext.b	a4,a5
    80000706:	0ff00793          	li	a5,255
    8000070a:	00f71463          	bne	a4,a5,80000712 <bp_cget+0x26>
    8000070e:	57fd                	li	a5,-1
    80000710:	a829                	j	8000072a <bp_cget+0x3e>
    80000712:	fef44783          	lbu	a5,-17(s0)
    80000716:	0ff7f713          	zext.b	a4,a5
    8000071a:	47b5                	li	a5,13
    8000071c:	00f71463          	bne	a4,a5,80000724 <bp_cget+0x38>
    80000720:	47a9                	li	a5,10
    80000722:	a021                	j	8000072a <bp_cget+0x3e>
    80000724:	fef44783          	lbu	a5,-17(s0)
    80000728:	2781                	sext.w	a5,a5
    8000072a:	853e                	mv	a0,a5
    8000072c:	6462                	ld	s0,24(sp)
    8000072e:	6105                	add	sp,sp,32
    80000730:	8082                	ret

0000000080000732 <bp_panic>:
    80000732:	1101                	add	sp,sp,-32
    80000734:	ec06                	sd	ra,24(sp)
    80000736:	e822                	sd	s0,16(sp)
    80000738:	1000                	add	s0,sp,32
    8000073a:	fea43423          	sd	a0,-24(s0)
    8000073e:	fe843783          	ld	a5,-24(s0)
    80000742:	c789                	beqz	a5,8000074c <bp_panic+0x1a>
    80000744:	fe843503          	ld	a0,-24(s0)
    80000748:	f69ff0ef          	jal	800006b0 <bp_print_string>
    8000074c:	4505                	li	a0,1
    8000074e:	e53ff0ef          	jal	800005a0 <bp_finish>
    80000752:	a001                	j	80000752 <bp_panic+0x20>

0000000080000754 <bp_param_get>:
    80000754:	1101                	add	sp,sp,-32
    80000756:	ec22                	sd	s0,24(sp)
    80000758:	1000                	add	s0,sp,32
    8000075a:	fea43423          	sd	a0,-24(s0)
    8000075e:	fe843783          	ld	a5,-24(s0)
    80000762:	439c                	lw	a5,0(a5)
    80000764:	2781                	sext.w	a5,a5
    80000766:	853e                	mv	a0,a5
    80000768:	6462                	ld	s0,24(sp)
    8000076a:	6105                	add	sp,sp,32
    8000076c:	8082                	ret

000000008000076e <dramfs_init>:
    8000076e:	1141                	add	sp,sp,-16
    80000770:	e406                	sd	ra,8(sp)
    80000772:	e022                	sd	s0,0(sp)
    80000774:	0800                	add	s0,sp,16
    80000776:	00007317          	auipc	t1,0x7
    8000077a:	6c233303          	ld	t1,1730(t1) # 80007e38 <_GLOBAL_OFFSET_TABLE_+0x8>
    8000077e:	9302                	jalr	t1
    80000780:	87aa                	mv	a5,a0
    80000782:	0007d563          	bgez	a5,8000078c <dramfs_init+0x1e>
    80000786:	557d                	li	a0,-1
    80000788:	602030ef          	jal	80003d8a <exit>
    8000078c:	0001                	nop
    8000078e:	60a2                	ld	ra,8(sp)
    80000790:	6402                	ld	s0,0(sp)
    80000792:	0141                	add	sp,sp,16
    80000794:	8082                	ret

0000000080000796 <dramfs_exit>:
    80000796:	1101                	add	sp,sp,-32
    80000798:	ec06                	sd	ra,24(sp)
    8000079a:	e822                	sd	s0,16(sp)
    8000079c:	1000                	add	s0,sp,32
    8000079e:	87aa                	mv	a5,a0
    800007a0:	fef42623          	sw	a5,-20(s0)
    800007a4:	fec42783          	lw	a5,-20(s0)
    800007a8:	0ff7f793          	zext.b	a5,a5
    800007ac:	853e                	mv	a0,a5
    800007ae:	df3ff0ef          	jal	800005a0 <bp_finish>
    800007b2:	0001                	nop
    800007b4:	60e2                	ld	ra,24(sp)
    800007b6:	6442                	ld	s0,16(sp)
    800007b8:	6105                	add	sp,sp,32
    800007ba:	8082                	ret

00000000800007bc <dramfs_sendchar>:
    800007bc:	1101                	add	sp,sp,-32
    800007be:	ec06                	sd	ra,24(sp)
    800007c0:	e822                	sd	s0,16(sp)
    800007c2:	1000                	add	s0,sp,32
    800007c4:	87aa                	mv	a5,a0
    800007c6:	fef407a3          	sb	a5,-17(s0)
    800007ca:	fef44783          	lbu	a5,-17(s0)
    800007ce:	853e                	mv	a0,a5
    800007d0:	e5dff0ef          	jal	8000062c <bp_cprint>
    800007d4:	0001                	nop
    800007d6:	60e2                	ld	ra,24(sp)
    800007d8:	6442                	ld	s0,16(sp)
    800007da:	6105                	add	sp,sp,32
    800007dc:	8082                	ret

00000000800007de <dramfs_getchar>:
    800007de:	1141                	add	sp,sp,-16
    800007e0:	e406                	sd	ra,8(sp)
    800007e2:	e022                	sd	s0,0(sp)
    800007e4:	0800                	add	s0,sp,16
    800007e6:	f07ff0ef          	jal	800006ec <bp_cget>
    800007ea:	87aa                	mv	a5,a0
    800007ec:	853e                	mv	a0,a5
    800007ee:	60a2                	ld	ra,8(sp)
    800007f0:	6402                	ld	s0,0(sp)
    800007f2:	0141                	add	sp,sp,16
    800007f4:	8082                	ret

00000000800007f6 <bp_dump_trap_context>:
    800007f6:	7179                	add	sp,sp,-48
    800007f8:	f406                	sd	ra,40(sp)
    800007fa:	f022                	sd	s0,32(sp)
    800007fc:	1800                	add	s0,sp,48
    800007fe:	fca43c23          	sd	a0,-40(s0)
    80000802:	fcb43823          	sd	a1,-48(s0)
    80000806:	341027f3          	csrr	a5,mepc
    8000080a:	fef43423          	sd	a5,-24(s0)
    8000080e:	00004517          	auipc	a0,0x4
    80000812:	77a50513          	add	a0,a0,1914 # 80004f88 <_open+0x94>
    80000816:	e9bff0ef          	jal	800006b0 <bp_print_string>
    8000081a:	fd843503          	ld	a0,-40(s0)
    8000081e:	e2fff0ef          	jal	8000064c <bp_hprint_uint64>
    80000822:	00004517          	auipc	a0,0x4
    80000826:	77650513          	add	a0,a0,1910 # 80004f98 <_open+0xa4>
    8000082a:	e87ff0ef          	jal	800006b0 <bp_print_string>
    8000082e:	fd043503          	ld	a0,-48(s0)
    80000832:	e1bff0ef          	jal	8000064c <bp_hprint_uint64>
    80000836:	00004517          	auipc	a0,0x4
    8000083a:	77250513          	add	a0,a0,1906 # 80004fa8 <_open+0xb4>
    8000083e:	e73ff0ef          	jal	800006b0 <bp_print_string>
    80000842:	fe843503          	ld	a0,-24(s0)
    80000846:	e07ff0ef          	jal	8000064c <bp_hprint_uint64>
    8000084a:	0001                	nop
    8000084c:	70a2                	ld	ra,40(sp)
    8000084e:	7402                	ld	s0,32(sp)
    80000850:	6145                	add	sp,sp,48
    80000852:	8082                	ret

0000000080000854 <bp_emulate_illegal_instruction>:
    80000854:	711d                	add	sp,sp,-96
    80000856:	ec86                	sd	ra,88(sp)
    80000858:	e8a2                	sd	s0,80(sp)
    8000085a:	e4a6                	sd	s1,72(sp)
    8000085c:	1080                	add	s0,sp,96
    8000085e:	faa43c23          	sd	a0,-72(s0)
    80000862:	fab43823          	sd	a1,-80(s0)
    80000866:	fac43423          	sd	a2,-88(s0)
    8000086a:	fa843783          	ld	a5,-88(s0)
    8000086e:	83d1                	srl	a5,a5,0x14
    80000870:	17c2                	sll	a5,a5,0x30
    80000872:	93c1                	srl	a5,a5,0x30
    80000874:	7ff7f793          	and	a5,a5,2047
    80000878:	fcf41f23          	sh	a5,-34(s0)
    8000087c:	fa843783          	ld	a5,-88(s0)
    80000880:	83ed                	srl	a5,a5,0x1b
    80000882:	0ff7f793          	zext.b	a5,a5
    80000886:	8bfd                	and	a5,a5,31
    80000888:	fcf40ea3          	sb	a5,-35(s0)
    8000088c:	fa843783          	ld	a5,-88(s0)
    80000890:	83d1                	srl	a5,a5,0x14
    80000892:	0ff7f793          	zext.b	a5,a5
    80000896:	8bfd                	and	a5,a5,31
    80000898:	fcf40e23          	sb	a5,-36(s0)
    8000089c:	fa843783          	ld	a5,-88(s0)
    800008a0:	83bd                	srl	a5,a5,0xf
    800008a2:	0ff7f793          	zext.b	a5,a5
    800008a6:	8bfd                	and	a5,a5,31
    800008a8:	fcf40da3          	sb	a5,-37(s0)
    800008ac:	fa843783          	ld	a5,-88(s0)
    800008b0:	83b1                	srl	a5,a5,0xc
    800008b2:	0ff7f793          	zext.b	a5,a5
    800008b6:	8b9d                	and	a5,a5,7
    800008b8:	fcf40d23          	sb	a5,-38(s0)
    800008bc:	fa843783          	ld	a5,-88(s0)
    800008c0:	839d                	srl	a5,a5,0x7
    800008c2:	0ff7f793          	zext.b	a5,a5
    800008c6:	8bfd                	and	a5,a5,31
    800008c8:	fcf40ca3          	sb	a5,-39(s0)
    800008cc:	fa843783          	ld	a5,-88(s0)
    800008d0:	0ff7f793          	zext.b	a5,a5
    800008d4:	07f7f793          	and	a5,a5,127
    800008d8:	fcf40c23          	sb	a5,-40(s0)
    800008dc:	fdb44783          	lbu	a5,-37(s0)
    800008e0:	078e                	sll	a5,a5,0x3
    800008e2:	fb843703          	ld	a4,-72(s0)
    800008e6:	97ba                	add	a5,a5,a4
    800008e8:	639c                	ld	a5,0(a5)
    800008ea:	fcf43823          	sd	a5,-48(s0)
    800008ee:	fdc44783          	lbu	a5,-36(s0)
    800008f2:	078e                	sll	a5,a5,0x3
    800008f4:	fb843703          	ld	a4,-72(s0)
    800008f8:	97ba                	add	a5,a5,a4
    800008fa:	639c                	ld	a5,0(a5)
    800008fc:	fcf43423          	sd	a5,-56(s0)
    80000900:	fd844783          	lbu	a5,-40(s0)
    80000904:	0ff7f713          	zext.b	a4,a5
    80000908:	02f00793          	li	a5,47
    8000090c:	04f71063          	bne	a4,a5,8000094c <bp_emulate_illegal_instruction+0xf8>
    80000910:	fda44783          	lbu	a5,-38(s0)
    80000914:	2781                	sext.w	a5,a5
    80000916:	00007717          	auipc	a4,0x7
    8000091a:	afa70713          	add	a4,a4,-1286 # 80007410 <amo_jt>
    8000091e:	078e                	sll	a5,a5,0x3
    80000920:	97ba                	add	a5,a5,a4
    80000922:	6398                	ld	a4,0(a5)
    80000924:	fdd44783          	lbu	a5,-35(s0)
    80000928:	078e                	sll	a5,a5,0x3
    8000092a:	97ba                	add	a5,a5,a4
    8000092c:	639c                	ld	a5,0(a5)
    8000092e:	fd944703          	lbu	a4,-39(s0)
    80000932:	070e                	sll	a4,a4,0x3
    80000934:	fb843683          	ld	a3,-72(s0)
    80000938:	00e684b3          	add	s1,a3,a4
    8000093c:	fc843583          	ld	a1,-56(s0)
    80000940:	fd043503          	ld	a0,-48(s0)
    80000944:	9782                	jalr	a5
    80000946:	87aa                	mv	a5,a0
    80000948:	e09c                	sd	a5,0(s1)
    8000094a:	a8b1                	j	800009a6 <bp_emulate_illegal_instruction+0x152>
    8000094c:	fd844783          	lbu	a5,-40(s0)
    80000950:	0ff7f713          	zext.b	a4,a5
    80000954:	03300793          	li	a5,51
    80000958:	02f71b63          	bne	a4,a5,8000098e <bp_emulate_illegal_instruction+0x13a>
    8000095c:	fda44783          	lbu	a5,-38(s0)
    80000960:	2781                	sext.w	a5,a5
    80000962:	00007717          	auipc	a4,0x7
    80000966:	a6e70713          	add	a4,a4,-1426 # 800073d0 <mul_jt>
    8000096a:	078e                	sll	a5,a5,0x3
    8000096c:	97ba                	add	a5,a5,a4
    8000096e:	639c                	ld	a5,0(a5)
    80000970:	fd944703          	lbu	a4,-39(s0)
    80000974:	070e                	sll	a4,a4,0x3
    80000976:	fb843683          	ld	a3,-72(s0)
    8000097a:	00e684b3          	add	s1,a3,a4
    8000097e:	fc843583          	ld	a1,-56(s0)
    80000982:	fd043503          	ld	a0,-48(s0)
    80000986:	9782                	jalr	a5
    80000988:	87aa                	mv	a5,a0
    8000098a:	e09c                	sd	a5,0(s1)
    8000098c:	a829                	j	800009a6 <bp_emulate_illegal_instruction+0x152>
    8000098e:	fa843583          	ld	a1,-88(s0)
    80000992:	fb043503          	ld	a0,-80(s0)
    80000996:	e61ff0ef          	jal	800007f6 <bp_dump_trap_context>
    8000099a:	00004517          	auipc	a0,0x4
    8000099e:	61e50513          	add	a0,a0,1566 # 80004fb8 <_open+0xc4>
    800009a2:	d91ff0ef          	jal	80000732 <bp_panic>
    800009a6:	341027f3          	csrr	a5,mepc
    800009aa:	fcf43023          	sd	a5,-64(s0)
    800009ae:	fc043783          	ld	a5,-64(s0)
    800009b2:	0791                	add	a5,a5,4
    800009b4:	fcf43023          	sd	a5,-64(s0)
    800009b8:	fc043783          	ld	a5,-64(s0)
    800009bc:	34179073          	csrw	mepc,a5
    800009c0:	0001                	nop
    800009c2:	60e6                	ld	ra,88(sp)
    800009c4:	6446                	ld	s0,80(sp)
    800009c6:	64a6                	ld	s1,72(sp)
    800009c8:	6125                	add	sp,sp,96
    800009ca:	8082                	ret

00000000800009cc <bp_unhandled_trap_abort>:
    800009cc:	7179                	add	sp,sp,-48
    800009ce:	f406                	sd	ra,40(sp)
    800009d0:	f022                	sd	s0,32(sp)
    800009d2:	1800                	add	s0,sp,48
    800009d4:	fea43423          	sd	a0,-24(s0)
    800009d8:	feb43023          	sd	a1,-32(s0)
    800009dc:	fcc43c23          	sd	a2,-40(s0)
    800009e0:	fd843583          	ld	a1,-40(s0)
    800009e4:	fe043503          	ld	a0,-32(s0)
    800009e8:	e0fff0ef          	jal	800007f6 <bp_dump_trap_context>
    800009ec:	00004517          	auipc	a0,0x4
    800009f0:	5e450513          	add	a0,a0,1508 # 80004fd0 <_open+0xdc>
    800009f4:	d3fff0ef          	jal	80000732 <bp_panic>
    800009f8:	0001                	nop
    800009fa:	70a2                	ld	ra,40(sp)
    800009fc:	7402                	ld	s0,32(sp)
    800009fe:	6145                	add	sp,sp,48
    80000a00:	8082                	ret

0000000080000a02 <__mtvec_handler>:
    80000a02:	34011173          	csrrw	sp,mscratch,sp
    80000a06:	e07e                	sd	t6,0(sp)
    80000a08:	ffe13c23          	sd	t5,-8(sp)
    80000a0c:	ffd13823          	sd	t4,-16(sp)
    80000a10:	ffc13423          	sd	t3,-24(sp)
    80000a14:	ffb13023          	sd	s11,-32(sp)
    80000a18:	fda13c23          	sd	s10,-40(sp)
    80000a1c:	fd913823          	sd	s9,-48(sp)
    80000a20:	fd813423          	sd	s8,-56(sp)
    80000a24:	fd713023          	sd	s7,-64(sp)
    80000a28:	fb613c23          	sd	s6,-72(sp)
    80000a2c:	fb513823          	sd	s5,-80(sp)
    80000a30:	fb413423          	sd	s4,-88(sp)
    80000a34:	fb313023          	sd	s3,-96(sp)
    80000a38:	f9213c23          	sd	s2,-104(sp)
    80000a3c:	f9113823          	sd	a7,-112(sp)
    80000a40:	f9013423          	sd	a6,-120(sp)
    80000a44:	f8f13023          	sd	a5,-128(sp)
    80000a48:	f6e13c23          	sd	a4,-136(sp)
    80000a4c:	f6d13823          	sd	a3,-144(sp)
    80000a50:	f6c13423          	sd	a2,-152(sp)
    80000a54:	f6b13023          	sd	a1,-160(sp)
    80000a58:	f4a13c23          	sd	a0,-168(sp)
    80000a5c:	f4913823          	sd	s1,-176(sp)
    80000a60:	f4813423          	sd	s0,-184(sp)
    80000a64:	f4713023          	sd	t2,-192(sp)
    80000a68:	f2613c23          	sd	t1,-200(sp)
    80000a6c:	f2513823          	sd	t0,-208(sp)
    80000a70:	f2413423          	sd	tp,-216(sp)
    80000a74:	f2313023          	sd	gp,-224(sp)
    80000a78:	340022f3          	csrr	t0,mscratch
    80000a7c:	f0513c23          	sd	t0,-232(sp)
    80000a80:	f0113823          	sd	ra,-240(sp)
    80000a84:	f0013423          	sd	zero,-248(sp)
    80000a88:	7111                	add	sp,sp,-256
    80000a8a:	0028                	add	a0,sp,8
    80000a8c:	342025f3          	csrr	a1,mcause
    80000a90:	34302673          	csrr	a2,mtval
    80000a94:	9c9ff0ef          	jal	8000045c <bp_trap_handler>
    80000a98:	6111                	add	sp,sp,256
    80000a9a:	34011073          	csrw	mscratch,sp
    80000a9e:	f0813003          	ld	zero,-248(sp)
    80000aa2:	f1013083          	ld	ra,-240(sp)
    80000aa6:	f2013183          	ld	gp,-224(sp)
    80000aaa:	f2813203          	ld	tp,-216(sp)
    80000aae:	f3013283          	ld	t0,-208(sp)
    80000ab2:	f3813303          	ld	t1,-200(sp)
    80000ab6:	f4013383          	ld	t2,-192(sp)
    80000aba:	f4813403          	ld	s0,-184(sp)
    80000abe:	f5013483          	ld	s1,-176(sp)
    80000ac2:	f5813503          	ld	a0,-168(sp)
    80000ac6:	f6013583          	ld	a1,-160(sp)
    80000aca:	f6813603          	ld	a2,-152(sp)
    80000ace:	f7013683          	ld	a3,-144(sp)
    80000ad2:	f7813703          	ld	a4,-136(sp)
    80000ad6:	f8013783          	ld	a5,-128(sp)
    80000ada:	f8813803          	ld	a6,-120(sp)
    80000ade:	f9013883          	ld	a7,-112(sp)
    80000ae2:	f9813903          	ld	s2,-104(sp)
    80000ae6:	fa013983          	ld	s3,-96(sp)
    80000aea:	fa813a03          	ld	s4,-88(sp)
    80000aee:	fb013a83          	ld	s5,-80(sp)
    80000af2:	fb813b03          	ld	s6,-72(sp)
    80000af6:	fc013b83          	ld	s7,-64(sp)
    80000afa:	fc813c03          	ld	s8,-56(sp)
    80000afe:	fd013c83          	ld	s9,-48(sp)
    80000b02:	fd813d03          	ld	s10,-40(sp)
    80000b06:	fe013d83          	ld	s11,-32(sp)
    80000b0a:	fe813e03          	ld	t3,-24(sp)
    80000b0e:	ff013e83          	ld	t4,-16(sp)
    80000b12:	ff813f03          	ld	t5,-8(sp)
    80000b16:	6f82                	ld	t6,0(sp)
    80000b18:	f1813103          	ld	sp,-232(sp)
    80000b1c:	30200073          	mret

0000000080000b20 <mul_mulh>:
    80000b20:	02051613          	sll	a2,a0,0x20
    80000b24:	9201                	srl	a2,a2,0x20
    80000b26:	02059693          	sll	a3,a1,0x20
    80000b2a:	9281                	srl	a3,a3,0x20
    80000b2c:	02d60733          	mul	a4,a2,a3
    80000b30:	42075793          	sra	a5,a4,0x20
    80000b34:	42055293          	sra	t0,a0,0x20
    80000b38:	02d28733          	mul	a4,t0,a3
    80000b3c:	973e                	add	a4,a4,a5
    80000b3e:	02071793          	sll	a5,a4,0x20
    80000b42:	9381                	srl	a5,a5,0x20
    80000b44:	42075813          	sra	a6,a4,0x20
    80000b48:	4205d313          	sra	t1,a1,0x20
    80000b4c:	02660733          	mul	a4,a2,t1
    80000b50:	973e                	add	a4,a4,a5
    80000b52:	42075793          	sra	a5,a4,0x20
    80000b56:	026282b3          	mul	t0,t0,t1
    80000b5a:	92c2                	add	t0,t0,a6
    80000b5c:	00f28533          	add	a0,t0,a5
    80000b60:	00008067          	ret

0000000080000b64 <mul_mulhsu>:
    80000b64:	02051613          	sll	a2,a0,0x20
    80000b68:	9201                	srl	a2,a2,0x20
    80000b6a:	02059693          	sll	a3,a1,0x20
    80000b6e:	9281                	srl	a3,a3,0x20
    80000b70:	02d60733          	mul	a4,a2,a3
    80000b74:	42075793          	sra	a5,a4,0x20
    80000b78:	42055293          	sra	t0,a0,0x20
    80000b7c:	02d28733          	mul	a4,t0,a3
    80000b80:	973e                	add	a4,a4,a5
    80000b82:	02071793          	sll	a5,a4,0x20
    80000b86:	9381                	srl	a5,a5,0x20
    80000b88:	42075813          	sra	a6,a4,0x20
    80000b8c:	0205d313          	srl	t1,a1,0x20
    80000b90:	02660733          	mul	a4,a2,t1
    80000b94:	973e                	add	a4,a4,a5
    80000b96:	02075793          	srl	a5,a4,0x20
    80000b9a:	026282b3          	mul	t0,t0,t1
    80000b9e:	92c2                	add	t0,t0,a6
    80000ba0:	00f28533          	add	a0,t0,a5
    80000ba4:	00008067          	ret

0000000080000ba8 <mul_mulhu>:
    80000ba8:	02051613          	sll	a2,a0,0x20
    80000bac:	9201                	srl	a2,a2,0x20
    80000bae:	02055293          	srl	t0,a0,0x20
    80000bb2:	02059693          	sll	a3,a1,0x20
    80000bb6:	9281                	srl	a3,a3,0x20
    80000bb8:	0205d313          	srl	t1,a1,0x20
    80000bbc:	02d60733          	mul	a4,a2,a3
    80000bc0:	02075793          	srl	a5,a4,0x20
    80000bc4:	02d28733          	mul	a4,t0,a3
    80000bc8:	973e                	add	a4,a4,a5
    80000bca:	02071793          	sll	a5,a4,0x20
    80000bce:	9381                	srl	a5,a5,0x20
    80000bd0:	02075813          	srl	a6,a4,0x20
    80000bd4:	02660733          	mul	a4,a2,t1
    80000bd8:	973e                	add	a4,a4,a5
    80000bda:	02075793          	srl	a5,a4,0x20
    80000bde:	026282b3          	mul	t0,t0,t1
    80000be2:	92c2                	add	t0,t0,a6
    80000be4:	00f28533          	add	a0,t0,a5
    80000be8:	00008067          	ret

0000000080000bec <memset>:
    80000bec:	433d                	li	t1,15
    80000bee:	872a                	mv	a4,a0
    80000bf0:	02c37163          	bgeu	t1,a2,80000c12 <memset+0x26>
    80000bf4:	00f77793          	and	a5,a4,15
    80000bf8:	e3c1                	bnez	a5,80000c78 <memset+0x8c>
    80000bfa:	e1bd                	bnez	a1,80000c60 <memset+0x74>
    80000bfc:	ff067693          	and	a3,a2,-16
    80000c00:	8a3d                	and	a2,a2,15
    80000c02:	96ba                	add	a3,a3,a4
    80000c04:	e30c                	sd	a1,0(a4)
    80000c06:	e70c                	sd	a1,8(a4)
    80000c08:	0741                	add	a4,a4,16
    80000c0a:	fed76de3          	bltu	a4,a3,80000c04 <memset+0x18>
    80000c0e:	e211                	bnez	a2,80000c12 <memset+0x26>
    80000c10:	8082                	ret
    80000c12:	40c306b3          	sub	a3,t1,a2
    80000c16:	068a                	sll	a3,a3,0x2
    80000c18:	00000297          	auipc	t0,0x0
    80000c1c:	9696                	add	a3,a3,t0
    80000c1e:	00a68067          	jr	10(a3)
    80000c22:	00b70723          	sb	a1,14(a4)
    80000c26:	00b706a3          	sb	a1,13(a4)
    80000c2a:	00b70623          	sb	a1,12(a4)
    80000c2e:	00b705a3          	sb	a1,11(a4)
    80000c32:	00b70523          	sb	a1,10(a4)
    80000c36:	00b704a3          	sb	a1,9(a4)
    80000c3a:	00b70423          	sb	a1,8(a4)
    80000c3e:	00b703a3          	sb	a1,7(a4)
    80000c42:	00b70323          	sb	a1,6(a4)
    80000c46:	00b702a3          	sb	a1,5(a4)
    80000c4a:	00b70223          	sb	a1,4(a4)
    80000c4e:	00b701a3          	sb	a1,3(a4)
    80000c52:	00b70123          	sb	a1,2(a4)
    80000c56:	00b700a3          	sb	a1,1(a4)
    80000c5a:	00b70023          	sb	a1,0(a4)
    80000c5e:	8082                	ret
    80000c60:	0ff5f593          	zext.b	a1,a1
    80000c64:	00859693          	sll	a3,a1,0x8
    80000c68:	8dd5                	or	a1,a1,a3
    80000c6a:	01059693          	sll	a3,a1,0x10
    80000c6e:	8dd5                	or	a1,a1,a3
    80000c70:	02059693          	sll	a3,a1,0x20
    80000c74:	8dd5                	or	a1,a1,a3
    80000c76:	b759                	j	80000bfc <memset+0x10>
    80000c78:	00279693          	sll	a3,a5,0x2
    80000c7c:	00000297          	auipc	t0,0x0
    80000c80:	9696                	add	a3,a3,t0
    80000c82:	8286                	mv	t0,ra
    80000c84:	fa2680e7          	jalr	-94(a3)
    80000c88:	8096                	mv	ra,t0
    80000c8a:	17c1                	add	a5,a5,-16
    80000c8c:	8f1d                	sub	a4,a4,a5
    80000c8e:	963e                	add	a2,a2,a5
    80000c90:	f8c371e3          	bgeu	t1,a2,80000c12 <memset+0x26>
    80000c94:	b79d                	j	80000bfa <memset+0xe>

0000000080000c96 <dramfs_init_fdtable>:
    80000c96:	001ff797          	auipc	a5,0x1ff
    80000c9a:	40a78793          	add	a5,a5,1034 # 802000a0 <dramfs_fdtable>
    80000c9e:	00200717          	auipc	a4,0x200
    80000ca2:	a4270713          	add	a4,a4,-1470 # 802006e0 <dramfs_fs>
    80000ca6:	0007a023          	sw	zero,0(a5)
    80000caa:	0007a223          	sw	zero,4(a5)
    80000cae:	05078793          	add	a5,a5,80
    80000cb2:	fee79ae3          	bne	a5,a4,80000ca6 <dramfs_init_fdtable+0x10>
    80000cb6:	8082                	ret

0000000080000cb8 <dramfs_check_fd>:
    80000cb8:	47cd                	li	a5,19
    80000cba:	00a7ef63          	bltu	a5,a0,80000cd8 <dramfs_check_fd+0x20>
    80000cbe:	00251793          	sll	a5,a0,0x2
    80000cc2:	97aa                	add	a5,a5,a0
    80000cc4:	0792                	sll	a5,a5,0x4
    80000cc6:	001ff717          	auipc	a4,0x1ff
    80000cca:	3da70713          	add	a4,a4,986 # 802000a0 <dramfs_fdtable>
    80000cce:	97ba                	add	a5,a5,a4
    80000cd0:	439c                	lw	a5,0(a5)
    80000cd2:	4501                	li	a0,0
    80000cd4:	c391                	beqz	a5,80000cd8 <dramfs_check_fd+0x20>
    80000cd6:	8082                	ret
    80000cd8:	1141                	add	sp,sp,-16
    80000cda:	e406                	sd	ra,8(sp)
    80000cdc:	647030ef          	jal	80004b22 <__errno>
    80000ce0:	47a5                	li	a5,9
    80000ce2:	c11c                	sw	a5,0(a0)
    80000ce4:	557d                	li	a0,-1
    80000ce6:	60a2                	ld	ra,8(sp)
    80000ce8:	0141                	add	sp,sp,16
    80000cea:	8082                	ret

0000000080000cec <dramfs_nonblock_fd>:
    80000cec:	00251793          	sll	a5,a0,0x2
    80000cf0:	97aa                	add	a5,a5,a0
    80000cf2:	0792                	sll	a5,a5,0x4
    80000cf4:	001ff717          	auipc	a4,0x1ff
    80000cf8:	3ac70713          	add	a4,a4,940 # 802000a0 <dramfs_fdtable>
    80000cfc:	97ba                	add	a5,a5,a4
    80000cfe:	43c8                	lw	a0,4(a5)
    80000d00:	157d                	add	a0,a0,-1
    80000d02:	00153513          	seqz	a0,a0
    80000d06:	8082                	ret

0000000080000d08 <dramfs_reserve_fd>:
    80000d08:	001ff797          	auipc	a5,0x1ff
    80000d0c:	39878793          	add	a5,a5,920 # 802000a0 <dramfs_fdtable>
    80000d10:	4501                	li	a0,0
    80000d12:	46d1                	li	a3,20
    80000d14:	4398                	lw	a4,0(a5)
    80000d16:	c305                	beqz	a4,80000d36 <dramfs_reserve_fd+0x2e>
    80000d18:	2505                	addw	a0,a0,1
    80000d1a:	05078793          	add	a5,a5,80
    80000d1e:	fed51be3          	bne	a0,a3,80000d14 <dramfs_reserve_fd+0xc>
    80000d22:	1141                	add	sp,sp,-16
    80000d24:	e406                	sd	ra,8(sp)
    80000d26:	5fd030ef          	jal	80004b22 <__errno>
    80000d2a:	47dd                	li	a5,23
    80000d2c:	c11c                	sw	a5,0(a0)
    80000d2e:	557d                	li	a0,-1
    80000d30:	60a2                	ld	ra,8(sp)
    80000d32:	0141                	add	sp,sp,16
    80000d34:	8082                	ret
    80000d36:	00251793          	sll	a5,a0,0x2
    80000d3a:	97aa                	add	a5,a5,a0
    80000d3c:	0792                	sll	a5,a5,0x4
    80000d3e:	001ff717          	auipc	a4,0x1ff
    80000d42:	36270713          	add	a4,a4,866 # 802000a0 <dramfs_fdtable>
    80000d46:	97ba                	add	a5,a5,a4
    80000d48:	4705                	li	a4,1
    80000d4a:	c398                	sw	a4,0(a5)
    80000d4c:	8082                	ret

0000000080000d4e <dramfs_get_file>:
    80000d4e:	00251793          	sll	a5,a0,0x2
    80000d52:	97aa                	add	a5,a5,a0
    80000d54:	0792                	sll	a5,a5,0x4
    80000d56:	001ff517          	auipc	a0,0x1ff
    80000d5a:	35250513          	add	a0,a0,850 # 802000a8 <dramfs_fdtable+0x8>
    80000d5e:	953e                	add	a0,a0,a5
    80000d60:	8082                	ret

0000000080000d62 <dramfs_free_fd>:
    80000d62:	00251793          	sll	a5,a0,0x2
    80000d66:	97aa                	add	a5,a5,a0
    80000d68:	0792                	sll	a5,a5,0x4
    80000d6a:	001ff717          	auipc	a4,0x1ff
    80000d6e:	33670713          	add	a4,a4,822 # 802000a0 <dramfs_fdtable>
    80000d72:	97ba                	add	a5,a5,a4
    80000d74:	4398                	lw	a4,0(a5)
    80000d76:	4785                	li	a5,1
    80000d78:	00f70463          	beq	a4,a5,80000d80 <dramfs_free_fd+0x1e>
    80000d7c:	4501                	li	a0,0
    80000d7e:	8082                	ret
    80000d80:	1141                	add	sp,sp,-16
    80000d82:	e406                	sd	ra,8(sp)
    80000d84:	001ff597          	auipc	a1,0x1ff
    80000d88:	31c58593          	add	a1,a1,796 # 802000a0 <dramfs_fdtable>
    80000d8c:	00251793          	sll	a5,a0,0x2
    80000d90:	00a78733          	add	a4,a5,a0
    80000d94:	0712                	sll	a4,a4,0x4
    80000d96:	972e                	add	a4,a4,a1
    80000d98:	00072023          	sw	zero,0(a4)
    80000d9c:	97aa                	add	a5,a5,a0
    80000d9e:	0792                	sll	a5,a5,0x4
    80000da0:	07a1                	add	a5,a5,8
    80000da2:	95be                	add	a1,a1,a5
    80000da4:	00200517          	auipc	a0,0x200
    80000da8:	93c50513          	add	a0,a0,-1732 # 802006e0 <dramfs_fs>
    80000dac:	56a020ef          	jal	80003316 <lfs_file_close>
    80000db0:	60a2                	ld	ra,8(sp)
    80000db2:	0141                	add	sp,sp,16
    80000db4:	8082                	ret

0000000080000db6 <lfs_bd_erase>:
    80000db6:	1141                	add	sp,sp,-16
    80000db8:	e406                	sd	ra,8(sp)
    80000dba:	6108                	ld	a0,0(a0)
    80000dbc:	6d1c                	ld	a5,24(a0)
    80000dbe:	9782                	jalr	a5
    80000dc0:	60a2                	ld	ra,8(sp)
    80000dc2:	0141                	add	sp,sp,16
    80000dc4:	8082                	ret

0000000080000dc6 <lfs_alloc_lookahead>:
    80000dc6:	611c                	ld	a5,0(a0)
    80000dc8:	5bd8                	lw	a4,52(a5)
    80000dca:	413c                	lw	a5,64(a0)
    80000dcc:	40f707bb          	subw	a5,a4,a5
    80000dd0:	9dbd                	addw	a1,a1,a5
    80000dd2:	02e5f5bb          	remuw	a1,a1,a4
    80000dd6:	0005879b          	sext.w	a5,a1
    80000dda:	4178                	lw	a4,68(a0)
    80000ddc:	00e7fd63          	bgeu	a5,a4,80000df6 <lfs_alloc_lookahead+0x30>
    80000de0:	0055d71b          	srlw	a4,a1,0x5
    80000de4:	070a                	sll	a4,a4,0x2
    80000de6:	693c                	ld	a5,80(a0)
    80000de8:	97ba                	add	a5,a5,a4
    80000dea:	4685                	li	a3,1
    80000dec:	00b696bb          	sllw	a3,a3,a1
    80000df0:	4398                	lw	a4,0(a5)
    80000df2:	8f55                	or	a4,a4,a3
    80000df4:	c398                	sw	a4,0(a5)
    80000df6:	4501                	li	a0,0
    80000df8:	8082                	ret

0000000080000dfa <lfs_dir_fromle32>:
    80000dfa:	4118                	lw	a4,0(a0)
    80000dfc:	00875793          	srl	a5,a4,0x8
    80000e00:	0ff7f793          	zext.b	a5,a5
    80000e04:	0087979b          	sllw	a5,a5,0x8
    80000e08:	01075693          	srl	a3,a4,0x10
    80000e0c:	0ff6f693          	zext.b	a3,a3
    80000e10:	0106969b          	sllw	a3,a3,0x10
    80000e14:	8fd5                	or	a5,a5,a3
    80000e16:	0ff77693          	zext.b	a3,a4
    80000e1a:	8fd5                	or	a5,a5,a3
    80000e1c:	0187571b          	srlw	a4,a4,0x18
    80000e20:	0187171b          	sllw	a4,a4,0x18
    80000e24:	8fd9                	or	a5,a5,a4
    80000e26:	c11c                	sw	a5,0(a0)
    80000e28:	4158                	lw	a4,4(a0)
    80000e2a:	00875793          	srl	a5,a4,0x8
    80000e2e:	0ff7f793          	zext.b	a5,a5
    80000e32:	0087979b          	sllw	a5,a5,0x8
    80000e36:	01075693          	srl	a3,a4,0x10
    80000e3a:	0ff6f693          	zext.b	a3,a3
    80000e3e:	0106969b          	sllw	a3,a3,0x10
    80000e42:	8fd5                	or	a5,a5,a3
    80000e44:	0ff77693          	zext.b	a3,a4
    80000e48:	8fd5                	or	a5,a5,a3
    80000e4a:	0187571b          	srlw	a4,a4,0x18
    80000e4e:	0187171b          	sllw	a4,a4,0x18
    80000e52:	8fd9                	or	a5,a5,a4
    80000e54:	c15c                	sw	a5,4(a0)
    80000e56:	4518                	lw	a4,8(a0)
    80000e58:	00875793          	srl	a5,a4,0x8
    80000e5c:	0ff7f793          	zext.b	a5,a5
    80000e60:	0087979b          	sllw	a5,a5,0x8
    80000e64:	01075693          	srl	a3,a4,0x10
    80000e68:	0ff6f693          	zext.b	a3,a3
    80000e6c:	0106969b          	sllw	a3,a3,0x10
    80000e70:	8fd5                	or	a5,a5,a3
    80000e72:	0ff77693          	zext.b	a3,a4
    80000e76:	8fd5                	or	a5,a5,a3
    80000e78:	0187571b          	srlw	a4,a4,0x18
    80000e7c:	0187171b          	sllw	a4,a4,0x18
    80000e80:	8fd9                	or	a5,a5,a4
    80000e82:	c51c                	sw	a5,8(a0)
    80000e84:	4558                	lw	a4,12(a0)
    80000e86:	00875793          	srl	a5,a4,0x8
    80000e8a:	0ff7f793          	zext.b	a5,a5
    80000e8e:	0087979b          	sllw	a5,a5,0x8
    80000e92:	01075693          	srl	a3,a4,0x10
    80000e96:	0ff6f693          	zext.b	a3,a3
    80000e9a:	0106969b          	sllw	a3,a3,0x10
    80000e9e:	8fd5                	or	a5,a5,a3
    80000ea0:	0ff77693          	zext.b	a3,a4
    80000ea4:	8fd5                	or	a5,a5,a3
    80000ea6:	0187571b          	srlw	a4,a4,0x18
    80000eaa:	0187171b          	sllw	a4,a4,0x18
    80000eae:	8fd9                	or	a5,a5,a4
    80000eb0:	c55c                	sw	a5,12(a0)
    80000eb2:	8082                	ret

0000000080000eb4 <lfs_dir_tole32>:
    80000eb4:	4118                	lw	a4,0(a0)
    80000eb6:	00875793          	srl	a5,a4,0x8
    80000eba:	0ff7f793          	zext.b	a5,a5
    80000ebe:	0087979b          	sllw	a5,a5,0x8
    80000ec2:	01075693          	srl	a3,a4,0x10
    80000ec6:	0ff6f693          	zext.b	a3,a3
    80000eca:	0106969b          	sllw	a3,a3,0x10
    80000ece:	8fd5                	or	a5,a5,a3
    80000ed0:	0ff77693          	zext.b	a3,a4
    80000ed4:	8fd5                	or	a5,a5,a3
    80000ed6:	0187571b          	srlw	a4,a4,0x18
    80000eda:	0187171b          	sllw	a4,a4,0x18
    80000ede:	8fd9                	or	a5,a5,a4
    80000ee0:	c11c                	sw	a5,0(a0)
    80000ee2:	4158                	lw	a4,4(a0)
    80000ee4:	00875793          	srl	a5,a4,0x8
    80000ee8:	0ff7f793          	zext.b	a5,a5
    80000eec:	0087979b          	sllw	a5,a5,0x8
    80000ef0:	01075693          	srl	a3,a4,0x10
    80000ef4:	0ff6f693          	zext.b	a3,a3
    80000ef8:	0106969b          	sllw	a3,a3,0x10
    80000efc:	8fd5                	or	a5,a5,a3
    80000efe:	0ff77693          	zext.b	a3,a4
    80000f02:	8fd5                	or	a5,a5,a3
    80000f04:	0187571b          	srlw	a4,a4,0x18
    80000f08:	0187171b          	sllw	a4,a4,0x18
    80000f0c:	8fd9                	or	a5,a5,a4
    80000f0e:	c15c                	sw	a5,4(a0)
    80000f10:	4518                	lw	a4,8(a0)
    80000f12:	00875793          	srl	a5,a4,0x8
    80000f16:	0ff7f793          	zext.b	a5,a5
    80000f1a:	0087979b          	sllw	a5,a5,0x8
    80000f1e:	01075693          	srl	a3,a4,0x10
    80000f22:	0ff6f693          	zext.b	a3,a3
    80000f26:	0106969b          	sllw	a3,a3,0x10
    80000f2a:	8fd5                	or	a5,a5,a3
    80000f2c:	0ff77693          	zext.b	a3,a4
    80000f30:	8fd5                	or	a5,a5,a3
    80000f32:	0187571b          	srlw	a4,a4,0x18
    80000f36:	0187171b          	sllw	a4,a4,0x18
    80000f3a:	8fd9                	or	a5,a5,a4
    80000f3c:	c51c                	sw	a5,8(a0)
    80000f3e:	4558                	lw	a4,12(a0)
    80000f40:	00875793          	srl	a5,a4,0x8
    80000f44:	0ff7f793          	zext.b	a5,a5
    80000f48:	0087979b          	sllw	a5,a5,0x8
    80000f4c:	01075693          	srl	a3,a4,0x10
    80000f50:	0ff6f693          	zext.b	a3,a3
    80000f54:	0106969b          	sllw	a3,a3,0x10
    80000f58:	8fd5                	or	a5,a5,a3
    80000f5a:	0ff77693          	zext.b	a3,a4
    80000f5e:	8fd5                	or	a5,a5,a3
    80000f60:	0187571b          	srlw	a4,a4,0x18
    80000f64:	0187171b          	sllw	a4,a4,0x18
    80000f68:	8fd9                	or	a5,a5,a4
    80000f6a:	c55c                	sw	a5,12(a0)
    80000f6c:	8082                	ret

0000000080000f6e <lfs_entry_fromle32>:
    80000f6e:	4158                	lw	a4,4(a0)
    80000f70:	00875793          	srl	a5,a4,0x8
    80000f74:	0ff7f793          	zext.b	a5,a5
    80000f78:	0087979b          	sllw	a5,a5,0x8
    80000f7c:	01075693          	srl	a3,a4,0x10
    80000f80:	0ff6f693          	zext.b	a3,a3
    80000f84:	0106969b          	sllw	a3,a3,0x10
    80000f88:	8fd5                	or	a5,a5,a3
    80000f8a:	0ff77693          	zext.b	a3,a4
    80000f8e:	8fd5                	or	a5,a5,a3
    80000f90:	0187571b          	srlw	a4,a4,0x18
    80000f94:	0187171b          	sllw	a4,a4,0x18
    80000f98:	8fd9                	or	a5,a5,a4
    80000f9a:	c15c                	sw	a5,4(a0)
    80000f9c:	4518                	lw	a4,8(a0)
    80000f9e:	00875793          	srl	a5,a4,0x8
    80000fa2:	0ff7f793          	zext.b	a5,a5
    80000fa6:	0087979b          	sllw	a5,a5,0x8
    80000faa:	01075693          	srl	a3,a4,0x10
    80000fae:	0ff6f693          	zext.b	a3,a3
    80000fb2:	0106969b          	sllw	a3,a3,0x10
    80000fb6:	8fd5                	or	a5,a5,a3
    80000fb8:	0ff77693          	zext.b	a3,a4
    80000fbc:	8fd5                	or	a5,a5,a3
    80000fbe:	0187571b          	srlw	a4,a4,0x18
    80000fc2:	0187171b          	sllw	a4,a4,0x18
    80000fc6:	8fd9                	or	a5,a5,a4
    80000fc8:	c51c                	sw	a5,8(a0)
    80000fca:	8082                	ret

0000000080000fcc <lfs_entry_tole32>:
    80000fcc:	4158                	lw	a4,4(a0)
    80000fce:	00875793          	srl	a5,a4,0x8
    80000fd2:	0ff7f793          	zext.b	a5,a5
    80000fd6:	0087979b          	sllw	a5,a5,0x8
    80000fda:	01075693          	srl	a3,a4,0x10
    80000fde:	0ff6f693          	zext.b	a3,a3
    80000fe2:	0106969b          	sllw	a3,a3,0x10
    80000fe6:	8fd5                	or	a5,a5,a3
    80000fe8:	0ff77693          	zext.b	a3,a4
    80000fec:	8fd5                	or	a5,a5,a3
    80000fee:	0187571b          	srlw	a4,a4,0x18
    80000ff2:	0187171b          	sllw	a4,a4,0x18
    80000ff6:	8fd9                	or	a5,a5,a4
    80000ff8:	c15c                	sw	a5,4(a0)
    80000ffa:	4518                	lw	a4,8(a0)
    80000ffc:	00875793          	srl	a5,a4,0x8
    80001000:	0ff7f793          	zext.b	a5,a5
    80001004:	0087979b          	sllw	a5,a5,0x8
    80001008:	01075693          	srl	a3,a4,0x10
    8000100c:	0ff6f693          	zext.b	a3,a3
    80001010:	0106969b          	sllw	a3,a3,0x10
    80001014:	8fd5                	or	a5,a5,a3
    80001016:	0ff77693          	zext.b	a3,a4
    8000101a:	8fd5                	or	a5,a5,a3
    8000101c:	0187571b          	srlw	a4,a4,0x18
    80001020:	0187171b          	sllw	a4,a4,0x18
    80001024:	8fd9                	or	a5,a5,a4
    80001026:	c51c                	sw	a5,8(a0)
    80001028:	8082                	ret

000000008000102a <lfs_cache_read>:
    8000102a:	715d                	add	sp,sp,-80
    8000102c:	e486                	sd	ra,72(sp)
    8000102e:	e0a2                	sd	s0,64(sp)
    80001030:	fc26                	sd	s1,56(sp)
    80001032:	f84a                	sd	s2,48(sp)
    80001034:	f44e                	sd	s3,40(sp)
    80001036:	f052                	sd	s4,32(sp)
    80001038:	ec56                	sd	s5,24(sp)
    8000103a:	e85a                	sd	s6,16(sp)
    8000103c:	e45e                	sd	s7,8(sp)
    8000103e:	e062                	sd	s8,0(sp)
    80001040:	89aa                	mv	s3,a0
    80001042:	84ae                	mv	s1,a1
    80001044:	8a32                	mv	s4,a2
    80001046:	8936                	mv	s2,a3
    80001048:	843a                	mv	s0,a4
    8000104a:	8abe                	mv	s5,a5
    8000104c:	8b42                	mv	s6,a6
    8000104e:	0c081d63          	bnez	a6,80001128 <lfs_cache_read+0xfe>
    80001052:	4501                	li	a0,0
    80001054:	aa09                	j	80001166 <lfs_cache_read+0x13c>
    80001056:	004a2783          	lw	a5,4(s4)
    8000105a:	0cf46d63          	bltu	s0,a5,80001134 <lfs_cache_read+0x10a>
    8000105e:	0009b703          	ld	a4,0(s3)
    80001062:	5758                	lw	a4,44(a4)
    80001064:	9f3d                	addw	a4,a4,a5
    80001066:	0007069b          	sext.w	a3,a4
    8000106a:	0cd47563          	bgeu	s0,a3,80001134 <lfs_cache_read+0x10a>
    8000106e:	9f01                	subw	a4,a4,s0
    80001070:	8bba                	mv	s7,a4
    80001072:	2701                	sext.w	a4,a4
    80001074:	00eb7363          	bgeu	s6,a4,8000107a <lfs_cache_read+0x50>
    80001078:	8bda                	mv	s7,s6
    8000107a:	020b9c13          	sll	s8,s7,0x20
    8000107e:	020c5c13          	srl	s8,s8,0x20
    80001082:	40f407bb          	subw	a5,s0,a5
    80001086:	1782                	sll	a5,a5,0x20
    80001088:	9381                	srl	a5,a5,0x20
    8000108a:	008a3583          	ld	a1,8(s4)
    8000108e:	8662                	mv	a2,s8
    80001090:	95be                	add	a1,a1,a5
    80001092:	8556                	mv	a0,s5
    80001094:	307030ef          	jal	80004b9a <memcpy>
    80001098:	9ae2                	add	s5,s5,s8
    8000109a:	008b843b          	addw	s0,s7,s0
    8000109e:	417b0b3b          	subw	s6,s6,s7
    800010a2:	a049                	j	80001124 <lfs_cache_read+0xfa>
    800010a4:	40dc                	lw	a5,4(s1)
    800010a6:	08f46a63          	bltu	s0,a5,8000113a <lfs_cache_read+0x110>
    800010aa:	0009b703          	ld	a4,0(s3)
    800010ae:	5718                	lw	a4,40(a4)
    800010b0:	9f3d                	addw	a4,a4,a5
    800010b2:	0007069b          	sext.w	a3,a4
    800010b6:	08d47263          	bgeu	s0,a3,8000113a <lfs_cache_read+0x110>
    800010ba:	9f01                	subw	a4,a4,s0
    800010bc:	8bba                	mv	s7,a4
    800010be:	2701                	sext.w	a4,a4
    800010c0:	00eb7363          	bgeu	s6,a4,800010c6 <lfs_cache_read+0x9c>
    800010c4:	8bda                	mv	s7,s6
    800010c6:	020b9c13          	sll	s8,s7,0x20
    800010ca:	020c5c13          	srl	s8,s8,0x20
    800010ce:	40f407bb          	subw	a5,s0,a5
    800010d2:	1782                	sll	a5,a5,0x20
    800010d4:	9381                	srl	a5,a5,0x20
    800010d6:	648c                	ld	a1,8(s1)
    800010d8:	8662                	mv	a2,s8
    800010da:	95be                	add	a1,a1,a5
    800010dc:	8556                	mv	a0,s5
    800010de:	2bd030ef          	jal	80004b9a <memcpy>
    800010e2:	9ae2                	add	s5,s5,s8
    800010e4:	008b843b          	addw	s0,s7,s0
    800010e8:	417b0b3b          	subw	s6,s6,s7
    800010ec:	a825                	j	80001124 <lfs_cache_read+0xfa>
    800010ee:	020b1793          	sll	a5,s6,0x20
    800010f2:	9381                	srl	a5,a5,0x20
    800010f4:	9abe                	add	s5,s5,a5
    800010f6:	008b043b          	addw	s0,s6,s0
    800010fa:	8b5e                	mv	s6,s7
    800010fc:	a025                	j	80001124 <lfs_cache_read+0xfa>
    800010fe:	0124a023          	sw	s2,0(s1)
    80001102:	0009b783          	ld	a5,0(s3)
    80001106:	5790                	lw	a2,40(a5)
    80001108:	02c4763b          	remuw	a2,s0,a2
    8000110c:	40c4063b          	subw	a2,s0,a2
    80001110:	c0d0                	sw	a2,4(s1)
    80001112:	0009b503          	ld	a0,0(s3)
    80001116:	651c                	ld	a5,8(a0)
    80001118:	5518                	lw	a4,40(a0)
    8000111a:	6494                	ld	a3,8(s1)
    8000111c:	2601                	sext.w	a2,a2
    8000111e:	85ca                	mv	a1,s2
    80001120:	9782                	jalr	a5
    80001122:	e131                	bnez	a0,80001166 <lfs_cache_read+0x13c>
    80001124:	040b0d63          	beqz	s6,8000117e <lfs_cache_read+0x154>
    80001128:	000a0663          	beqz	s4,80001134 <lfs_cache_read+0x10a>
    8000112c:	000a2783          	lw	a5,0(s4)
    80001130:	f32783e3          	beq	a5,s2,80001056 <lfs_cache_read+0x2c>
    80001134:	409c                	lw	a5,0(s1)
    80001136:	f72787e3          	beq	a5,s2,800010a4 <lfs_cache_read+0x7a>
    8000113a:	0009b503          	ld	a0,0(s3)
    8000113e:	551c                	lw	a5,40(a0)
    80001140:	02f4773b          	remuw	a4,s0,a5
    80001144:	ff4d                	bnez	a4,800010fe <lfs_cache_read+0xd4>
    80001146:	fafb6ce3          	bltu	s6,a5,800010fe <lfs_cache_read+0xd4>
    8000114a:	02fb77bb          	remuw	a5,s6,a5
    8000114e:	00078b9b          	sext.w	s7,a5
    80001152:	40fb0b3b          	subw	s6,s6,a5
    80001156:	651c                	ld	a5,8(a0)
    80001158:	000b071b          	sext.w	a4,s6
    8000115c:	86d6                	mv	a3,s5
    8000115e:	8622                	mv	a2,s0
    80001160:	85ca                	mv	a1,s2
    80001162:	9782                	jalr	a5
    80001164:	d549                	beqz	a0,800010ee <lfs_cache_read+0xc4>
    80001166:	60a6                	ld	ra,72(sp)
    80001168:	6406                	ld	s0,64(sp)
    8000116a:	74e2                	ld	s1,56(sp)
    8000116c:	7942                	ld	s2,48(sp)
    8000116e:	79a2                	ld	s3,40(sp)
    80001170:	7a02                	ld	s4,32(sp)
    80001172:	6ae2                	ld	s5,24(sp)
    80001174:	6b42                	ld	s6,16(sp)
    80001176:	6ba2                	ld	s7,8(sp)
    80001178:	6c02                	ld	s8,0(sp)
    8000117a:	6161                	add	sp,sp,80
    8000117c:	8082                	ret
    8000117e:	4501                	li	a0,0
    80001180:	b7dd                	j	80001166 <lfs_cache_read+0x13c>

0000000080001182 <lfs_bd_read>:
    80001182:	1141                	add	sp,sp,-16
    80001184:	e406                	sd	ra,8(sp)
    80001186:	87b6                	mv	a5,a3
    80001188:	883a                	mv	a6,a4
    8000118a:	8732                	mv	a4,a2
    8000118c:	86ae                	mv	a3,a1
    8000118e:	4601                	li	a2,0
    80001190:	02050593          	add	a1,a0,32
    80001194:	e97ff0ef          	jal	8000102a <lfs_cache_read>
    80001198:	60a2                	ld	ra,8(sp)
    8000119a:	0141                	add	sp,sp,16
    8000119c:	8082                	ret

000000008000119e <lfs_dir_fetch>:
    8000119e:	7119                	add	sp,sp,-128
    800011a0:	fc86                	sd	ra,120(sp)
    800011a2:	f8a2                	sd	s0,112(sp)
    800011a4:	f4a6                	sd	s1,104(sp)
    800011a6:	f0ca                	sd	s2,96(sp)
    800011a8:	ecce                	sd	s3,88(sp)
    800011aa:	e8d2                	sd	s4,80(sp)
    800011ac:	e4d6                	sd	s5,72(sp)
    800011ae:	e0da                	sd	s6,64(sp)
    800011b0:	fc5e                	sd	s7,56(sp)
    800011b2:	f862                	sd	s8,48(sp)
    800011b4:	f466                	sd	s9,40(sp)
    800011b6:	84aa                	mv	s1,a0
    800011b8:	8a2e                	mv	s4,a1
    800011ba:	421c                	lw	a5,0(a2)
    800011bc:	cc3e                	sw	a5,24(sp)
    800011be:	425c                	lw	a5,4(a2)
    800011c0:	ce3e                	sw	a5,28(sp)
    800011c2:	01810a93          	add	s5,sp,24
    800011c6:	4b01                	li	s6,0
    800011c8:	4b81                	li	s7,0
    800011ca:	000aa983          	lw	s3,0(s5)
    800011ce:	4741                	li	a4,16
    800011d0:	0034                	add	a3,sp,8
    800011d2:	4601                	li	a2,0
    800011d4:	85ce                	mv	a1,s3
    800011d6:	8526                	mv	a0,s1
    800011d8:	fabff0ef          	jal	80001182 <lfs_bd_read>
    800011dc:	842a                	mv	s0,a0
    800011de:	0028                	add	a0,sp,8
    800011e0:	c1bff0ef          	jal	80000dfa <lfs_dir_fromle32>
    800011e4:	c81d                	beqz	s0,8000121a <lfs_dir_fetch+0x7c>
    800011e6:	fcc00793          	li	a5,-52
    800011ea:	00f41a63          	bne	s0,a5,800011fe <lfs_dir_fetch+0x60>
    800011ee:	2b05                	addw	s6,s6,1
    800011f0:	0a91                	add	s5,s5,4
    800011f2:	4789                	li	a5,2
    800011f4:	fcfb1be3          	bne	s6,a5,800011ca <lfs_dir_fetch+0x2c>
    800011f8:	0e0b8e63          	beqz	s7,800012f4 <lfs_dir_fetch+0x156>
    800011fc:	4401                	li	s0,0
    800011fe:	8522                	mv	a0,s0
    80001200:	70e6                	ld	ra,120(sp)
    80001202:	7446                	ld	s0,112(sp)
    80001204:	74a6                	ld	s1,104(sp)
    80001206:	7906                	ld	s2,96(sp)
    80001208:	69e6                	ld	s3,88(sp)
    8000120a:	6a46                	ld	s4,80(sp)
    8000120c:	6aa6                	ld	s5,72(sp)
    8000120e:	6b06                	ld	s6,64(sp)
    80001210:	7be2                	ld	s7,56(sp)
    80001212:	7c42                	ld	s8,48(sp)
    80001214:	7ca2                	ld	s9,40(sp)
    80001216:	6109                	add	sp,sp,128
    80001218:	8082                	ret
    8000121a:	000b8863          	beqz	s7,8000122a <lfs_dir_fetch+0x8c>
    8000121e:	47a2                	lw	a5,8(sp)
    80001220:	020a2703          	lw	a4,32(s4)
    80001224:	9f99                	subw	a5,a5,a4
    80001226:	fc07c4e3          	bltz	a5,800011ee <lfs_dir_fetch+0x50>
    8000122a:	47b2                	lw	a5,12(sp)
    8000122c:	1786                	sll	a5,a5,0x21
    8000122e:	9385                	srl	a5,a5,0x21
    80001230:	474d                	li	a4,19
    80001232:	faf77ee3          	bgeu	a4,a5,800011ee <lfs_dir_fetch+0x50>
    80001236:	6098                	ld	a4,0(s1)
    80001238:	5b18                	lw	a4,48(a4)
    8000123a:	faf76ae3          	bltu	a4,a5,800011ee <lfs_dir_fetch+0x50>
    8000123e:	57fd                	li	a5,-1
    80001240:	c23e                	sw	a5,4(sp)
    80001242:	0028                	add	a0,sp,8
    80001244:	c71ff0ef          	jal	80000eb4 <lfs_dir_tole32>
    80001248:	4641                	li	a2,16
    8000124a:	002c                	add	a1,sp,8
    8000124c:	0048                	add	a0,sp,4
    8000124e:	1e5020ef          	jal	80003c32 <lfs_crc>
    80001252:	0028                	add	a0,sp,8
    80001254:	ba7ff0ef          	jal	80000dfa <lfs_dir_fromle32>
    80001258:	4c32                	lw	s8,12(sp)
    8000125a:	1c06                	sll	s8,s8,0x21
    8000125c:	021c5c13          	srl	s8,s8,0x21
    80001260:	02048c93          	add	s9,s1,32
    80001264:	47c1                	li	a5,16
    80001266:	02fc0863          	beq	s8,a5,80001296 <lfs_dir_fetch+0xf8>
    8000126a:	4941                	li	s2,16
    8000126c:	4805                	li	a6,1
    8000126e:	00310793          	add	a5,sp,3
    80001272:	874a                	mv	a4,s2
    80001274:	86ce                	mv	a3,s3
    80001276:	4601                	li	a2,0
    80001278:	85e6                	mv	a1,s9
    8000127a:	8526                	mv	a0,s1
    8000127c:	dafff0ef          	jal	8000102a <lfs_cache_read>
    80001280:	842a                	mv	s0,a0
    80001282:	e525                	bnez	a0,800012ea <lfs_dir_fetch+0x14c>
    80001284:	4605                	li	a2,1
    80001286:	00310593          	add	a1,sp,3
    8000128a:	0048                	add	a0,sp,4
    8000128c:	1a7020ef          	jal	80003c32 <lfs_crc>
    80001290:	2905                	addw	s2,s2,1
    80001292:	fd2c1de3          	bne	s8,s2,8000126c <lfs_dir_fetch+0xce>
    80001296:	4792                	lw	a5,4(sp)
    80001298:	fbb9                	bnez	a5,800011ee <lfs_dir_fetch+0x50>
    8000129a:	01fb571b          	srlw	a4,s6,0x1f
    8000129e:	016707bb          	addw	a5,a4,s6
    800012a2:	8b85                	and	a5,a5,1
    800012a4:	9f99                	subw	a5,a5,a4
    800012a6:	078a                	sll	a5,a5,0x2
    800012a8:	02078793          	add	a5,a5,32
    800012ac:	978a                	add	a5,a5,sp
    800012ae:	ff87a783          	lw	a5,-8(a5)
    800012b2:	00fa2423          	sw	a5,8(s4)
    800012b6:	001b079b          	addw	a5,s6,1
    800012ba:	01f7d71b          	srlw	a4,a5,0x1f
    800012be:	9fb9                	addw	a5,a5,a4
    800012c0:	8b85                	and	a5,a5,1
    800012c2:	9f99                	subw	a5,a5,a4
    800012c4:	078a                	sll	a5,a5,0x2
    800012c6:	02078793          	add	a5,a5,32
    800012ca:	978a                	add	a5,a5,sp
    800012cc:	ff87a783          	lw	a5,-8(a5)
    800012d0:	00fa2623          	sw	a5,12(s4)
    800012d4:	47c1                	li	a5,16
    800012d6:	00fa2823          	sw	a5,16(s4)
    800012da:	67a2                	ld	a5,8(sp)
    800012dc:	02fa3023          	sd	a5,32(s4)
    800012e0:	67c2                	ld	a5,16(sp)
    800012e2:	02fa3423          	sd	a5,40(s4)
    800012e6:	4b85                	li	s7,1
    800012e8:	b719                	j	800011ee <lfs_dir_fetch+0x50>
    800012ea:	fcc00793          	li	a5,-52
    800012ee:	f0f518e3          	bne	a0,a5,800011fe <lfs_dir_fetch+0x60>
    800012f2:	bdf5                	j	800011ee <lfs_dir_fetch+0x50>
    800012f4:	fcc00413          	li	s0,-52
    800012f8:	b719                	j	800011fe <lfs_dir_fetch+0x60>

00000000800012fa <lfs_dir_next>:
    800012fa:	715d                	add	sp,sp,-80
    800012fc:	e486                	sd	ra,72(sp)
    800012fe:	e0a2                	sd	s0,64(sp)
    80001300:	fc26                	sd	s1,56(sp)
    80001302:	f84a                	sd	s2,48(sp)
    80001304:	f44e                	sd	s3,40(sp)
    80001306:	f052                	sd	s4,32(sp)
    80001308:	ec56                	sd	s5,24(sp)
    8000130a:	e85a                	sd	s6,16(sp)
    8000130c:	e45e                	sd	s7,8(sp)
    8000130e:	89aa                	mv	s3,a0
    80001310:	842e                	mv	s0,a1
    80001312:	8bb2                	mv	s7,a2
    80001314:	4990                	lw	a2,16(a1)
    80001316:	51d8                	lw	a4,36(a1)
    80001318:	02061693          	sll	a3,a2,0x20
    8000131c:	9281                	srl	a3,a3,0x20
    8000131e:	06b1                	add	a3,a3,12
    80001320:	02171793          	sll	a5,a4,0x21
    80001324:	9385                	srl	a5,a5,0x21
    80001326:	37f1                	addw	a5,a5,-4
    80001328:	1782                	sll	a5,a5,0x20
    8000132a:	9381                	srl	a5,a5,0x20
    8000132c:	04d7f063          	bgeu	a5,a3,8000136c <lfs_dir_next+0x72>
    80001330:	02858a93          	add	s5,a1,40
    80001334:	4941                	li	s2,16
    80001336:	80000a37          	lui	s4,0x80000
    8000133a:	fffa4a13          	not	s4,s4
    8000133e:	4b6d                	li	s6,27
    80001340:	06075e63          	bgez	a4,800013bc <lfs_dir_next+0xc2>
    80001344:	8656                	mv	a2,s5
    80001346:	85a2                	mv	a1,s0
    80001348:	854e                	mv	a0,s3
    8000134a:	e55ff0ef          	jal	8000119e <lfs_dir_fetch>
    8000134e:	84aa                	mv	s1,a0
    80001350:	e92d                	bnez	a0,800013c2 <lfs_dir_next+0xc8>
    80001352:	01242823          	sw	s2,16(s0)
    80001356:	4c5c                	lw	a5,28(s0)
    80001358:	27d1                	addw	a5,a5,20
    8000135a:	cc5c                	sw	a5,28(s0)
    8000135c:	5058                	lw	a4,36(s0)
    8000135e:	864a                	mv	a2,s2
    80001360:	014777b3          	and	a5,a4,s4
    80001364:	37f1                	addw	a5,a5,-4
    80001366:	fcfb7de3          	bgeu	s6,a5,80001340 <lfs_dir_next+0x46>
    8000136a:	4641                	li	a2,16
    8000136c:	004b8913          	add	s2,s7,4
    80001370:	4731                	li	a4,12
    80001372:	86ca                	mv	a3,s2
    80001374:	440c                	lw	a1,8(s0)
    80001376:	854e                	mv	a0,s3
    80001378:	e0bff0ef          	jal	80001182 <lfs_bd_read>
    8000137c:	84aa                	mv	s1,a0
    8000137e:	854a                	mv	a0,s2
    80001380:	befff0ef          	jal	80000f6e <lfs_entry_fromle32>
    80001384:	ec9d                	bnez	s1,800013c2 <lfs_dir_next+0xc8>
    80001386:	4818                	lw	a4,16(s0)
    80001388:	00eba023          	sw	a4,0(s7)
    8000138c:	005bc783          	lbu	a5,5(s7)
    80001390:	2791                	addw	a5,a5,4
    80001392:	006bc683          	lbu	a3,6(s7)
    80001396:	9fb5                	addw	a5,a5,a3
    80001398:	007bc683          	lbu	a3,7(s7)
    8000139c:	9fb5                	addw	a5,a5,a3
    8000139e:	9fb9                	addw	a5,a5,a4
    800013a0:	c81c                	sw	a5,16(s0)
    800013a2:	005bc783          	lbu	a5,5(s7)
    800013a6:	2791                	addw	a5,a5,4
    800013a8:	006bc703          	lbu	a4,6(s7)
    800013ac:	9fb9                	addw	a5,a5,a4
    800013ae:	007bc703          	lbu	a4,7(s7)
    800013b2:	9fb9                	addw	a5,a5,a4
    800013b4:	4c58                	lw	a4,28(s0)
    800013b6:	9fb9                	addw	a5,a5,a4
    800013b8:	cc5c                	sw	a5,28(s0)
    800013ba:	a021                	j	800013c2 <lfs_dir_next+0xc8>
    800013bc:	00cba023          	sw	a2,0(s7)
    800013c0:	54f9                	li	s1,-2
    800013c2:	8526                	mv	a0,s1
    800013c4:	60a6                	ld	ra,72(sp)
    800013c6:	6406                	ld	s0,64(sp)
    800013c8:	74e2                	ld	s1,56(sp)
    800013ca:	7942                	ld	s2,48(sp)
    800013cc:	79a2                	ld	s3,40(sp)
    800013ce:	7a02                	ld	s4,32(sp)
    800013d0:	6ae2                	ld	s5,24(sp)
    800013d2:	6b42                	ld	s6,16(sp)
    800013d4:	6ba2                	ld	s7,8(sp)
    800013d6:	6161                	add	sp,sp,80
    800013d8:	8082                	ret

00000000800013da <lfs_moved>:
    800013da:	7119                	add	sp,sp,-128
    800013dc:	fc86                	sd	ra,120(sp)
    800013de:	f8a2                	sd	s0,112(sp)
    800013e0:	f4a6                	sd	s1,104(sp)
    800013e2:	f0ca                	sd	s2,96(sp)
    800013e4:	ecce                	sd	s3,88(sp)
    800013e6:	e8d2                	sd	s4,80(sp)
    800013e8:	4518                	lw	a4,8(a0)
    800013ea:	57fd                	li	a5,-1
    800013ec:	06f70363          	beq	a4,a5,80001452 <lfs_moved+0x78>
    800013f0:	842a                	mv	s0,a0
    800013f2:	84ae                	mv	s1,a1
    800013f4:	4558                	lw	a4,12(a0)
    800013f6:	06f70863          	beq	a4,a5,80001466 <lfs_moved+0x8c>
    800013fa:	c482                	sw	zero,72(sp)
    800013fc:	4785                	li	a5,1
    800013fe:	c6be                	sw	a5,76(sp)
    80001400:	00b0                	add	a2,sp,72
    80001402:	082c                	add	a1,sp,24
    80001404:	d9bff0ef          	jal	8000119e <lfs_dir_fetch>
    80001408:	892a                	mv	s2,a0
    8000140a:	e529                	bnez	a0,80001454 <lfs_moved+0x7a>
    8000140c:	59fd                	li	s3,-1
    8000140e:	5a79                	li	s4,-2
    80001410:	a019                	j	80001416 <lfs_moved+0x3c>
    80001412:	05451e63          	bne	a0,s4,8000146e <lfs_moved+0x94>
    80001416:	4786                	lw	a5,64(sp)
    80001418:	03378e63          	beq	a5,s3,80001454 <lfs_moved+0x7a>
    8000141c:	4796                	lw	a5,68(sp)
    8000141e:	03378b63          	beq	a5,s3,80001454 <lfs_moved+0x7a>
    80001422:	0090                	add	a2,sp,64
    80001424:	082c                	add	a1,sp,24
    80001426:	8522                	mv	a0,s0
    80001428:	d77ff0ef          	jal	8000119e <lfs_dir_fetch>
    8000142c:	ed1d                	bnez	a0,8000146a <lfs_moved+0x90>
    8000142e:	0030                	add	a2,sp,8
    80001430:	082c                	add	a1,sp,24
    80001432:	8522                	mv	a0,s0
    80001434:	ec7ff0ef          	jal	800012fa <lfs_dir_next>
    80001438:	fd69                	bnez	a0,80001412 <lfs_moved+0x38>
    8000143a:	00c10783          	lb	a5,12(sp)
    8000143e:	fe07c8e3          	bltz	a5,8000142e <lfs_moved+0x54>
    80001442:	4621                	li	a2,8
    80001444:	85a6                	mv	a1,s1
    80001446:	0808                	add	a0,sp,16
    80001448:	700030ef          	jal	80004b48 <memcmp>
    8000144c:	f16d                	bnez	a0,8000142e <lfs_moved+0x54>
    8000144e:	4905                	li	s2,1
    80001450:	a011                	j	80001454 <lfs_moved+0x7a>
    80001452:	4901                	li	s2,0
    80001454:	854a                	mv	a0,s2
    80001456:	70e6                	ld	ra,120(sp)
    80001458:	7446                	ld	s0,112(sp)
    8000145a:	74a6                	ld	s1,104(sp)
    8000145c:	7906                	ld	s2,96(sp)
    8000145e:	69e6                	ld	s3,88(sp)
    80001460:	6a46                	ld	s4,80(sp)
    80001462:	6109                	add	sp,sp,128
    80001464:	8082                	ret
    80001466:	4901                	li	s2,0
    80001468:	b7f5                	j	80001454 <lfs_moved+0x7a>
    8000146a:	892a                	mv	s2,a0
    8000146c:	b7e5                	j	80001454 <lfs_moved+0x7a>
    8000146e:	892a                	mv	s2,a0
    80001470:	b7d5                	j	80001454 <lfs_moved+0x7a>

0000000080001472 <lfs_parent>:
    80001472:	4518                	lw	a4,8(a0)
    80001474:	57fd                	li	a5,-1
    80001476:	08f70963          	beq	a4,a5,80001508 <lfs_parent+0x96>
    8000147a:	7139                	add	sp,sp,-64
    8000147c:	fc06                	sd	ra,56(sp)
    8000147e:	f822                	sd	s0,48(sp)
    80001480:	f426                	sd	s1,40(sp)
    80001482:	f04a                	sd	s2,32(sp)
    80001484:	ec4e                	sd	s3,24(sp)
    80001486:	e852                	sd	s4,16(sp)
    80001488:	e456                	sd	s5,8(sp)
    8000148a:	e05a                	sd	s6,0(sp)
    8000148c:	892a                	mv	s2,a0
    8000148e:	89ae                	mv	s3,a1
    80001490:	8432                	mv	s0,a2
    80001492:	84b6                	mv	s1,a3
    80001494:	4558                	lw	a4,12(a0)
    80001496:	06f70b63          	beq	a4,a5,8000150c <lfs_parent+0x9a>
    8000149a:	02062423          	sw	zero,40(a2)
    8000149e:	4785                	li	a5,1
    800014a0:	d65c                	sw	a5,44(a2)
    800014a2:	5afd                	li	s5,-1
    800014a4:	02860b13          	add	s6,a2,40
    800014a8:	02000a13          	li	s4,32
    800014ac:	541c                	lw	a5,40(s0)
    800014ae:	09578063          	beq	a5,s5,8000152e <lfs_parent+0xbc>
    800014b2:	545c                	lw	a5,44(s0)
    800014b4:	05578863          	beq	a5,s5,80001504 <lfs_parent+0x92>
    800014b8:	865a                	mv	a2,s6
    800014ba:	85a2                	mv	a1,s0
    800014bc:	854a                	mv	a0,s2
    800014be:	ce1ff0ef          	jal	8000119e <lfs_dir_fetch>
    800014c2:	e531                	bnez	a0,8000150e <lfs_parent+0x9c>
    800014c4:	8626                	mv	a2,s1
    800014c6:	85a2                	mv	a1,s0
    800014c8:	854a                	mv	a0,s2
    800014ca:	e31ff0ef          	jal	800012fa <lfs_dir_next>
    800014ce:	e51d                	bnez	a0,800014fc <lfs_parent+0x8a>
    800014d0:	0044c783          	lbu	a5,4(s1)
    800014d4:	0707f793          	and	a5,a5,112
    800014d8:	ff4796e3          	bne	a5,s4,800014c4 <lfs_parent+0x52>
    800014dc:	449c                	lw	a5,8(s1)
    800014de:	0009a703          	lw	a4,0(s3)
    800014e2:	04e78063          	beq	a5,a4,80001522 <lfs_parent+0xb0>
    800014e6:	44d0                	lw	a2,12(s1)
    800014e8:	0049a683          	lw	a3,4(s3)
    800014ec:	02d60d63          	beq	a2,a3,80001526 <lfs_parent+0xb4>
    800014f0:	02d78d63          	beq	a5,a3,8000152a <lfs_parent+0xb8>
    800014f4:	fcc718e3          	bne	a4,a2,800014c4 <lfs_parent+0x52>
    800014f8:	4505                	li	a0,1
    800014fa:	a811                	j	8000150e <lfs_parent+0x9c>
    800014fc:	57f9                	li	a5,-2
    800014fe:	faf507e3          	beq	a0,a5,800014ac <lfs_parent+0x3a>
    80001502:	a031                	j	8000150e <lfs_parent+0x9c>
    80001504:	4501                	li	a0,0
    80001506:	a021                	j	8000150e <lfs_parent+0x9c>
    80001508:	4501                	li	a0,0
    8000150a:	8082                	ret
    8000150c:	4501                	li	a0,0
    8000150e:	70e2                	ld	ra,56(sp)
    80001510:	7442                	ld	s0,48(sp)
    80001512:	74a2                	ld	s1,40(sp)
    80001514:	7902                	ld	s2,32(sp)
    80001516:	69e2                	ld	s3,24(sp)
    80001518:	6a42                	ld	s4,16(sp)
    8000151a:	6aa2                	ld	s5,8(sp)
    8000151c:	6b02                	ld	s6,0(sp)
    8000151e:	6121                	add	sp,sp,64
    80001520:	8082                	ret
    80001522:	4505                	li	a0,1
    80001524:	b7ed                	j	8000150e <lfs_parent+0x9c>
    80001526:	4505                	li	a0,1
    80001528:	b7dd                	j	8000150e <lfs_parent+0x9c>
    8000152a:	4505                	li	a0,1
    8000152c:	b7cd                	j	8000150e <lfs_parent+0x9c>
    8000152e:	4501                	li	a0,0
    80001530:	bff9                	j	8000150e <lfs_parent+0x9c>

0000000080001532 <lfs_pred>:
    80001532:	7139                	add	sp,sp,-64
    80001534:	fc06                	sd	ra,56(sp)
    80001536:	f822                	sd	s0,48(sp)
    80001538:	f426                	sd	s1,40(sp)
    8000153a:	f04a                	sd	s2,32(sp)
    8000153c:	ec4e                	sd	s3,24(sp)
    8000153e:	e852                	sd	s4,16(sp)
    80001540:	4518                	lw	a4,8(a0)
    80001542:	57fd                	li	a5,-1
    80001544:	04f70d63          	beq	a4,a5,8000159e <lfs_pred+0x6c>
    80001548:	842a                	mv	s0,a0
    8000154a:	89ae                	mv	s3,a1
    8000154c:	84b2                	mv	s1,a2
    8000154e:	4558                	lw	a4,12(a0)
    80001550:	06f70163          	beq	a4,a5,800015b2 <lfs_pred+0x80>
    80001554:	c402                	sw	zero,8(sp)
    80001556:	4785                	li	a5,1
    80001558:	c63e                	sw	a5,12(sp)
    8000155a:	0030                	add	a2,sp,8
    8000155c:	85a6                	mv	a1,s1
    8000155e:	c41ff0ef          	jal	8000119e <lfs_dir_fetch>
    80001562:	892a                	mv	s2,a0
    80001564:	ed15                	bnez	a0,800015a0 <lfs_pred+0x6e>
    80001566:	5a7d                	li	s4,-1
    80001568:	549c                	lw	a5,40(s1)
    8000156a:	03478b63          	beq	a5,s4,800015a0 <lfs_pred+0x6e>
    8000156e:	54d8                	lw	a4,44(s1)
    80001570:	03470863          	beq	a4,s4,800015a0 <lfs_pred+0x6e>
    80001574:	0009a683          	lw	a3,0(s3)
    80001578:	02f68f63          	beq	a3,a5,800015b6 <lfs_pred+0x84>
    8000157c:	0049a603          	lw	a2,4(s3)
    80001580:	02e60d63          	beq	a2,a4,800015ba <lfs_pred+0x88>
    80001584:	02f60d63          	beq	a2,a5,800015be <lfs_pred+0x8c>
    80001588:	02e68d63          	beq	a3,a4,800015c2 <lfs_pred+0x90>
    8000158c:	02848613          	add	a2,s1,40
    80001590:	85a6                	mv	a1,s1
    80001592:	8522                	mv	a0,s0
    80001594:	c0bff0ef          	jal	8000119e <lfs_dir_fetch>
    80001598:	d961                	beqz	a0,80001568 <lfs_pred+0x36>
    8000159a:	892a                	mv	s2,a0
    8000159c:	a011                	j	800015a0 <lfs_pred+0x6e>
    8000159e:	4901                	li	s2,0
    800015a0:	854a                	mv	a0,s2
    800015a2:	70e2                	ld	ra,56(sp)
    800015a4:	7442                	ld	s0,48(sp)
    800015a6:	74a2                	ld	s1,40(sp)
    800015a8:	7902                	ld	s2,32(sp)
    800015aa:	69e2                	ld	s3,24(sp)
    800015ac:	6a42                	ld	s4,16(sp)
    800015ae:	6121                	add	sp,sp,64
    800015b0:	8082                	ret
    800015b2:	4901                	li	s2,0
    800015b4:	b7f5                	j	800015a0 <lfs_pred+0x6e>
    800015b6:	4905                	li	s2,1
    800015b8:	b7e5                	j	800015a0 <lfs_pred+0x6e>
    800015ba:	4905                	li	s2,1
    800015bc:	b7d5                	j	800015a0 <lfs_pred+0x6e>
    800015be:	4905                	li	s2,1
    800015c0:	b7c5                	j	800015a0 <lfs_pred+0x6e>
    800015c2:	4905                	li	s2,1
    800015c4:	bff1                	j	800015a0 <lfs_pred+0x6e>

00000000800015c6 <lfs_cache_cmp>:
    800015c6:	06080763          	beqz	a6,80001634 <lfs_cache_cmp+0x6e>
    800015ca:	715d                	add	sp,sp,-80
    800015cc:	e486                	sd	ra,72(sp)
    800015ce:	e0a2                	sd	s0,64(sp)
    800015d0:	fc26                	sd	s1,56(sp)
    800015d2:	f84a                	sd	s2,48(sp)
    800015d4:	f44e                	sd	s3,40(sp)
    800015d6:	f052                	sd	s4,32(sp)
    800015d8:	ec56                	sd	s5,24(sp)
    800015da:	e85a                	sd	s6,16(sp)
    800015dc:	89aa                	mv	s3,a0
    800015de:	8a2e                	mv	s4,a1
    800015e0:	8ab2                	mv	s5,a2
    800015e2:	8b36                	mv	s6,a3
    800015e4:	1802                	sll	a6,a6,0x20
    800015e6:	02085813          	srl	a6,a6,0x20
    800015ea:	010784b3          	add	s1,a5,a6
    800015ee:	843e                	mv	s0,a5
    800015f0:	40f7093b          	subw	s2,a4,a5
    800015f4:	4805                	li	a6,1
    800015f6:	00f10793          	add	a5,sp,15
    800015fa:	0089073b          	addw	a4,s2,s0
    800015fe:	86da                	mv	a3,s6
    80001600:	8656                	mv	a2,s5
    80001602:	85d2                	mv	a1,s4
    80001604:	854e                	mv	a0,s3
    80001606:	a25ff0ef          	jal	8000102a <lfs_cache_read>
    8000160a:	e919                	bnez	a0,80001620 <lfs_cache_cmp+0x5a>
    8000160c:	00044703          	lbu	a4,0(s0)
    80001610:	00f14783          	lbu	a5,15(sp)
    80001614:	00f71663          	bne	a4,a5,80001620 <lfs_cache_cmp+0x5a>
    80001618:	0405                	add	s0,s0,1
    8000161a:	fc941de3          	bne	s0,s1,800015f4 <lfs_cache_cmp+0x2e>
    8000161e:	4505                	li	a0,1
    80001620:	60a6                	ld	ra,72(sp)
    80001622:	6406                	ld	s0,64(sp)
    80001624:	74e2                	ld	s1,56(sp)
    80001626:	7942                	ld	s2,48(sp)
    80001628:	79a2                	ld	s3,40(sp)
    8000162a:	7a02                	ld	s4,32(sp)
    8000162c:	6ae2                	ld	s5,24(sp)
    8000162e:	6b42                	ld	s6,16(sp)
    80001630:	6161                	add	sp,sp,80
    80001632:	8082                	ret
    80001634:	4505                	li	a0,1
    80001636:	8082                	ret

0000000080001638 <lfs_dir_find>:
    80001638:	7175                	add	sp,sp,-144
    8000163a:	e506                	sd	ra,136(sp)
    8000163c:	e122                	sd	s0,128(sp)
    8000163e:	fca6                	sd	s1,120(sp)
    80001640:	f8ca                	sd	s2,112(sp)
    80001642:	f4ce                	sd	s3,104(sp)
    80001644:	f0d2                	sd	s4,96(sp)
    80001646:	ecd6                	sd	s5,88(sp)
    80001648:	e8da                	sd	s6,80(sp)
    8000164a:	e4de                	sd	s7,72(sp)
    8000164c:	e0e2                	sd	s8,64(sp)
    8000164e:	fc66                	sd	s9,56(sp)
    80001650:	f86a                	sd	s10,48(sp)
    80001652:	f46e                	sd	s11,40(sp)
    80001654:	8a2a                	mv	s4,a0
    80001656:	8aae                	mv	s5,a1
    80001658:	8932                	mv	s2,a2
    8000165a:	e836                	sd	a3,16(sp)
    8000165c:	0006bd03          	ld	s10,0(a3)
    80001660:	02200793          	li	a5,34
    80001664:	00f60223          	sb	a5,4(a2)
    80001668:	47a1                	li	a5,8
    8000166a:	00f602a3          	sb	a5,5(a2)
    8000166e:	00060323          	sb	zero,6(a2)
    80001672:	000603a3          	sb	zero,7(a2)
    80001676:	451c                	lw	a5,8(a0)
    80001678:	c61c                	sw	a5,8(a2)
    8000167a:	455c                	lw	a5,12(a0)
    8000167c:	c65c                	sw	a5,12(a2)
    8000167e:	4d85                	li	s11,1
    80001680:	00860793          	add	a5,a2,8
    80001684:	ec3e                	sd	a5,24(sp)
    80001686:	4c45                	li	s8,17
    80001688:	02050793          	add	a5,a0,32
    8000168c:	e43e                	sd	a5,8(sp)
    8000168e:	00004597          	auipc	a1,0x4
    80001692:	9a258593          	add	a1,a1,-1630 # 80005030 <rtable.0+0x40>
    80001696:	856a                	mv	a0,s10
    80001698:	7bc030ef          	jal	80004e54 <strspn>
    8000169c:	00ad0cb3          	add	s9,s10,a0
    800016a0:	00004597          	auipc	a1,0x4
    800016a4:	99058593          	add	a1,a1,-1648 # 80005030 <rtable.0+0x40>
    800016a8:	8566                	mv	a0,s9
    800016aa:	6ca030ef          	jal	80004d74 <strcspn>
    800016ae:	8baa                	mv	s7,a0
    800016b0:	01b50b63          	beq	a0,s11,800016c6 <lfs_dir_find+0x8e>
    800016b4:	4789                	li	a5,2
    800016b6:	00f50f63          	beq	a0,a5,800016d4 <lfs_dir_find+0x9c>
    800016ba:	017c8d33          	add	s10,s9,s7
    800016be:	84ea                	mv	s1,s10
    800016c0:	89ee                	mv	s3,s11
    800016c2:	4b09                	li	s6,2
    800016c4:	a035                	j	800016f0 <lfs_dir_find+0xb8>
    800016c6:	000cc703          	lbu	a4,0(s9)
    800016ca:	02e00793          	li	a5,46
    800016ce:	fef716e3          	bne	a4,a5,800016ba <lfs_dir_find+0x82>
    800016d2:	a811                	j	800016e6 <lfs_dir_find+0xae>
    800016d4:	4609                	li	a2,2
    800016d6:	00004597          	auipc	a1,0x4
    800016da:	96258593          	add	a1,a1,-1694 # 80005038 <rtable.0+0x48>
    800016de:	8566                	mv	a0,s9
    800016e0:	468030ef          	jal	80004b48 <memcmp>
    800016e4:	f979                	bnez	a0,800016ba <lfs_dir_find+0x82>
    800016e6:	017c8d33          	add	s10,s9,s7
    800016ea:	b755                	j	8000168e <lfs_dir_find+0x56>
    800016ec:	2985                	addw	s3,s3,1
    800016ee:	94a2                	add	s1,s1,s0
    800016f0:	00004597          	auipc	a1,0x4
    800016f4:	94058593          	add	a1,a1,-1728 # 80005030 <rtable.0+0x40>
    800016f8:	8526                	mv	a0,s1
    800016fa:	75a030ef          	jal	80004e54 <strspn>
    800016fe:	94aa                	add	s1,s1,a0
    80001700:	00004597          	auipc	a1,0x4
    80001704:	93058593          	add	a1,a1,-1744 # 80005030 <rtable.0+0x40>
    80001708:	8526                	mv	a0,s1
    8000170a:	66a030ef          	jal	80004d74 <strcspn>
    8000170e:	842a                	mv	s0,a0
    80001710:	c115                	beqz	a0,80001734 <lfs_dir_find+0xfc>
    80001712:	fd651de3          	bne	a0,s6,800016ec <lfs_dir_find+0xb4>
    80001716:	865a                	mv	a2,s6
    80001718:	00004597          	auipc	a1,0x4
    8000171c:	92058593          	add	a1,a1,-1760 # 80005038 <rtable.0+0x48>
    80001720:	8526                	mv	a0,s1
    80001722:	426030ef          	jal	80004b48 <memcmp>
    80001726:	f179                	bnez	a0,800016ec <lfs_dir_find+0xb4>
    80001728:	39fd                	addw	s3,s3,-1
    8000172a:	fc0992e3          	bnez	s3,800016ee <lfs_dir_find+0xb6>
    8000172e:	00248d13          	add	s10,s1,2
    80001732:	bfb1                	j	8000168e <lfs_dir_find+0x56>
    80001734:	000cc783          	lbu	a5,0(s9)
    80001738:	c7cd                	beqz	a5,800017e2 <lfs_dir_find+0x1aa>
    8000173a:	67c2                	ld	a5,16(sp)
    8000173c:	0197b023          	sd	s9,0(a5)
    80001740:	00494703          	lbu	a4,4(s2)
    80001744:	02200793          	li	a5,34
    80001748:	0af71d63          	bne	a4,a5,80001802 <lfs_dir_find+0x1ca>
    8000174c:	6662                	ld	a2,24(sp)
    8000174e:	85d6                	mv	a1,s5
    80001750:	8552                	mv	a0,s4
    80001752:	a4dff0ef          	jal	8000119e <lfs_dir_fetch>
    80001756:	e559                	bnez	a0,800017e4 <lfs_dir_find+0x1ac>
    80001758:	000b849b          	sext.w	s1,s7
    8000175c:	02200413          	li	s0,34
    80001760:	a029                	j	8000176a <lfs_dir_find+0x132>
    80001762:	00794783          	lbu	a5,7(s2)
    80001766:	03778163          	beq	a5,s7,80001788 <lfs_dir_find+0x150>
    8000176a:	864a                	mv	a2,s2
    8000176c:	85d6                	mv	a1,s5
    8000176e:	8552                	mv	a0,s4
    80001770:	b8bff0ef          	jal	800012fa <lfs_dir_next>
    80001774:	e925                	bnez	a0,800017e4 <lfs_dir_find+0x1ac>
    80001776:	00494783          	lbu	a5,4(s2)
    8000177a:	07f7f793          	and	a5,a5,127
    8000177e:	ff8782e3          	beq	a5,s8,80001762 <lfs_dir_find+0x12a>
    80001782:	fe8780e3          	beq	a5,s0,80001762 <lfs_dir_find+0x12a>
    80001786:	b7d5                	j	8000176a <lfs_dir_find+0x132>
    80001788:	00092703          	lw	a4,0(s2)
    8000178c:	2711                	addw	a4,a4,4
    8000178e:	00594783          	lbu	a5,5(s2)
    80001792:	9f3d                	addw	a4,a4,a5
    80001794:	00694683          	lbu	a3,6(s2)
    80001798:	8826                	mv	a6,s1
    8000179a:	87e6                	mv	a5,s9
    8000179c:	9f35                	addw	a4,a4,a3
    8000179e:	008aa683          	lw	a3,8(s5)
    800017a2:	4601                	li	a2,0
    800017a4:	65a2                	ld	a1,8(sp)
    800017a6:	8552                	mv	a0,s4
    800017a8:	e1fff0ef          	jal	800015c6 <lfs_cache_cmp>
    800017ac:	02054c63          	bltz	a0,800017e4 <lfs_dir_find+0x1ac>
    800017b0:	dd4d                	beqz	a0,8000176a <lfs_dir_find+0x132>
    800017b2:	059a4783          	lbu	a5,89(s4) # ffffffff80000059 <_sp+0xfffffffef1000059>
    800017b6:	ec079ce3          	bnez	a5,8000168e <lfs_dir_find+0x56>
    800017ba:	00490783          	lb	a5,4(s2)
    800017be:	ec07d8e3          	bgez	a5,8000168e <lfs_dir_find+0x56>
    800017c2:	65e2                	ld	a1,24(sp)
    800017c4:	8552                	mv	a0,s4
    800017c6:	c15ff0ef          	jal	800013da <lfs_moved>
    800017ca:	e901                	bnez	a0,800017da <lfs_dir_find+0x1a2>
    800017cc:	00494783          	lbu	a5,4(s2)
    800017d0:	07f7f793          	and	a5,a5,127
    800017d4:	00f90223          	sb	a5,4(s2)
    800017d8:	bd5d                	j	8000168e <lfs_dir_find+0x56>
    800017da:	00054563          	bltz	a0,800017e4 <lfs_dir_find+0x1ac>
    800017de:	5579                	li	a0,-2
    800017e0:	a011                	j	800017e4 <lfs_dir_find+0x1ac>
    800017e2:	4501                	li	a0,0
    800017e4:	60aa                	ld	ra,136(sp)
    800017e6:	640a                	ld	s0,128(sp)
    800017e8:	74e6                	ld	s1,120(sp)
    800017ea:	7946                	ld	s2,112(sp)
    800017ec:	79a6                	ld	s3,104(sp)
    800017ee:	7a06                	ld	s4,96(sp)
    800017f0:	6ae6                	ld	s5,88(sp)
    800017f2:	6b46                	ld	s6,80(sp)
    800017f4:	6ba6                	ld	s7,72(sp)
    800017f6:	6c06                	ld	s8,64(sp)
    800017f8:	7ce2                	ld	s9,56(sp)
    800017fa:	7d42                	ld	s10,48(sp)
    800017fc:	7da2                	ld	s11,40(sp)
    800017fe:	6149                	add	sp,sp,144
    80001800:	8082                	ret
    80001802:	5531                	li	a0,-20
    80001804:	b7c5                	j	800017e4 <lfs_dir_find+0x1ac>

0000000080001806 <lfs_deinit>:
    80001806:	1141                	add	sp,sp,-16
    80001808:	e406                	sd	ra,8(sp)
    8000180a:	e022                	sd	s0,0(sp)
    8000180c:	842a                	mv	s0,a0
    8000180e:	611c                	ld	a5,0(a0)
    80001810:	63bc                	ld	a5,64(a5)
    80001812:	cb99                	beqz	a5,80001828 <lfs_deinit+0x22>
    80001814:	601c                	ld	a5,0(s0)
    80001816:	67bc                	ld	a5,72(a5)
    80001818:	cf81                	beqz	a5,80001830 <lfs_deinit+0x2a>
    8000181a:	601c                	ld	a5,0(s0)
    8000181c:	6bbc                	ld	a5,80(a5)
    8000181e:	cf89                	beqz	a5,80001838 <lfs_deinit+0x32>
    80001820:	60a2                	ld	ra,8(sp)
    80001822:	6402                	ld	s0,0(sp)
    80001824:	0141                	add	sp,sp,16
    80001826:	8082                	ret
    80001828:	7508                	ld	a0,40(a0)
    8000182a:	310030ef          	jal	80004b3a <free>
    8000182e:	b7dd                	j	80001814 <lfs_deinit+0xe>
    80001830:	7c08                	ld	a0,56(s0)
    80001832:	308030ef          	jal	80004b3a <free>
    80001836:	b7d5                	j	8000181a <lfs_deinit+0x14>
    80001838:	6828                	ld	a0,80(s0)
    8000183a:	300030ef          	jal	80004b3a <free>
    8000183e:	b7cd                	j	80001820 <lfs_deinit+0x1a>

0000000080001840 <lfs_ctz_index>:
    80001840:	0005a803          	lw	a6,0(a1)
    80001844:	611c                	ld	a5,0(a0)
    80001846:	5b98                	lw	a4,48(a5)
    80001848:	3761                	addw	a4,a4,-8
    8000184a:	0007079b          	sext.w	a5,a4
    8000184e:	0af86563          	bltu	a6,a5,800018f8 <lfs_ctz_index+0xb8>
    80001852:	02e857bb          	divuw	a5,a6,a4
    80001856:	37fd                	addw	a5,a5,-1
    80001858:	0017d69b          	srlw	a3,a5,0x1
    8000185c:	55555337          	lui	t1,0x55555
    80001860:	55530313          	add	t1,t1,1365 # 55555555 <_start-0x2aaaaaab>
    80001864:	0066f6b3          	and	a3,a3,t1
    80001868:	9f95                	subw	a5,a5,a3
    8000186a:	333336b7          	lui	a3,0x33333
    8000186e:	33368693          	add	a3,a3,819 # 33333333 <_start-0x4ccccccd>
    80001872:	00f6f633          	and	a2,a3,a5
    80001876:	0027d79b          	srlw	a5,a5,0x2
    8000187a:	8ff5                	and	a5,a5,a3
    8000187c:	9fb1                	addw	a5,a5,a2
    8000187e:	0047d61b          	srlw	a2,a5,0x4
    80001882:	9e3d                	addw	a2,a2,a5
    80001884:	0f0f18b7          	lui	a7,0xf0f1
    80001888:	f0f88893          	add	a7,a7,-241 # f0f0f0f <_start-0x70f0f0f1>
    8000188c:	01167633          	and	a2,a2,a7
    80001890:	0086179b          	sllw	a5,a2,0x8
    80001894:	9fb1                	addw	a5,a5,a2
    80001896:	0107961b          	sllw	a2,a5,0x10
    8000189a:	00c7853b          	addw	a0,a5,a2
    8000189e:	0185551b          	srlw	a0,a0,0x18
    800018a2:	2509                	addw	a0,a0,2
    800018a4:	0025151b          	sllw	a0,a0,0x2
    800018a8:	40a8053b          	subw	a0,a6,a0
    800018ac:	02e5553b          	divuw	a0,a0,a4
    800018b0:	0015561b          	srlw	a2,a0,0x1
    800018b4:	00667633          	and	a2,a2,t1
    800018b8:	40c5063b          	subw	a2,a0,a2
    800018bc:	00c6f7b3          	and	a5,a3,a2
    800018c0:	0026561b          	srlw	a2,a2,0x2
    800018c4:	8ef1                	and	a3,a3,a2
    800018c6:	9fb5                	addw	a5,a5,a3
    800018c8:	02a7073b          	mulw	a4,a4,a0
    800018cc:	40e8073b          	subw	a4,a6,a4
    800018d0:	0047d69b          	srlw	a3,a5,0x4
    800018d4:	9ebd                	addw	a3,a3,a5
    800018d6:	0116f6b3          	and	a3,a3,a7
    800018da:	0086979b          	sllw	a5,a3,0x8
    800018de:	9fb5                	addw	a5,a5,a3
    800018e0:	0107969b          	sllw	a3,a5,0x10
    800018e4:	9fb5                	addw	a5,a5,a3
    800018e6:	0187d79b          	srlw	a5,a5,0x18
    800018ea:	0027979b          	sllw	a5,a5,0x2
    800018ee:	40f707bb          	subw	a5,a4,a5
    800018f2:	c19c                	sw	a5,0(a1)
    800018f4:	2501                	sext.w	a0,a0
    800018f6:	8082                	ret
    800018f8:	4501                	li	a0,0
    800018fa:	8082                	ret

00000000800018fc <lfs_ctz_traverse>:
    800018fc:	e319                	bnez	a4,80001902 <lfs_ctz_traverse+0x6>
    800018fe:	4501                	li	a0,0
    80001900:	8082                	ret
    80001902:	711d                	add	sp,sp,-96
    80001904:	ec86                	sd	ra,88(sp)
    80001906:	e8a2                	sd	s0,80(sp)
    80001908:	e4a6                	sd	s1,72(sp)
    8000190a:	e0ca                	sd	s2,64(sp)
    8000190c:	fc4e                	sd	s3,56(sp)
    8000190e:	f852                	sd	s4,48(sp)
    80001910:	f456                	sd	s5,40(sp)
    80001912:	f05a                	sd	s6,32(sp)
    80001914:	ec5e                	sd	s7,24(sp)
    80001916:	e862                	sd	s8,16(sp)
    80001918:	89aa                	mv	s3,a0
    8000191a:	8a2e                	mv	s4,a1
    8000191c:	8ab2                	mv	s5,a2
    8000191e:	8c36                	mv	s8,a3
    80001920:	843e                	mv	s0,a5
    80001922:	84c2                	mv	s1,a6
    80001924:	377d                	addw	a4,a4,-1
    80001926:	c63a                	sw	a4,12(sp)
    80001928:	006c                	add	a1,sp,12
    8000192a:	f17ff0ef          	jal	80001840 <lfs_ctz_index>
    8000192e:	0005091b          	sext.w	s2,a0
    80001932:	4b89                	li	s7,2
    80001934:	85e2                	mv	a1,s8
    80001936:	8526                	mv	a0,s1
    80001938:	9402                	jalr	s0
    8000193a:	e555                	bnez	a0,800019e6 <lfs_ctz_traverse+0xea>
    8000193c:	0a090563          	beqz	s2,800019e6 <lfs_ctz_traverse+0xea>
    80001940:	00197b13          	and	s6,s2,1
    80001944:	416b883b          	subw	a6,s7,s6
    80001948:	0028181b          	sllw	a6,a6,0x2
    8000194c:	878a                	mv	a5,sp
    8000194e:	4701                	li	a4,0
    80001950:	86e2                	mv	a3,s8
    80001952:	8656                	mv	a2,s5
    80001954:	85d2                	mv	a1,s4
    80001956:	854e                	mv	a0,s3
    80001958:	ed2ff0ef          	jal	8000102a <lfs_cache_read>
    8000195c:	4782                	lw	a5,0(sp)
    8000195e:	0087d713          	srl	a4,a5,0x8
    80001962:	0ff77713          	zext.b	a4,a4
    80001966:	0087171b          	sllw	a4,a4,0x8
    8000196a:	0107d693          	srl	a3,a5,0x10
    8000196e:	0ff6f693          	zext.b	a3,a3
    80001972:	0106969b          	sllw	a3,a3,0x10
    80001976:	8f55                	or	a4,a4,a3
    80001978:	0ff7f693          	zext.b	a3,a5
    8000197c:	8f55                	or	a4,a4,a3
    8000197e:	0187d79b          	srlw	a5,a5,0x18
    80001982:	0187979b          	sllw	a5,a5,0x18
    80001986:	8f5d                	or	a4,a4,a5
    80001988:	0007059b          	sext.w	a1,a4
    8000198c:	c02e                	sw	a1,0(sp)
    8000198e:	4712                	lw	a4,4(sp)
    80001990:	00875793          	srl	a5,a4,0x8
    80001994:	0ff7f793          	zext.b	a5,a5
    80001998:	0087979b          	sllw	a5,a5,0x8
    8000199c:	01075693          	srl	a3,a4,0x10
    800019a0:	0ff6f693          	zext.b	a3,a3
    800019a4:	0106969b          	sllw	a3,a3,0x10
    800019a8:	8fd5                	or	a5,a5,a3
    800019aa:	0ff77693          	zext.b	a3,a4
    800019ae:	8fd5                	or	a5,a5,a3
    800019b0:	0187571b          	srlw	a4,a4,0x18
    800019b4:	0187171b          	sllw	a4,a4,0x18
    800019b8:	8fd9                	or	a5,a5,a4
    800019ba:	c23e                	sw	a5,4(sp)
    800019bc:	e50d                	bnez	a0,800019e6 <lfs_ctz_traverse+0xea>
    800019be:	fff94c13          	not	s8,s2
    800019c2:	001c7c13          	and	s8,s8,1
    800019c6:	01805563          	blez	s8,800019d0 <lfs_ctz_traverse+0xd4>
    800019ca:	8526                	mv	a0,s1
    800019cc:	9402                	jalr	s0
    800019ce:	ed01                	bnez	a0,800019e6 <lfs_ctz_traverse+0xea>
    800019d0:	0c0a                	sll	s8,s8,0x2
    800019d2:	010c0793          	add	a5,s8,16
    800019d6:	00278c33          	add	s8,a5,sp
    800019da:	ff0c2c03          	lw	s8,-16(s8)
    800019de:	3b79                	addw	s6,s6,-2
    800019e0:	012b093b          	addw	s2,s6,s2
    800019e4:	bf81                	j	80001934 <lfs_ctz_traverse+0x38>
    800019e6:	60e6                	ld	ra,88(sp)
    800019e8:	6446                	ld	s0,80(sp)
    800019ea:	64a6                	ld	s1,72(sp)
    800019ec:	6906                	ld	s2,64(sp)
    800019ee:	79e2                	ld	s3,56(sp)
    800019f0:	7a42                	ld	s4,48(sp)
    800019f2:	7aa2                	ld	s5,40(sp)
    800019f4:	7b02                	ld	s6,32(sp)
    800019f6:	6be2                	ld	s7,24(sp)
    800019f8:	6c42                	ld	s8,16(sp)
    800019fa:	6125                	add	sp,sp,96
    800019fc:	8082                	ret

00000000800019fe <lfs_init>:
    800019fe:	1101                	add	sp,sp,-32
    80001a00:	ec06                	sd	ra,24(sp)
    80001a02:	e822                	sd	s0,16(sp)
    80001a04:	e426                	sd	s1,8(sp)
    80001a06:	842a                	mv	s0,a0
    80001a08:	84ae                	mv	s1,a1
    80001a0a:	e10c                	sd	a1,0(a0)
    80001a0c:	61bc                	ld	a5,64(a1)
    80001a0e:	c7a1                	beqz	a5,80001a56 <lfs_init+0x58>
    80001a10:	f51c                	sd	a5,40(a0)
    80001a12:	64bc                	ld	a5,72(s1)
    80001a14:	cfa1                	beqz	a5,80001a6c <lfs_init+0x6e>
    80001a16:	fc1c                	sd	a5,56(s0)
    80001a18:	02c4e603          	lwu	a2,44(s1)
    80001a1c:	0ff00593          	li	a1,255
    80001a20:	7c08                	ld	a0,56(s0)
    80001a22:	9caff0ef          	jal	80000bec <memset>
    80001a26:	57fd                	li	a5,-1
    80001a28:	d81c                	sw	a5,48(s0)
    80001a2a:	d01c                	sw	a5,32(s0)
    80001a2c:	6018                	ld	a4,0(s0)
    80001a2e:	6b3c                	ld	a5,80(a4)
    80001a30:	c7a9                	beqz	a5,80001a7a <lfs_init+0x7c>
    80001a32:	e83c                	sd	a5,80(s0)
    80001a34:	57fd                	li	a5,-1
    80001a36:	c41c                	sw	a5,8(s0)
    80001a38:	c45c                	sw	a5,12(s0)
    80001a3a:	00043823          	sd	zero,16(s0)
    80001a3e:	00043c23          	sd	zero,24(s0)
    80001a42:	04040c23          	sb	zero,88(s0)
    80001a46:	04040ca3          	sb	zero,89(s0)
    80001a4a:	4501                	li	a0,0
    80001a4c:	60e2                	ld	ra,24(sp)
    80001a4e:	6442                	ld	s0,16(sp)
    80001a50:	64a2                	ld	s1,8(sp)
    80001a52:	6105                	add	sp,sp,32
    80001a54:	8082                	ret
    80001a56:	0285e503          	lwu	a0,40(a1)
    80001a5a:	0d2030ef          	jal	80004b2c <malloc>
    80001a5e:	f408                	sd	a0,40(s0)
    80001a60:	f94d                	bnez	a0,80001a12 <lfs_init+0x14>
    80001a62:	8522                	mv	a0,s0
    80001a64:	da3ff0ef          	jal	80001806 <lfs_deinit>
    80001a68:	5551                	li	a0,-12
    80001a6a:	b7cd                	j	80001a4c <lfs_init+0x4e>
    80001a6c:	02c4e503          	lwu	a0,44(s1)
    80001a70:	0bc030ef          	jal	80004b2c <malloc>
    80001a74:	fc08                	sd	a0,56(s0)
    80001a76:	f14d                	bnez	a0,80001a18 <lfs_init+0x1a>
    80001a78:	b7ed                	j	80001a62 <lfs_init+0x64>
    80001a7a:	5f08                	lw	a0,56(a4)
    80001a7c:	0035551b          	srlw	a0,a0,0x3
    80001a80:	0ac030ef          	jal	80004b2c <malloc>
    80001a84:	e828                	sd	a0,80(s0)
    80001a86:	f55d                	bnez	a0,80001a34 <lfs_init+0x36>
    80001a88:	bfe9                	j	80001a62 <lfs_init+0x64>

0000000080001a8a <lfs_ctz_find>:
    80001a8a:	7175                	add	sp,sp,-144
    80001a8c:	e506                	sd	ra,136(sp)
    80001a8e:	e122                	sd	s0,128(sp)
    80001a90:	fca6                	sd	s1,120(sp)
    80001a92:	f8ca                	sd	s2,112(sp)
    80001a94:	f4ce                	sd	s3,104(sp)
    80001a96:	f0d2                	sd	s4,96(sp)
    80001a98:	ecd6                	sd	s5,88(sp)
    80001a9a:	e8da                	sd	s6,80(sp)
    80001a9c:	e4de                	sd	s7,72(sp)
    80001a9e:	e0e2                	sd	s8,64(sp)
    80001aa0:	fc66                	sd	s9,56(sp)
    80001aa2:	f86a                	sd	s10,48(sp)
    80001aa4:	f46e                	sd	s11,40(sp)
    80001aa6:	e02a                	sd	a0,0(sp)
    80001aa8:	8dc2                	mv	s11,a6
    80001aaa:	8d46                	mv	s10,a7
    80001aac:	c636                	sw	a3,12(sp)
    80001aae:	c43e                	sw	a5,8(sp)
    80001ab0:	e715                	bnez	a4,80001adc <lfs_ctz_find+0x52>
    80001ab2:	57fd                	li	a5,-1
    80001ab4:	00f82023          	sw	a5,0(a6)
    80001ab8:	0008a023          	sw	zero,0(a7)
    80001abc:	4501                	li	a0,0
    80001abe:	60aa                	ld	ra,136(sp)
    80001ac0:	640a                	ld	s0,128(sp)
    80001ac2:	74e6                	ld	s1,120(sp)
    80001ac4:	7946                	ld	s2,112(sp)
    80001ac6:	79a6                	ld	s3,104(sp)
    80001ac8:	7a06                	ld	s4,96(sp)
    80001aca:	6ae6                	ld	s5,88(sp)
    80001acc:	6b46                	ld	s6,80(sp)
    80001ace:	6ba6                	ld	s7,72(sp)
    80001ad0:	6c06                	ld	s8,64(sp)
    80001ad2:	7ce2                	ld	s9,56(sp)
    80001ad4:	7d42                	ld	s10,48(sp)
    80001ad6:	7da2                	ld	s11,40(sp)
    80001ad8:	6149                	add	sp,sp,144
    80001ada:	8082                	ret
    80001adc:	8bae                	mv	s7,a1
    80001ade:	8c32                	mv	s8,a2
    80001ae0:	377d                	addw	a4,a4,-1
    80001ae2:	ce3a                	sw	a4,28(sp)
    80001ae4:	086c                	add	a1,sp,28
    80001ae6:	6482                	ld	s1,0(sp)
    80001ae8:	8526                	mv	a0,s1
    80001aea:	d57ff0ef          	jal	80001840 <lfs_ctz_index>
    80001aee:	0005041b          	sext.w	s0,a0
    80001af2:	002c                	add	a1,sp,8
    80001af4:	8526                	mv	a0,s1
    80001af6:	d4bff0ef          	jal	80001840 <lfs_ctz_index>
    80001afa:	0005091b          	sext.w	s2,a0
    80001afe:	12897163          	bgeu	s2,s0,80001c20 <lfs_ctz_find+0x196>
    80001b02:	69c1                	lui	s3,0x10
    80001b04:	19fd                	add	s3,s3,-1 # ffff <_start-0x7fff0001>
    80001b06:	0ff00b13          	li	s6,255
    80001b0a:	4abd                	li	s5,15
    80001b0c:	4a0d                	li	s4,3
    80001b0e:	4c85                	li	s9,1
    80001b10:	a891                	j	80001b64 <lfs_ctz_find+0xda>
    80001b12:	0007049b          	sext.w	s1,a4
    80001b16:	4811                	li	a6,4
    80001b18:	007c                	add	a5,sp,12
    80001b1a:	0027171b          	sllw	a4,a4,0x2
    80001b1e:	46b2                	lw	a3,12(sp)
    80001b20:	8662                	mv	a2,s8
    80001b22:	85de                	mv	a1,s7
    80001b24:	6502                	ld	a0,0(sp)
    80001b26:	d04ff0ef          	jal	8000102a <lfs_cache_read>
    80001b2a:	4732                	lw	a4,12(sp)
    80001b2c:	00875793          	srl	a5,a4,0x8
    80001b30:	0ff7f793          	zext.b	a5,a5
    80001b34:	0087979b          	sllw	a5,a5,0x8
    80001b38:	01075693          	srl	a3,a4,0x10
    80001b3c:	0ff6f693          	zext.b	a3,a3
    80001b40:	0106969b          	sllw	a3,a3,0x10
    80001b44:	8fd5                	or	a5,a5,a3
    80001b46:	0ff77693          	zext.b	a3,a4
    80001b4a:	8fd5                	or	a5,a5,a3
    80001b4c:	0187571b          	srlw	a4,a4,0x18
    80001b50:	0187171b          	sllw	a4,a4,0x18
    80001b54:	8fd9                	or	a5,a5,a4
    80001b56:	c63e                	sw	a5,12(sp)
    80001b58:	f13d                	bnez	a0,80001abe <lfs_ctz_find+0x34>
    80001b5a:	009c94bb          	sllw	s1,s9,s1
    80001b5e:	9c05                	subw	s0,s0,s1
    80001b60:	0c897063          	bgeu	s2,s0,80001c20 <lfs_ctz_find+0x196>
    80001b64:	4124063b          	subw	a2,s0,s2
    80001b68:	0006069b          	sext.w	a3,a2
    80001b6c:	00d9b6b3          	sltu	a3,s3,a3
    80001b70:	0046969b          	sllw	a3,a3,0x4
    80001b74:	00d6563b          	srlw	a2,a2,a3
    80001b78:	0006079b          	sext.w	a5,a2
    80001b7c:	00fb37b3          	sltu	a5,s6,a5
    80001b80:	0037979b          	sllw	a5,a5,0x3
    80001b84:	00f6563b          	srlw	a2,a2,a5
    80001b88:	0006071b          	sext.w	a4,a2
    80001b8c:	8fd5                	or	a5,a5,a3
    80001b8e:	2781                	sext.w	a5,a5
    80001b90:	00eab733          	sltu	a4,s5,a4
    80001b94:	0027171b          	sllw	a4,a4,0x2
    80001b98:	00e6563b          	srlw	a2,a2,a4
    80001b9c:	0006059b          	sext.w	a1,a2
    80001ba0:	8fd9                	or	a5,a5,a4
    80001ba2:	0007869b          	sext.w	a3,a5
    80001ba6:	00ba35b3          	sltu	a1,s4,a1
    80001baa:	0015959b          	sllw	a1,a1,0x1
    80001bae:	408007bb          	negw	a5,s0
    80001bb2:	8fe1                	and	a5,a5,s0
    80001bb4:	2781                	sext.w	a5,a5
    80001bb6:	00f9b533          	sltu	a0,s3,a5
    80001bba:	0045151b          	sllw	a0,a0,0x4
    80001bbe:	00a7d7bb          	srlw	a5,a5,a0
    80001bc2:	0007871b          	sext.w	a4,a5
    80001bc6:	00eb3733          	sltu	a4,s6,a4
    80001bca:	0037171b          	sllw	a4,a4,0x3
    80001bce:	00e7d7bb          	srlw	a5,a5,a4
    80001bd2:	0007881b          	sext.w	a6,a5
    80001bd6:	8f49                	or	a4,a4,a0
    80001bd8:	2701                	sext.w	a4,a4
    80001bda:	010ab833          	sltu	a6,s5,a6
    80001bde:	0028181b          	sllw	a6,a6,0x2
    80001be2:	0107d7bb          	srlw	a5,a5,a6
    80001be6:	0007851b          	sext.w	a0,a5
    80001bea:	01076733          	or	a4,a4,a6
    80001bee:	2701                	sext.w	a4,a4
    80001bf0:	00aa3533          	sltu	a0,s4,a0
    80001bf4:	0015151b          	sllw	a0,a0,0x1
    80001bf8:	00b6563b          	srlw	a2,a2,a1
    80001bfc:	0016561b          	srlw	a2,a2,0x1
    80001c00:	8ecd                	or	a3,a3,a1
    80001c02:	8ed1                	or	a3,a3,a2
    80001c04:	00a7d7bb          	srlw	a5,a5,a0
    80001c08:	0017d79b          	srlw	a5,a5,0x1
    80001c0c:	8f49                	or	a4,a4,a0
    80001c0e:	8fd9                	or	a5,a5,a4
    80001c10:	8736                	mv	a4,a3
    80001c12:	2681                	sext.w	a3,a3
    80001c14:	0007861b          	sext.w	a2,a5
    80001c18:	eed67de3          	bgeu	a2,a3,80001b12 <lfs_ctz_find+0x88>
    80001c1c:	873e                	mv	a4,a5
    80001c1e:	bdd5                	j	80001b12 <lfs_ctz_find+0x88>
    80001c20:	47b2                	lw	a5,12(sp)
    80001c22:	00fda023          	sw	a5,0(s11)
    80001c26:	47a2                	lw	a5,8(sp)
    80001c28:	00fd2023          	sw	a5,0(s10)
    80001c2c:	4501                	li	a0,0
    80001c2e:	bd41                	j	80001abe <lfs_ctz_find+0x34>

0000000080001c30 <lfs_cache_flush>:
    80001c30:	7179                	add	sp,sp,-48
    80001c32:	f406                	sd	ra,40(sp)
    80001c34:	f022                	sd	s0,32(sp)
    80001c36:	ec26                	sd	s1,24(sp)
    80001c38:	e84a                	sd	s2,16(sp)
    80001c3a:	e44e                	sd	s3,8(sp)
    80001c3c:	842e                	mv	s0,a1
    80001c3e:	418c                	lw	a1,0(a1)
    80001c40:	57fd                	li	a5,-1
    80001c42:	06f58063          	beq	a1,a5,80001ca2 <lfs_cache_flush+0x72>
    80001c46:	89aa                	mv	s3,a0
    80001c48:	8932                	mv	s2,a2
    80001c4a:	6108                	ld	a0,0(a0)
    80001c4c:	691c                	ld	a5,16(a0)
    80001c4e:	5558                	lw	a4,44(a0)
    80001c50:	6414                	ld	a3,8(s0)
    80001c52:	4050                	lw	a2,4(s0)
    80001c54:	9782                	jalr	a5
    80001c56:	84aa                	mv	s1,a0
    80001c58:	ed0d                	bnez	a0,80001c92 <lfs_cache_flush+0x62>
    80001c5a:	02090163          	beqz	s2,80001c7c <lfs_cache_flush+0x4c>
    80001c5e:	0009b783          	ld	a5,0(s3)
    80001c62:	02c7a803          	lw	a6,44(a5)
    80001c66:	641c                	ld	a5,8(s0)
    80001c68:	4058                	lw	a4,4(s0)
    80001c6a:	4014                	lw	a3,0(s0)
    80001c6c:	4601                	li	a2,0
    80001c6e:	85ca                	mv	a1,s2
    80001c70:	854e                	mv	a0,s3
    80001c72:	955ff0ef          	jal	800015c6 <lfs_cache_cmp>
    80001c76:	02054863          	bltz	a0,80001ca6 <lfs_cache_flush+0x76>
    80001c7a:	c905                	beqz	a0,80001caa <lfs_cache_flush+0x7a>
    80001c7c:	0009b783          	ld	a5,0(s3)
    80001c80:	02c7e603          	lwu	a2,44(a5)
    80001c84:	0ff00593          	li	a1,255
    80001c88:	6408                	ld	a0,8(s0)
    80001c8a:	f63fe0ef          	jal	80000bec <memset>
    80001c8e:	57fd                	li	a5,-1
    80001c90:	c01c                	sw	a5,0(s0)
    80001c92:	8526                	mv	a0,s1
    80001c94:	70a2                	ld	ra,40(sp)
    80001c96:	7402                	ld	s0,32(sp)
    80001c98:	64e2                	ld	s1,24(sp)
    80001c9a:	6942                	ld	s2,16(sp)
    80001c9c:	69a2                	ld	s3,8(sp)
    80001c9e:	6145                	add	sp,sp,48
    80001ca0:	8082                	ret
    80001ca2:	4481                	li	s1,0
    80001ca4:	b7fd                	j	80001c92 <lfs_cache_flush+0x62>
    80001ca6:	84aa                	mv	s1,a0
    80001ca8:	b7ed                	j	80001c92 <lfs_cache_flush+0x62>
    80001caa:	fcc00493          	li	s1,-52
    80001cae:	b7d5                	j	80001c92 <lfs_cache_flush+0x62>

0000000080001cb0 <lfs_cache_prog>:
    80001cb0:	715d                	add	sp,sp,-80
    80001cb2:	e486                	sd	ra,72(sp)
    80001cb4:	e0a2                	sd	s0,64(sp)
    80001cb6:	fc26                	sd	s1,56(sp)
    80001cb8:	f84a                	sd	s2,48(sp)
    80001cba:	f44e                	sd	s3,40(sp)
    80001cbc:	f052                	sd	s4,32(sp)
    80001cbe:	ec56                	sd	s5,24(sp)
    80001cc0:	e85a                	sd	s6,16(sp)
    80001cc2:	e45e                	sd	s7,8(sp)
    80001cc4:	e062                	sd	s8,0(sp)
    80001cc6:	8a2a                	mv	s4,a0
    80001cc8:	892e                	mv	s2,a1
    80001cca:	8b32                	mv	s6,a2
    80001ccc:	89b6                	mv	s3,a3
    80001cce:	84ba                	mv	s1,a4
    80001cd0:	8abe                	mv	s5,a5
    80001cd2:	8442                	mv	s0,a6
    80001cd4:	08081663          	bnez	a6,80001d60 <lfs_cache_prog+0xb0>
    80001cd8:	4501                	li	a0,0
    80001cda:	a0ed                	j	80001dc4 <lfs_cache_prog+0x114>
    80001cdc:	00492783          	lw	a5,4(s2)
    80001ce0:	08f4e463          	bltu	s1,a5,80001d68 <lfs_cache_prog+0xb8>
    80001ce4:	000a3703          	ld	a4,0(s4)
    80001ce8:	5758                	lw	a4,44(a4)
    80001cea:	9f3d                	addw	a4,a4,a5
    80001cec:	0007069b          	sext.w	a3,a4
    80001cf0:	06d4fc63          	bgeu	s1,a3,80001d68 <lfs_cache_prog+0xb8>
    80001cf4:	9f05                	subw	a4,a4,s1
    80001cf6:	8bba                	mv	s7,a4
    80001cf8:	2701                	sext.w	a4,a4
    80001cfa:	00e47363          	bgeu	s0,a4,80001d00 <lfs_cache_prog+0x50>
    80001cfe:	8ba2                	mv	s7,s0
    80001d00:	020b9c13          	sll	s8,s7,0x20
    80001d04:	020c5c13          	srl	s8,s8,0x20
    80001d08:	40f487bb          	subw	a5,s1,a5
    80001d0c:	1782                	sll	a5,a5,0x20
    80001d0e:	9381                	srl	a5,a5,0x20
    80001d10:	00893503          	ld	a0,8(s2)
    80001d14:	8662                	mv	a2,s8
    80001d16:	85d6                	mv	a1,s5
    80001d18:	953e                	add	a0,a0,a5
    80001d1a:	681020ef          	jal	80004b9a <memcpy>
    80001d1e:	9ae2                	add	s5,s5,s8
    80001d20:	009b87bb          	addw	a5,s7,s1
    80001d24:	0007849b          	sext.w	s1,a5
    80001d28:	4174043b          	subw	s0,s0,s7
    80001d2c:	000a3703          	ld	a4,0(s4)
    80001d30:	5758                	lw	a4,44(a4)
    80001d32:	02e7f7bb          	remuw	a5,a5,a4
    80001d36:	e785                	bnez	a5,80001d5e <lfs_cache_prog+0xae>
    80001d38:	865a                	mv	a2,s6
    80001d3a:	85ca                	mv	a1,s2
    80001d3c:	8552                	mv	a0,s4
    80001d3e:	ef3ff0ef          	jal	80001c30 <lfs_cache_flush>
    80001d42:	e149                	bnez	a0,80001dc4 <lfs_cache_prog+0x114>
    80001d44:	a829                	j	80001d5e <lfs_cache_prog+0xae>
    80001d46:	01392023          	sw	s3,0(s2)
    80001d4a:	000a3783          	ld	a5,0(s4)
    80001d4e:	02c7a883          	lw	a7,44(a5)
    80001d52:	0314f8bb          	remuw	a7,s1,a7
    80001d56:	411488bb          	subw	a7,s1,a7
    80001d5a:	01192223          	sw	a7,4(s2)
    80001d5e:	c035                	beqz	s0,80001dc2 <lfs_cache_prog+0x112>
    80001d60:	00092783          	lw	a5,0(s2)
    80001d64:	f7378ce3          	beq	a5,s3,80001cdc <lfs_cache_prog+0x2c>
    80001d68:	000a3503          	ld	a0,0(s4)
    80001d6c:	02c52883          	lw	a7,44(a0)
    80001d70:	0314f7bb          	remuw	a5,s1,a7
    80001d74:	fbe9                	bnez	a5,80001d46 <lfs_cache_prog+0x96>
    80001d76:	fd1468e3          	bltu	s0,a7,80001d46 <lfs_cache_prog+0x96>
    80001d7a:	031478bb          	remuw	a7,s0,a7
    80001d7e:	00088b9b          	sext.w	s7,a7
    80001d82:	4114043b          	subw	s0,s0,a7
    80001d86:	00040c1b          	sext.w	s8,s0
    80001d8a:	691c                	ld	a5,16(a0)
    80001d8c:	8762                	mv	a4,s8
    80001d8e:	86d6                	mv	a3,s5
    80001d90:	8626                	mv	a2,s1
    80001d92:	85ce                	mv	a1,s3
    80001d94:	9782                	jalr	a5
    80001d96:	e51d                	bnez	a0,80001dc4 <lfs_cache_prog+0x114>
    80001d98:	000b0e63          	beqz	s6,80001db4 <lfs_cache_prog+0x104>
    80001d9c:	8862                	mv	a6,s8
    80001d9e:	87d6                	mv	a5,s5
    80001da0:	8726                	mv	a4,s1
    80001da2:	86ce                	mv	a3,s3
    80001da4:	4601                	li	a2,0
    80001da6:	85da                	mv	a1,s6
    80001da8:	8552                	mv	a0,s4
    80001daa:	81dff0ef          	jal	800015c6 <lfs_cache_cmp>
    80001dae:	00054b63          	bltz	a0,80001dc4 <lfs_cache_prog+0x114>
    80001db2:	c50d                	beqz	a0,80001ddc <lfs_cache_prog+0x12c>
    80001db4:	02041793          	sll	a5,s0,0x20
    80001db8:	9381                	srl	a5,a5,0x20
    80001dba:	9abe                	add	s5,s5,a5
    80001dbc:	9ca1                	addw	s1,s1,s0
    80001dbe:	845e                	mv	s0,s7
    80001dc0:	bf79                	j	80001d5e <lfs_cache_prog+0xae>
    80001dc2:	4501                	li	a0,0
    80001dc4:	60a6                	ld	ra,72(sp)
    80001dc6:	6406                	ld	s0,64(sp)
    80001dc8:	74e2                	ld	s1,56(sp)
    80001dca:	7942                	ld	s2,48(sp)
    80001dcc:	79a2                	ld	s3,40(sp)
    80001dce:	7a02                	ld	s4,32(sp)
    80001dd0:	6ae2                	ld	s5,24(sp)
    80001dd2:	6b42                	ld	s6,16(sp)
    80001dd4:	6ba2                	ld	s7,8(sp)
    80001dd6:	6c02                	ld	s8,0(sp)
    80001dd8:	6161                	add	sp,sp,80
    80001dda:	8082                	ret
    80001ddc:	fcc00513          	li	a0,-52
    80001de0:	b7d5                	j	80001dc4 <lfs_cache_prog+0x114>

0000000080001de2 <lfs_dir_open>:
    80001de2:	7139                	add	sp,sp,-64
    80001de4:	fc06                	sd	ra,56(sp)
    80001de6:	f822                	sd	s0,48(sp)
    80001de8:	f426                	sd	s1,40(sp)
    80001dea:	84aa                	mv	s1,a0
    80001dec:	842e                	mv	s0,a1
    80001dee:	e432                	sd	a2,8(sp)
    80001df0:	451c                	lw	a5,8(a0)
    80001df2:	c59c                	sw	a5,8(a1)
    80001df4:	455c                	lw	a5,12(a0)
    80001df6:	c5dc                	sw	a5,12(a1)
    80001df8:	0034                	add	a3,sp,8
    80001dfa:	0810                	add	a2,sp,16
    80001dfc:	83dff0ef          	jal	80001638 <lfs_dir_find>
    80001e00:	e905                	bnez	a0,80001e30 <lfs_dir_open+0x4e>
    80001e02:	01414703          	lbu	a4,20(sp)
    80001e06:	02200793          	li	a5,34
    80001e0a:	02f71863          	bne	a4,a5,80001e3a <lfs_dir_open+0x58>
    80001e0e:	0830                	add	a2,sp,24
    80001e10:	85a2                	mv	a1,s0
    80001e12:	8526                	mv	a0,s1
    80001e14:	b8aff0ef          	jal	8000119e <lfs_dir_fetch>
    80001e18:	ed01                	bnez	a0,80001e30 <lfs_dir_open+0x4e>
    80001e1a:	441c                	lw	a5,8(s0)
    80001e1c:	c85c                	sw	a5,20(s0)
    80001e1e:	445c                	lw	a5,12(s0)
    80001e20:	cc1c                	sw	a5,24(s0)
    80001e22:	47b9                	li	a5,14
    80001e24:	cc5c                	sw	a5,28(s0)
    80001e26:	47c1                	li	a5,16
    80001e28:	c81c                	sw	a5,16(s0)
    80001e2a:	6c9c                	ld	a5,24(s1)
    80001e2c:	e01c                	sd	a5,0(s0)
    80001e2e:	ec80                	sd	s0,24(s1)
    80001e30:	70e2                	ld	ra,56(sp)
    80001e32:	7442                	ld	s0,48(sp)
    80001e34:	74a2                	ld	s1,40(sp)
    80001e36:	6121                	add	sp,sp,64
    80001e38:	8082                	ret
    80001e3a:	5531                	li	a0,-20
    80001e3c:	bfd5                	j	80001e30 <lfs_dir_open+0x4e>

0000000080001e3e <lfs_dir_close>:
    80001e3e:	6d1c                	ld	a5,24(a0)
    80001e40:	cb91                	beqz	a5,80001e54 <lfs_dir_close+0x16>
    80001e42:	00f58b63          	beq	a1,a5,80001e58 <lfs_dir_close+0x1a>
    80001e46:	873e                	mv	a4,a5
    80001e48:	639c                	ld	a5,0(a5)
    80001e4a:	c789                	beqz	a5,80001e54 <lfs_dir_close+0x16>
    80001e4c:	fef59de3          	bne	a1,a5,80001e46 <lfs_dir_close+0x8>
    80001e50:	619c                	ld	a5,0(a1)
    80001e52:	e31c                	sd	a5,0(a4)
    80001e54:	4501                	li	a0,0
    80001e56:	8082                	ret
    80001e58:	01850713          	add	a4,a0,24
    80001e5c:	bfd5                	j	80001e50 <lfs_dir_close+0x12>

0000000080001e5e <lfs_dir_read>:
    80001e5e:	7139                	add	sp,sp,-64
    80001e60:	fc06                	sd	ra,56(sp)
    80001e62:	f822                	sd	s0,48(sp)
    80001e64:	f426                	sd	s1,40(sp)
    80001e66:	f04a                	sd	s2,32(sp)
    80001e68:	ec4e                	sd	s3,24(sp)
    80001e6a:	e852                	sd	s4,16(sp)
    80001e6c:	84aa                	mv	s1,a0
    80001e6e:	842e                	mv	s0,a1
    80001e70:	8932                	mv	s2,a2
    80001e72:	10800613          	li	a2,264
    80001e76:	4581                	li	a1,0
    80001e78:	854a                	mv	a0,s2
    80001e7a:	d73fe0ef          	jal	80000bec <memset>
    80001e7e:	4c5c                	lw	a5,28(s0)
    80001e80:	4739                	li	a4,14
    80001e82:	08e78a63          	beq	a5,a4,80001f16 <lfs_dir_read+0xb8>
    80001e86:	473d                	li	a4,15
    80001e88:	0ae78463          	beq	a5,a4,80001f30 <lfs_dir_read+0xd2>
    80001e8c:	49c5                	li	s3,17
    80001e8e:	02200a13          	li	s4,34
    80001e92:	860a                	mv	a2,sp
    80001e94:	85a2                	mv	a1,s0
    80001e96:	8526                	mv	a0,s1
    80001e98:	c62ff0ef          	jal	800012fa <lfs_dir_next>
    80001e9c:	e955                	bnez	a0,80001f50 <lfs_dir_read+0xf2>
    80001e9e:	00414783          	lbu	a5,4(sp)
    80001ea2:	07f7f713          	and	a4,a5,127
    80001ea6:	01370463          	beq	a4,s3,80001eae <lfs_dir_read+0x50>
    80001eaa:	ff4714e3          	bne	a4,s4,80001e92 <lfs_dir_read+0x34>
    80001eae:	0187979b          	sllw	a5,a5,0x18
    80001eb2:	4187d79b          	sraw	a5,a5,0x18
    80001eb6:	0007df63          	bgez	a5,80001ed4 <lfs_dir_read+0x76>
    80001eba:	002c                	add	a1,sp,8
    80001ebc:	8526                	mv	a0,s1
    80001ebe:	d1cff0ef          	jal	800013da <lfs_moved>
    80001ec2:	04054263          	bltz	a0,80001f06 <lfs_dir_read+0xa8>
    80001ec6:	f571                	bnez	a0,80001e92 <lfs_dir_read+0x34>
    80001ec8:	00414783          	lbu	a5,4(sp)
    80001ecc:	07f7f793          	and	a5,a5,127
    80001ed0:	00f10223          	sb	a5,4(sp)
    80001ed4:	00414783          	lbu	a5,4(sp)
    80001ed8:	00f90023          	sb	a5,0(s2)
    80001edc:	4745                	li	a4,17
    80001ede:	06e78e63          	beq	a5,a4,80001f5a <lfs_dir_read+0xfc>
    80001ee2:	4782                	lw	a5,0(sp)
    80001ee4:	2791                	addw	a5,a5,4
    80001ee6:	00514703          	lbu	a4,5(sp)
    80001eea:	9fb9                	addw	a5,a5,a4
    80001eec:	00614603          	lbu	a2,6(sp)
    80001ef0:	00714703          	lbu	a4,7(sp)
    80001ef4:	00890693          	add	a3,s2,8
    80001ef8:	9e3d                	addw	a2,a2,a5
    80001efa:	440c                	lw	a1,8(s0)
    80001efc:	8526                	mv	a0,s1
    80001efe:	a84ff0ef          	jal	80001182 <lfs_bd_read>
    80001f02:	e111                	bnez	a0,80001f06 <lfs_dir_read+0xa8>
    80001f04:	4505                	li	a0,1
    80001f06:	70e2                	ld	ra,56(sp)
    80001f08:	7442                	ld	s0,48(sp)
    80001f0a:	74a2                	ld	s1,40(sp)
    80001f0c:	7902                	ld	s2,32(sp)
    80001f0e:	69e2                	ld	s3,24(sp)
    80001f10:	6a42                	ld	s4,16(sp)
    80001f12:	6121                	add	sp,sp,64
    80001f14:	8082                	ret
    80001f16:	02200793          	li	a5,34
    80001f1a:	00f90023          	sb	a5,0(s2)
    80001f1e:	02e00793          	li	a5,46
    80001f22:	00f91423          	sh	a5,8(s2)
    80001f26:	4c5c                	lw	a5,28(s0)
    80001f28:	2785                	addw	a5,a5,1
    80001f2a:	cc5c                	sw	a5,28(s0)
    80001f2c:	4505                	li	a0,1
    80001f2e:	bfe1                	j	80001f06 <lfs_dir_read+0xa8>
    80001f30:	02200793          	li	a5,34
    80001f34:	00f90023          	sb	a5,0(s2)
    80001f38:	678d                	lui	a5,0x3
    80001f3a:	e2e78793          	add	a5,a5,-466 # 2e2e <_start-0x7fffd1d2>
    80001f3e:	00f91423          	sh	a5,8(s2)
    80001f42:	00090523          	sb	zero,10(s2)
    80001f46:	4c5c                	lw	a5,28(s0)
    80001f48:	2785                	addw	a5,a5,1
    80001f4a:	cc5c                	sw	a5,28(s0)
    80001f4c:	4505                	li	a0,1
    80001f4e:	bf65                	j	80001f06 <lfs_dir_read+0xa8>
    80001f50:	57f9                	li	a5,-2
    80001f52:	faf51ae3          	bne	a0,a5,80001f06 <lfs_dir_read+0xa8>
    80001f56:	4501                	li	a0,0
    80001f58:	b77d                	j	80001f06 <lfs_dir_read+0xa8>
    80001f5a:	47b2                	lw	a5,12(sp)
    80001f5c:	00f92223          	sw	a5,4(s2)
    80001f60:	b749                	j	80001ee2 <lfs_dir_read+0x84>

0000000080001f62 <lfs_dir_tell>:
    80001f62:	4dc8                	lw	a0,28(a1)
    80001f64:	8082                	ret

0000000080001f66 <lfs_dir_rewind>:
    80001f66:	1141                	add	sp,sp,-16
    80001f68:	e406                	sd	ra,8(sp)
    80001f6a:	e022                	sd	s0,0(sp)
    80001f6c:	842e                	mv	s0,a1
    80001f6e:	01458613          	add	a2,a1,20
    80001f72:	a2cff0ef          	jal	8000119e <lfs_dir_fetch>
    80001f76:	e909                	bnez	a0,80001f88 <lfs_dir_rewind+0x22>
    80001f78:	485c                	lw	a5,20(s0)
    80001f7a:	c41c                	sw	a5,8(s0)
    80001f7c:	4c1c                	lw	a5,24(s0)
    80001f7e:	c45c                	sw	a5,12(s0)
    80001f80:	47b9                	li	a5,14
    80001f82:	cc5c                	sw	a5,28(s0)
    80001f84:	47c1                	li	a5,16
    80001f86:	c81c                	sw	a5,16(s0)
    80001f88:	60a2                	ld	ra,8(sp)
    80001f8a:	6402                	ld	s0,0(sp)
    80001f8c:	0141                	add	sp,sp,16
    80001f8e:	8082                	ret

0000000080001f90 <lfs_dir_seek>:
    80001f90:	7139                	add	sp,sp,-64
    80001f92:	fc06                	sd	ra,56(sp)
    80001f94:	f822                	sd	s0,48(sp)
    80001f96:	f426                	sd	s1,40(sp)
    80001f98:	f04a                	sd	s2,32(sp)
    80001f9a:	ec4e                	sd	s3,24(sp)
    80001f9c:	e852                	sd	s4,16(sp)
    80001f9e:	e456                	sd	s5,8(sp)
    80001fa0:	892a                	mv	s2,a0
    80001fa2:	84ae                	mv	s1,a1
    80001fa4:	8432                	mv	s0,a2
    80001fa6:	fc1ff0ef          	jal	80001f66 <lfs_dir_rewind>
    80001faa:	8aaa                	mv	s5,a0
    80001fac:	e90d                	bnez	a0,80001fde <lfs_dir_seek+0x4e>
    80001fae:	ccc0                	sw	s0,28(s1)
    80001fb0:	800009b7          	lui	s3,0x80000
    80001fb4:	fff9c993          	not	s3,s3
    80001fb8:	02848a13          	add	s4,s1,40
    80001fbc:	50d8                	lw	a4,36(s1)
    80001fbe:	013777b3          	and	a5,a4,s3
    80001fc2:	0087fd63          	bgeu	a5,s0,80001fdc <lfs_dir_seek+0x4c>
    80001fc6:	9c1d                	subw	s0,s0,a5
    80001fc8:	02075563          	bgez	a4,80001ff2 <lfs_dir_seek+0x62>
    80001fcc:	8652                	mv	a2,s4
    80001fce:	85a6                	mv	a1,s1
    80001fd0:	854a                	mv	a0,s2
    80001fd2:	9ccff0ef          	jal	8000119e <lfs_dir_fetch>
    80001fd6:	d17d                	beqz	a0,80001fbc <lfs_dir_seek+0x2c>
    80001fd8:	8aaa                	mv	s5,a0
    80001fda:	a011                	j	80001fde <lfs_dir_seek+0x4e>
    80001fdc:	c880                	sw	s0,16(s1)
    80001fde:	8556                	mv	a0,s5
    80001fe0:	70e2                	ld	ra,56(sp)
    80001fe2:	7442                	ld	s0,48(sp)
    80001fe4:	74a2                	ld	s1,40(sp)
    80001fe6:	7902                	ld	s2,32(sp)
    80001fe8:	69e2                	ld	s3,24(sp)
    80001fea:	6a42                	ld	s4,16(sp)
    80001fec:	6aa2                	ld	s5,8(sp)
    80001fee:	6121                	add	sp,sp,64
    80001ff0:	8082                	ret
    80001ff2:	5aa9                	li	s5,-22
    80001ff4:	b7ed                	j	80001fde <lfs_dir_seek+0x4e>

0000000080001ff6 <lfs_file_tell>:
    80001ff6:	55c8                	lw	a0,44(a1)
    80001ff8:	8082                	ret

0000000080001ffa <lfs_file_size>:
    80001ffa:	559c                	lw	a5,40(a1)
    80001ffc:	83c5                	srl	a5,a5,0x11
    80001ffe:	8b85                	and	a5,a5,1
    80002000:	cb91                	beqz	a5,80002014 <lfs_file_size+0x1a>
    80002002:	4d98                	lw	a4,24(a1)
    80002004:	55dc                	lw	a5,44(a1)
    80002006:	853e                	mv	a0,a5
    80002008:	2781                	sext.w	a5,a5
    8000200a:	00e7f363          	bgeu	a5,a4,80002010 <lfs_file_size+0x16>
    8000200e:	853a                	mv	a0,a4
    80002010:	2501                	sext.w	a0,a0
    80002012:	8082                	ret
    80002014:	4d88                	lw	a0,24(a1)
    80002016:	8082                	ret

0000000080002018 <lfs_stat>:
    80002018:	7159                	add	sp,sp,-112
    8000201a:	f486                	sd	ra,104(sp)
    8000201c:	f0a2                	sd	s0,96(sp)
    8000201e:	eca6                	sd	s1,88(sp)
    80002020:	e8ca                	sd	s2,80(sp)
    80002022:	892a                	mv	s2,a0
    80002024:	e42e                	sd	a1,8(sp)
    80002026:	84b2                	mv	s1,a2
    80002028:	0034                	add	a3,sp,8
    8000202a:	0810                	add	a2,sp,16
    8000202c:	100c                	add	a1,sp,32
    8000202e:	e0aff0ef          	jal	80001638 <lfs_dir_find>
    80002032:	842a                	mv	s0,a0
    80002034:	c901                	beqz	a0,80002044 <lfs_stat+0x2c>
    80002036:	8522                	mv	a0,s0
    80002038:	70a6                	ld	ra,104(sp)
    8000203a:	7406                	ld	s0,96(sp)
    8000203c:	64e6                	ld	s1,88(sp)
    8000203e:	6946                	ld	s2,80(sp)
    80002040:	6165                	add	sp,sp,112
    80002042:	8082                	ret
    80002044:	10800613          	li	a2,264
    80002048:	4581                	li	a1,0
    8000204a:	8526                	mv	a0,s1
    8000204c:	ba1fe0ef          	jal	80000bec <memset>
    80002050:	01414783          	lbu	a5,20(sp)
    80002054:	00f48023          	sb	a5,0(s1)
    80002058:	4745                	li	a4,17
    8000205a:	04e78263          	beq	a5,a4,8000209e <lfs_stat+0x86>
    8000205e:	47e2                	lw	a5,24(sp)
    80002060:	00892703          	lw	a4,8(s2)
    80002064:	04e78063          	beq	a5,a4,800020a4 <lfs_stat+0x8c>
    80002068:	4672                	lw	a2,28(sp)
    8000206a:	00c92683          	lw	a3,12(s2)
    8000206e:	02d60b63          	beq	a2,a3,800020a4 <lfs_stat+0x8c>
    80002072:	02d78963          	beq	a5,a3,800020a4 <lfs_stat+0x8c>
    80002076:	02c70763          	beq	a4,a2,800020a4 <lfs_stat+0x8c>
    8000207a:	47c2                	lw	a5,16(sp)
    8000207c:	2791                	addw	a5,a5,4
    8000207e:	01514703          	lbu	a4,21(sp)
    80002082:	9fb9                	addw	a5,a5,a4
    80002084:	01614603          	lbu	a2,22(sp)
    80002088:	01714703          	lbu	a4,23(sp)
    8000208c:	00848693          	add	a3,s1,8
    80002090:	9e3d                	addw	a2,a2,a5
    80002092:	55a2                	lw	a1,40(sp)
    80002094:	854a                	mv	a0,s2
    80002096:	8ecff0ef          	jal	80001182 <lfs_bd_read>
    8000209a:	842a                	mv	s0,a0
    8000209c:	bf69                	j	80002036 <lfs_stat+0x1e>
    8000209e:	47f2                	lw	a5,28(sp)
    800020a0:	c0dc                	sw	a5,4(s1)
    800020a2:	bf75                	j	8000205e <lfs_stat+0x46>
    800020a4:	02f00793          	li	a5,47
    800020a8:	00f49423          	sh	a5,8(s1)
    800020ac:	b769                	j	80002036 <lfs_stat+0x1e>

00000000800020ae <lfs_mount>:
    800020ae:	7175                	add	sp,sp,-144
    800020b0:	e506                	sd	ra,136(sp)
    800020b2:	e122                	sd	s0,128(sp)
    800020b4:	fca6                	sd	s1,120(sp)
    800020b6:	f8ca                	sd	s2,112(sp)
    800020b8:	f4ce                	sd	s3,104(sp)
    800020ba:	892a                	mv	s2,a0
    800020bc:	943ff0ef          	jal	800019fe <lfs_init>
    800020c0:	842a                	mv	s0,a0
    800020c2:	c909                	beqz	a0,800020d4 <lfs_mount+0x26>
    800020c4:	8522                	mv	a0,s0
    800020c6:	60aa                	ld	ra,136(sp)
    800020c8:	640a                	ld	s0,128(sp)
    800020ca:	74e6                	ld	s1,120(sp)
    800020cc:	7946                	ld	s2,112(sp)
    800020ce:	79a6                	ld	s3,104(sp)
    800020d0:	6149                	add	sp,sp,144
    800020d2:	8082                	ret
    800020d4:	04092023          	sw	zero,64(s2)
    800020d8:	04092223          	sw	zero,68(s2)
    800020dc:	04092423          	sw	zero,72(s2)
    800020e0:	00093783          	ld	a5,0(s2)
    800020e4:	5bdc                	lw	a5,52(a5)
    800020e6:	04f92623          	sw	a5,76(s2)
    800020ea:	cc82                	sw	zero,88(sp)
    800020ec:	4785                	li	a5,1
    800020ee:	cebe                	sw	a5,92(sp)
    800020f0:	08b0                	add	a2,sp,88
    800020f2:	102c                	add	a1,sp,40
    800020f4:	854a                	mv	a0,s2
    800020f6:	8a8ff0ef          	jal	8000119e <lfs_dir_fetch>
    800020fa:	842a                	mv	s0,a0
    800020fc:	c509                	beqz	a0,80002106 <lfs_mount+0x58>
    800020fe:	854a                	mv	a0,s2
    80002100:	f06ff0ef          	jal	80001806 <lfs_deinit>
    80002104:	b7c1                	j	800020c4 <lfs_mount+0x16>
    80002106:	02000713          	li	a4,32
    8000210a:	0054                	add	a3,sp,4
    8000210c:	4641                	li	a2,16
    8000210e:	55c2                	lw	a1,48(sp)
    80002110:	854a                	mv	a0,s2
    80002112:	870ff0ef          	jal	80001182 <lfs_bd_read>
    80002116:	842a                	mv	s0,a0
    80002118:	47a2                	lw	a5,8(sp)
    8000211a:	0087d693          	srl	a3,a5,0x8
    8000211e:	0ff6f693          	zext.b	a3,a3
    80002122:	0086969b          	sllw	a3,a3,0x8
    80002126:	0107d713          	srl	a4,a5,0x10
    8000212a:	0ff77713          	zext.b	a4,a4
    8000212e:	0107171b          	sllw	a4,a4,0x10
    80002132:	8ed9                	or	a3,a3,a4
    80002134:	0ff7f713          	zext.b	a4,a5
    80002138:	8ed9                	or	a3,a3,a4
    8000213a:	0187d79b          	srlw	a5,a5,0x18
    8000213e:	0187979b          	sllw	a5,a5,0x18
    80002142:	8edd                	or	a3,a3,a5
    80002144:	2681                	sext.w	a3,a3
    80002146:	c436                	sw	a3,8(sp)
    80002148:	47b2                	lw	a5,12(sp)
    8000214a:	0087d713          	srl	a4,a5,0x8
    8000214e:	0ff77713          	zext.b	a4,a4
    80002152:	0087171b          	sllw	a4,a4,0x8
    80002156:	0107d613          	srl	a2,a5,0x10
    8000215a:	0ff67613          	zext.b	a2,a2
    8000215e:	0106161b          	sllw	a2,a2,0x10
    80002162:	8f51                	or	a4,a4,a2
    80002164:	0ff7f613          	zext.b	a2,a5
    80002168:	8f51                	or	a4,a4,a2
    8000216a:	0187d79b          	srlw	a5,a5,0x18
    8000216e:	0187979b          	sllw	a5,a5,0x18
    80002172:	8f5d                	or	a4,a4,a5
    80002174:	2701                	sext.w	a4,a4
    80002176:	c63a                	sw	a4,12(sp)
    80002178:	4642                	lw	a2,16(sp)
    8000217a:	00865793          	srl	a5,a2,0x8
    8000217e:	0ff7f793          	zext.b	a5,a5
    80002182:	0087979b          	sllw	a5,a5,0x8
    80002186:	01065593          	srl	a1,a2,0x10
    8000218a:	0ff5f593          	zext.b	a1,a1
    8000218e:	0105959b          	sllw	a1,a1,0x10
    80002192:	8fcd                	or	a5,a5,a1
    80002194:	0ff67593          	zext.b	a1,a2
    80002198:	8fcd                	or	a5,a5,a1
    8000219a:	0186561b          	srlw	a2,a2,0x18
    8000219e:	0186161b          	sllw	a2,a2,0x18
    800021a2:	8fd1                	or	a5,a5,a2
    800021a4:	c83e                	sw	a5,16(sp)
    800021a6:	4652                	lw	a2,20(sp)
    800021a8:	00865793          	srl	a5,a2,0x8
    800021ac:	0ff7f793          	zext.b	a5,a5
    800021b0:	0087979b          	sllw	a5,a5,0x8
    800021b4:	01065593          	srl	a1,a2,0x10
    800021b8:	0ff5f593          	zext.b	a1,a1
    800021bc:	0105959b          	sllw	a1,a1,0x10
    800021c0:	8fcd                	or	a5,a5,a1
    800021c2:	0ff67593          	zext.b	a1,a2
    800021c6:	8fcd                	or	a5,a5,a1
    800021c8:	0186561b          	srlw	a2,a2,0x18
    800021cc:	0186161b          	sllw	a2,a2,0x18
    800021d0:	8fd1                	or	a5,a5,a2
    800021d2:	ca3e                	sw	a5,20(sp)
    800021d4:	4662                	lw	a2,24(sp)
    800021d6:	00865793          	srl	a5,a2,0x8
    800021da:	0ff7f793          	zext.b	a5,a5
    800021de:	0087979b          	sllw	a5,a5,0x8
    800021e2:	01065593          	srl	a1,a2,0x10
    800021e6:	0ff5f593          	zext.b	a1,a1
    800021ea:	0105959b          	sllw	a1,a1,0x10
    800021ee:	8fcd                	or	a5,a5,a1
    800021f0:	0ff67593          	zext.b	a1,a2
    800021f4:	8fcd                	or	a5,a5,a1
    800021f6:	0186561b          	srlw	a2,a2,0x18
    800021fa:	0186161b          	sllw	a2,a2,0x18
    800021fe:	8fd1                	or	a5,a5,a2
    80002200:	0007899b          	sext.w	s3,a5
    80002204:	cc4e                	sw	s3,24(sp)
    80002206:	ee051ce3          	bnez	a0,800020fe <lfs_mount+0x50>
    8000220a:	00d92423          	sw	a3,8(s2)
    8000220e:	00e92623          	sw	a4,12(s2)
    80002212:	4621                	li	a2,8
    80002214:	00003597          	auipc	a1,0x3
    80002218:	e2c58593          	add	a1,a1,-468 # 80005040 <rtable.0+0x50>
    8000221c:	0868                	add	a0,sp,28
    8000221e:	12b020ef          	jal	80004b48 <memcmp>
    80002222:	842a                	mv	s0,a0
    80002224:	ed11                	bnez	a0,80002240 <lfs_mount+0x192>
    80002226:	0109d79b          	srlw	a5,s3,0x10
    8000222a:	4705                	li	a4,1
    8000222c:	00e79d63          	bne	a5,a4,80002246 <lfs_mount+0x198>
    80002230:	19c2                	sll	s3,s3,0x30
    80002232:	0309d993          	srl	s3,s3,0x30
    80002236:	4785                	li	a5,1
    80002238:	e937f6e3          	bgeu	a5,s3,800020c4 <lfs_mount+0x16>
    8000223c:	5429                	li	s0,-22
    8000223e:	b5c1                	j	800020fe <lfs_mount+0x50>
    80002240:	fcc00413          	li	s0,-52
    80002244:	bd6d                	j	800020fe <lfs_mount+0x50>
    80002246:	5429                	li	s0,-22
    80002248:	bd5d                	j	800020fe <lfs_mount+0x50>

000000008000224a <lfs_unmount>:
    8000224a:	1141                	add	sp,sp,-16
    8000224c:	e406                	sd	ra,8(sp)
    8000224e:	db8ff0ef          	jal	80001806 <lfs_deinit>
    80002252:	4501                	li	a0,0
    80002254:	60a2                	ld	ra,8(sp)
    80002256:	0141                	add	sp,sp,16
    80002258:	8082                	ret

000000008000225a <lfs_traverse>:
    8000225a:	7135                	add	sp,sp,-160
    8000225c:	ed06                	sd	ra,152(sp)
    8000225e:	e922                	sd	s0,144(sp)
    80002260:	e526                	sd	s1,136(sp)
    80002262:	e14a                	sd	s2,128(sp)
    80002264:	fcce                	sd	s3,120(sp)
    80002266:	f8d2                	sd	s4,112(sp)
    80002268:	f4d6                	sd	s5,104(sp)
    8000226a:	f0da                	sd	s6,96(sp)
    8000226c:	ecde                	sd	s7,88(sp)
    8000226e:	e8e2                	sd	s8,80(sp)
    80002270:	4518                	lw	a4,8(a0)
    80002272:	57fd                	li	a5,-1
    80002274:	12f70663          	beq	a4,a5,800023a0 <lfs_traverse+0x146>
    80002278:	842a                	mv	s0,a0
    8000227a:	89ae                	mv	s3,a1
    8000227c:	8a32                	mv	s4,a2
    8000227e:	4558                	lw	a4,12(a0)
    80002280:	12f70e63          	beq	a4,a5,800023bc <lfs_traverse+0x162>
    80002284:	c402                	sw	zero,8(sp)
    80002286:	4785                	li	a5,1
    80002288:	c63e                	sw	a5,12(sp)
    8000228a:	800004b7          	lui	s1,0x80000
    8000228e:	fff4c493          	not	s1,s1
    80002292:	4941                	li	s2,16
    80002294:	45a2                	lw	a1,8(sp)
    80002296:	8552                	mv	a0,s4
    80002298:	9982                	jalr	s3
    8000229a:	8baa                	mv	s7,a0
    8000229c:	10051363          	bnez	a0,800023a2 <lfs_traverse+0x148>
    800022a0:	45b2                	lw	a1,12(sp)
    800022a2:	8552                	mv	a0,s4
    800022a4:	9982                	jalr	s3
    800022a6:	8baa                	mv	s7,a0
    800022a8:	0e051d63          	bnez	a0,800023a2 <lfs_traverse+0x148>
    800022ac:	0030                	add	a2,sp,8
    800022ae:	100c                	add	a1,sp,32
    800022b0:	8522                	mv	a0,s0
    800022b2:	eedfe0ef          	jal	8000119e <lfs_dir_fetch>
    800022b6:	8aaa                	mv	s5,a0
    800022b8:	10051463          	bnez	a0,800023c0 <lfs_traverse+0x166>
    800022bc:	5b42                	lw	s6,48(sp)
    800022be:	020b1793          	sll	a5,s6,0x20
    800022c2:	9381                	srl	a5,a5,0x20
    800022c4:	07b1                	add	a5,a5,12
    800022c6:	4716                	lw	a4,68(sp)
    800022c8:	8f65                	and	a4,a4,s1
    800022ca:	3771                	addw	a4,a4,-4
    800022cc:	1702                	sll	a4,a4,0x20
    800022ce:	9301                	srl	a4,a4,0x20
    800022d0:	04f76e63          	bltu	a4,a5,8000232c <lfs_traverse+0xd2>
    800022d4:	4731                	li	a4,12
    800022d6:	0854                	add	a3,sp,20
    800022d8:	865a                	mv	a2,s6
    800022da:	55a2                	lw	a1,40(sp)
    800022dc:	8522                	mv	a0,s0
    800022de:	ea5fe0ef          	jal	80001182 <lfs_bd_read>
    800022e2:	8baa                	mv	s7,a0
    800022e4:	0848                	add	a0,sp,20
    800022e6:	c89fe0ef          	jal	80000f6e <lfs_entry_fromle32>
    800022ea:	0a0b9c63          	bnez	s7,800023a2 <lfs_traverse+0x148>
    800022ee:	01514703          	lbu	a4,21(sp)
    800022f2:	2711                	addw	a4,a4,4
    800022f4:	01614783          	lbu	a5,22(sp)
    800022f8:	9f3d                	addw	a4,a4,a5
    800022fa:	01714783          	lbu	a5,23(sp)
    800022fe:	9f3d                	addw	a4,a4,a5
    80002300:	0167073b          	addw	a4,a4,s6
    80002304:	d83a                	sw	a4,48(sp)
    80002306:	01414783          	lbu	a5,20(sp)
    8000230a:	0707f793          	and	a5,a5,112
    8000230e:	fb2797e3          	bne	a5,s2,800022bc <lfs_traverse+0x62>
    80002312:	8852                	mv	a6,s4
    80002314:	87ce                	mv	a5,s3
    80002316:	4772                	lw	a4,28(sp)
    80002318:	46e2                	lw	a3,24(sp)
    8000231a:	4601                	li	a2,0
    8000231c:	02040593          	add	a1,s0,32
    80002320:	8522                	mv	a0,s0
    80002322:	ddaff0ef          	jal	800018fc <lfs_ctz_traverse>
    80002326:	8baa                	mv	s7,a0
    80002328:	d951                	beqz	a0,800022bc <lfs_traverse+0x62>
    8000232a:	a8a5                	j	800023a2 <lfs_traverse+0x148>
    8000232c:	47a6                	lw	a5,72(sp)
    8000232e:	c43e                	sw	a5,8(sp)
    80002330:	4736                	lw	a4,76(sp)
    80002332:	c63a                	sw	a4,12(sp)
    80002334:	56fd                	li	a3,-1
    80002336:	00d78563          	beq	a5,a3,80002340 <lfs_traverse+0xe6>
    8000233a:	57fd                	li	a5,-1
    8000233c:	f4f71ce3          	bne	a4,a5,80002294 <lfs_traverse+0x3a>
    80002340:	6804                	ld	s1,16(s0)
    80002342:	c0c9                	beqz	s1,800023c4 <lfs_traverse+0x16a>
    80002344:	6941                	lui	s2,0x10
    80002346:	02040c13          	add	s8,s0,32
    8000234a:	00020b37          	lui	s6,0x20
    8000234e:	a005                	j	8000236e <lfs_traverse+0x114>
    80002350:	8852                	mv	a6,s4
    80002352:	87ce                	mv	a5,s3
    80002354:	4c98                	lw	a4,24(s1)
    80002356:	48d4                	lw	a3,20(s1)
    80002358:	03848613          	add	a2,s1,56 # ffffffff80000038 <_sp+0xfffffffef1000038>
    8000235c:	85e2                	mv	a1,s8
    8000235e:	8522                	mv	a0,s0
    80002360:	d9cff0ef          	jal	800018fc <lfs_ctz_traverse>
    80002364:	8baa                	mv	s7,a0
    80002366:	c909                	beqz	a0,80002378 <lfs_traverse+0x11e>
    80002368:	a82d                	j	800023a2 <lfs_traverse+0x148>
    8000236a:	6084                	ld	s1,0(s1)
    8000236c:	c885                	beqz	s1,8000239c <lfs_traverse+0x142>
    8000236e:	549c                	lw	a5,40(s1)
    80002370:	0127f7b3          	and	a5,a5,s2
    80002374:	2781                	sext.w	a5,a5
    80002376:	ffe9                	bnez	a5,80002350 <lfs_traverse+0xf6>
    80002378:	549c                	lw	a5,40(s1)
    8000237a:	0167f7b3          	and	a5,a5,s6
    8000237e:	2781                	sext.w	a5,a5
    80002380:	d7ed                	beqz	a5,8000236a <lfs_traverse+0x110>
    80002382:	8852                	mv	a6,s4
    80002384:	87ce                	mv	a5,s3
    80002386:	54d8                	lw	a4,44(s1)
    80002388:	5894                	lw	a3,48(s1)
    8000238a:	03848613          	add	a2,s1,56
    8000238e:	85e2                	mv	a1,s8
    80002390:	8522                	mv	a0,s0
    80002392:	d6aff0ef          	jal	800018fc <lfs_ctz_traverse>
    80002396:	8baa                	mv	s7,a0
    80002398:	d969                	beqz	a0,8000236a <lfs_traverse+0x110>
    8000239a:	a021                	j	800023a2 <lfs_traverse+0x148>
    8000239c:	8bd6                	mv	s7,s5
    8000239e:	a011                	j	800023a2 <lfs_traverse+0x148>
    800023a0:	4b81                	li	s7,0
    800023a2:	855e                	mv	a0,s7
    800023a4:	60ea                	ld	ra,152(sp)
    800023a6:	644a                	ld	s0,144(sp)
    800023a8:	64aa                	ld	s1,136(sp)
    800023aa:	690a                	ld	s2,128(sp)
    800023ac:	79e6                	ld	s3,120(sp)
    800023ae:	7a46                	ld	s4,112(sp)
    800023b0:	7aa6                	ld	s5,104(sp)
    800023b2:	7b06                	ld	s6,96(sp)
    800023b4:	6be6                	ld	s7,88(sp)
    800023b6:	6c46                	ld	s8,80(sp)
    800023b8:	610d                	add	sp,sp,160
    800023ba:	8082                	ret
    800023bc:	4b81                	li	s7,0
    800023be:	b7d5                	j	800023a2 <lfs_traverse+0x148>
    800023c0:	8baa                	mv	s7,a0
    800023c2:	b7c5                	j	800023a2 <lfs_traverse+0x148>
    800023c4:	8bd6                	mv	s7,s5
    800023c6:	bff1                	j	800023a2 <lfs_traverse+0x148>

00000000800023c8 <lfs_alloc>:
    800023c8:	1101                	add	sp,sp,-32
    800023ca:	ec06                	sd	ra,24(sp)
    800023cc:	e822                	sd	s0,16(sp)
    800023ce:	e426                	sd	s1,8(sp)
    800023d0:	e04a                	sd	s2,0(sp)
    800023d2:	842a                	mv	s0,a0
    800023d4:	892e                	mv	s2,a1
    800023d6:	4485                	li	s1,1
    800023d8:	4070                	lw	a2,68(s0)
    800023da:	4438                	lw	a4,72(s0)
    800023dc:	06c70e63          	beq	a4,a2,80002458 <lfs_alloc+0x90>
    800023e0:	0017079b          	addw	a5,a4,1
    800023e4:	c43c                	sw	a5,72(s0)
    800023e6:	447c                	lw	a5,76(s0)
    800023e8:	37fd                	addw	a5,a5,-1
    800023ea:	c47c                	sw	a5,76(s0)
    800023ec:	0057579b          	srlw	a5,a4,0x5
    800023f0:	6834                	ld	a3,80(s0)
    800023f2:	078a                	sll	a5,a5,0x2
    800023f4:	97b6                	add	a5,a5,a3
    800023f6:	00e496bb          	sllw	a3,s1,a4
    800023fa:	439c                	lw	a5,0(a5)
    800023fc:	8ff5                	and	a5,a5,a3
    800023fe:	2781                	sext.w	a5,a5
    80002400:	ffe9                	bnez	a5,800023da <lfs_alloc+0x12>
    80002402:	403c                	lw	a5,64(s0)
    80002404:	9fb9                	addw	a5,a5,a4
    80002406:	6018                	ld	a4,0(s0)
    80002408:	5b58                	lw	a4,52(a4)
    8000240a:	02e7f7bb          	remuw	a5,a5,a4
    8000240e:	00f92023          	sw	a5,0(s2) # 10000 <_start-0x7fff0000>
    80002412:	4438                	lw	a4,72(s0)
    80002414:	4070                	lw	a2,68(s0)
    80002416:	08c70463          	beq	a4,a2,8000249e <lfs_alloc+0xd6>
    8000241a:	6828                	ld	a0,80(s0)
    8000241c:	4585                	li	a1,1
    8000241e:	0057579b          	srlw	a5,a4,0x5
    80002422:	078a                	sll	a5,a5,0x2
    80002424:	97aa                	add	a5,a5,a0
    80002426:	00e596bb          	sllw	a3,a1,a4
    8000242a:	439c                	lw	a5,0(a5)
    8000242c:	8ff5                	and	a5,a5,a3
    8000242e:	2781                	sext.w	a5,a5
    80002430:	cf89                	beqz	a5,8000244a <lfs_alloc+0x82>
    80002432:	0017079b          	addw	a5,a4,1
    80002436:	0007871b          	sext.w	a4,a5
    8000243a:	c43c                	sw	a5,72(s0)
    8000243c:	447c                	lw	a5,76(s0)
    8000243e:	37fd                	addw	a5,a5,-1
    80002440:	c47c                	sw	a5,76(s0)
    80002442:	fcc71ee3          	bne	a4,a2,8000241e <lfs_alloc+0x56>
    80002446:	4501                	li	a0,0
    80002448:	a011                	j	8000244c <lfs_alloc+0x84>
    8000244a:	4501                	li	a0,0
    8000244c:	60e2                	ld	ra,24(sp)
    8000244e:	6442                	ld	s0,16(sp)
    80002450:	64a2                	ld	s1,8(sp)
    80002452:	6902                	ld	s2,0(sp)
    80002454:	6105                	add	sp,sp,32
    80002456:	8082                	ret
    80002458:	4474                	lw	a3,76(s0)
    8000245a:	c6a1                	beqz	a3,800024a2 <lfs_alloc+0xda>
    8000245c:	6018                	ld	a4,0(s0)
    8000245e:	403c                	lw	a5,64(s0)
    80002460:	9fb1                	addw	a5,a5,a2
    80002462:	5b50                	lw	a2,52(a4)
    80002464:	02c7f7bb          	remuw	a5,a5,a2
    80002468:	c03c                	sw	a5,64(s0)
    8000246a:	5f1c                	lw	a5,56(a4)
    8000246c:	863e                	mv	a2,a5
    8000246e:	2781                	sext.w	a5,a5
    80002470:	00f6f363          	bgeu	a3,a5,80002476 <lfs_alloc+0xae>
    80002474:	8636                	mv	a2,a3
    80002476:	c070                	sw	a2,68(s0)
    80002478:	04042423          	sw	zero,72(s0)
    8000247c:	5f10                	lw	a2,56(a4)
    8000247e:	0036561b          	srlw	a2,a2,0x3
    80002482:	4581                	li	a1,0
    80002484:	6828                	ld	a0,80(s0)
    80002486:	f66fe0ef          	jal	80000bec <memset>
    8000248a:	8622                	mv	a2,s0
    8000248c:	fffff597          	auipc	a1,0xfffff
    80002490:	93a58593          	add	a1,a1,-1734 # 80000dc6 <lfs_alloc_lookahead>
    80002494:	8522                	mv	a0,s0
    80002496:	dc5ff0ef          	jal	8000225a <lfs_traverse>
    8000249a:	dd1d                	beqz	a0,800023d8 <lfs_alloc+0x10>
    8000249c:	bf45                	j	8000244c <lfs_alloc+0x84>
    8000249e:	4501                	li	a0,0
    800024a0:	b775                	j	8000244c <lfs_alloc+0x84>
    800024a2:	5511                	li	a0,-28
    800024a4:	b765                	j	8000244c <lfs_alloc+0x84>

00000000800024a6 <lfs_dir_alloc>:
    800024a6:	1101                	add	sp,sp,-32
    800024a8:	ec06                	sd	ra,24(sp)
    800024aa:	e822                	sd	s0,16(sp)
    800024ac:	e426                	sd	s1,8(sp)
    800024ae:	e04a                	sd	s2,0(sp)
    800024b0:	892a                	mv	s2,a0
    800024b2:	842e                	mv	s0,a1
    800024b4:	05a1                	add	a1,a1,8
    800024b6:	f13ff0ef          	jal	800023c8 <lfs_alloc>
    800024ba:	84aa                	mv	s1,a0
    800024bc:	e925                	bnez	a0,8000252c <lfs_dir_alloc+0x86>
    800024be:	00c40593          	add	a1,s0,12
    800024c2:	854a                	mv	a0,s2
    800024c4:	f05ff0ef          	jal	800023c8 <lfs_alloc>
    800024c8:	84aa                	mv	s1,a0
    800024ca:	e12d                	bnez	a0,8000252c <lfs_dir_alloc+0x86>
    800024cc:	4711                	li	a4,4
    800024ce:	02040693          	add	a3,s0,32
    800024d2:	4601                	li	a2,0
    800024d4:	440c                	lw	a1,8(s0)
    800024d6:	854a                	mv	a0,s2
    800024d8:	cabfe0ef          	jal	80001182 <lfs_bd_read>
    800024dc:	c519                	beqz	a0,800024ea <lfs_dir_alloc+0x44>
    800024de:	fcc00793          	li	a5,-52
    800024e2:	02f50b63          	beq	a0,a5,80002518 <lfs_dir_alloc+0x72>
    800024e6:	84aa                	mv	s1,a0
    800024e8:	a091                	j	8000252c <lfs_dir_alloc+0x86>
    800024ea:	5018                	lw	a4,32(s0)
    800024ec:	00875793          	srl	a5,a4,0x8
    800024f0:	0ff7f793          	zext.b	a5,a5
    800024f4:	0087979b          	sllw	a5,a5,0x8
    800024f8:	01075693          	srl	a3,a4,0x10
    800024fc:	0ff6f693          	zext.b	a3,a3
    80002500:	0106969b          	sllw	a3,a3,0x10
    80002504:	8fd5                	or	a5,a5,a3
    80002506:	0ff77693          	zext.b	a3,a4
    8000250a:	8fd5                	or	a5,a5,a3
    8000250c:	0187571b          	srlw	a4,a4,0x18
    80002510:	0187171b          	sllw	a4,a4,0x18
    80002514:	8fd9                	or	a5,a5,a4
    80002516:	d01c                	sw	a5,32(s0)
    80002518:	501c                	lw	a5,32(s0)
    8000251a:	2785                	addw	a5,a5,1
    8000251c:	d01c                	sw	a5,32(s0)
    8000251e:	47d1                	li	a5,20
    80002520:	d05c                	sw	a5,36(s0)
    80002522:	57fd                	li	a5,-1
    80002524:	d41c                	sw	a5,40(s0)
    80002526:	d45c                	sw	a5,44(s0)
    80002528:	47c1                	li	a5,16
    8000252a:	c81c                	sw	a5,16(s0)
    8000252c:	8526                	mv	a0,s1
    8000252e:	60e2                	ld	ra,24(sp)
    80002530:	6442                	ld	s0,16(sp)
    80002532:	64a2                	ld	s1,8(sp)
    80002534:	6902                	ld	s2,0(sp)
    80002536:	6105                	add	sp,sp,32
    80002538:	8082                	ret

000000008000253a <lfs_file_relocate>:
    8000253a:	7159                	add	sp,sp,-112
    8000253c:	f486                	sd	ra,104(sp)
    8000253e:	f0a2                	sd	s0,96(sp)
    80002540:	eca6                	sd	s1,88(sp)
    80002542:	e8ca                	sd	s2,80(sp)
    80002544:	e4ce                	sd	s3,72(sp)
    80002546:	e0d2                	sd	s4,64(sp)
    80002548:	fc56                	sd	s5,56(sp)
    8000254a:	f85a                	sd	s6,48(sp)
    8000254c:	f45e                	sd	s7,40(sp)
    8000254e:	f062                	sd	s8,32(sp)
    80002550:	ec66                	sd	s9,24(sp)
    80002552:	892a                	mv	s2,a0
    80002554:	89ae                	mv	s3,a1
    80002556:	4c81                	li	s9,0
    80002558:	02050a13          	add	s4,a0,32
    8000255c:	03858b13          	add	s6,a1,56
    80002560:	03050b93          	add	s7,a0,48
    80002564:	fcc00c13          	li	s8,-52
    80002568:	006c                	add	a1,sp,12
    8000256a:	854a                	mv	a0,s2
    8000256c:	e5dff0ef          	jal	800023c8 <lfs_alloc>
    80002570:	84aa                	mv	s1,a0
    80002572:	e155                	bnez	a0,80002616 <lfs_file_relocate+0xdc>
    80002574:	4ab2                	lw	s5,12(sp)
    80002576:	85d6                	mv	a1,s5
    80002578:	854a                	mv	a0,s2
    8000257a:	83dfe0ef          	jal	80000db6 <lfs_bd_erase>
    8000257e:	84aa                	mv	s1,a0
    80002580:	c911                	beqz	a0,80002594 <lfs_file_relocate+0x5a>
    80002582:	ff8503e3          	beq	a0,s8,80002568 <lfs_file_relocate+0x2e>
    80002586:	a841                	j	80002616 <lfs_file_relocate+0xdc>
    80002588:	fcc00793          	li	a5,-52
    8000258c:	fcf50ee3          	beq	a0,a5,80002568 <lfs_file_relocate+0x2e>
    80002590:	84aa                	mv	s1,a0
    80002592:	a051                	j	80002616 <lfs_file_relocate+0xdc>
    80002594:	0349a783          	lw	a5,52(s3) # ffffffff80000034 <_sp+0xfffffffef1000034>
    80002598:	cf95                	beqz	a5,800025d4 <lfs_file_relocate+0x9a>
    8000259a:	8466                	mv	s0,s9
    8000259c:	4805                	li	a6,1
    8000259e:	00b10793          	add	a5,sp,11
    800025a2:	8722                	mv	a4,s0
    800025a4:	0309a683          	lw	a3,48(s3)
    800025a8:	865a                	mv	a2,s6
    800025aa:	85d2                	mv	a1,s4
    800025ac:	854a                	mv	a0,s2
    800025ae:	a7dfe0ef          	jal	8000102a <lfs_cache_read>
    800025b2:	fd79                	bnez	a0,80002590 <lfs_file_relocate+0x56>
    800025b4:	4805                	li	a6,1
    800025b6:	00b10793          	add	a5,sp,11
    800025ba:	8722                	mv	a4,s0
    800025bc:	86d6                	mv	a3,s5
    800025be:	8652                	mv	a2,s4
    800025c0:	85de                	mv	a1,s7
    800025c2:	854a                	mv	a0,s2
    800025c4:	eecff0ef          	jal	80001cb0 <lfs_cache_prog>
    800025c8:	f161                	bnez	a0,80002588 <lfs_file_relocate+0x4e>
    800025ca:	2405                	addw	s0,s0,1
    800025cc:	0349a783          	lw	a5,52(s3)
    800025d0:	fcf466e3          	bltu	s0,a5,8000259c <lfs_file_relocate+0x62>
    800025d4:	00093783          	ld	a5,0(s2)
    800025d8:	02c7e603          	lwu	a2,44(a5)
    800025dc:	03893583          	ld	a1,56(s2)
    800025e0:	0409b503          	ld	a0,64(s3)
    800025e4:	5b6020ef          	jal	80004b9a <memcpy>
    800025e8:	03092783          	lw	a5,48(s2)
    800025ec:	02f9ac23          	sw	a5,56(s3)
    800025f0:	03492783          	lw	a5,52(s2)
    800025f4:	02f9ae23          	sw	a5,60(s3)
    800025f8:	00093783          	ld	a5,0(s2)
    800025fc:	02c7e603          	lwu	a2,44(a5)
    80002600:	0ff00593          	li	a1,255
    80002604:	03893503          	ld	a0,56(s2)
    80002608:	de4fe0ef          	jal	80000bec <memset>
    8000260c:	57fd                	li	a5,-1
    8000260e:	02f92823          	sw	a5,48(s2)
    80002612:	0359a823          	sw	s5,48(s3)
    80002616:	8526                	mv	a0,s1
    80002618:	70a6                	ld	ra,104(sp)
    8000261a:	7406                	ld	s0,96(sp)
    8000261c:	64e6                	ld	s1,88(sp)
    8000261e:	6946                	ld	s2,80(sp)
    80002620:	69a6                	ld	s3,72(sp)
    80002622:	6a06                	ld	s4,64(sp)
    80002624:	7ae2                	ld	s5,56(sp)
    80002626:	7b42                	ld	s6,48(sp)
    80002628:	7ba2                	ld	s7,40(sp)
    8000262a:	7c02                	ld	s8,32(sp)
    8000262c:	6ce2                	ld	s9,24(sp)
    8000262e:	6165                	add	sp,sp,112
    80002630:	8082                	ret

0000000080002632 <lfs_file_write>:
    80002632:	7131                	add	sp,sp,-192
    80002634:	fd06                	sd	ra,184(sp)
    80002636:	f922                	sd	s0,176(sp)
    80002638:	f526                	sd	s1,168(sp)
    8000263a:	f14a                	sd	s2,160(sp)
    8000263c:	ed4e                	sd	s3,152(sp)
    8000263e:	e952                	sd	s4,144(sp)
    80002640:	e556                	sd	s5,136(sp)
    80002642:	e15a                	sd	s6,128(sp)
    80002644:	fcde                	sd	s7,120(sp)
    80002646:	f8e2                	sd	s8,112(sp)
    80002648:	f4e6                	sd	s9,104(sp)
    8000264a:	f0ea                	sd	s10,96(sp)
    8000264c:	ecee                	sd	s11,88(sp)
    8000264e:	e832                	sd	a2,16(sp)
    80002650:	8bb6                	mv	s7,a3
    80002652:	559c                	lw	a5,40(a1)
    80002654:	0037f693          	and	a3,a5,3
    80002658:	4705                	li	a4,1
    8000265a:	38e68963          	beq	a3,a4,800029ec <lfs_file_write+0x3ba>
    8000265e:	842a                	mv	s0,a0
    80002660:	84ae                	mv	s1,a1
    80002662:	83c9                	srl	a5,a5,0x12
    80002664:	8b85                	and	a5,a5,1
    80002666:	efb5                	bnez	a5,800026e2 <lfs_file_write+0xb0>
    80002668:	549c                	lw	a5,40(s1)
    8000266a:	00b7d713          	srl	a4,a5,0xb
    8000266e:	8b05                	and	a4,a4,1
    80002670:	c711                	beqz	a4,8000267c <lfs_file_write+0x4a>
    80002672:	4c98                	lw	a4,24(s1)
    80002674:	54d4                	lw	a3,44(s1)
    80002676:	00e6f363          	bgeu	a3,a4,8000267c <lfs_file_write+0x4a>
    8000267a:	d4d8                	sw	a4,44(s1)
    8000267c:	02c4a903          	lw	s2,44(s1)
    80002680:	0179073b          	addw	a4,s2,s7
    80002684:	36074663          	bltz	a4,800029f0 <lfs_file_write+0x3be>
    80002688:	83c5                	srl	a5,a5,0x11
    8000268a:	8b85                	and	a5,a5,1
    8000268c:	e39d                	bnez	a5,800026b2 <lfs_file_write+0x80>
    8000268e:	4c9c                	lw	a5,24(s1)
    80002690:	0327f163          	bgeu	a5,s2,800026b2 <lfs_file_write+0x80>
    80002694:	d4dc                	sw	a5,44(s1)
    80002696:	040107a3          	sb	zero,79(sp)
    8000269a:	4685                	li	a3,1
    8000269c:	04f10613          	add	a2,sp,79
    800026a0:	85a6                	mv	a1,s1
    800026a2:	8522                	mv	a0,s0
    800026a4:	f8fff0ef          	jal	80002632 <lfs_file_write>
    800026a8:	2e054563          	bltz	a0,80002992 <lfs_file_write+0x360>
    800026ac:	54dc                	lw	a5,44(s1)
    800026ae:	ff27e4e3          	bltu	a5,s2,80002696 <lfs_file_write+0x64>
    800026b2:	8c5e                	mv	s8,s7
    800026b4:	320b8363          	beqz	s7,800029da <lfs_file_write+0x3a8>
    800026b8:	00020d37          	lui	s10,0x20
    800026bc:	02040793          	add	a5,s0,32
    800026c0:	ec3e                	sd	a5,24(sp)
    800026c2:	03848793          	add	a5,s1,56
    800026c6:	f03e                	sd	a5,32(sp)
    800026c8:	fcc00a93          	li	s5,-52
    800026cc:	549c                	lw	a5,40(s1)
    800026ce:	01a7f7b3          	and	a5,a5,s10
    800026d2:	2781                	sext.w	a5,a5
    800026d4:	cb99                	beqz	a5,800026ea <lfs_file_write+0xb8>
    800026d6:	601c                	ld	a5,0(s0)
    800026d8:	58d8                	lw	a4,52(s1)
    800026da:	5b9c                	lw	a5,48(a5)
    800026dc:	0ef71363          	bne	a4,a5,800027c2 <lfs_file_write+0x190>
    800026e0:	a039                	j	800026ee <lfs_file_write+0xbc>
    800026e2:	312000ef          	jal	800029f4 <lfs_file_flush>
    800026e6:	d149                	beqz	a0,80002668 <lfs_file_write+0x36>
    800026e8:	a46d                	j	80002992 <lfs_file_write+0x360>
    800026ea:	54dc                	lw	a5,44(s1)
    800026ec:	e395                	bnez	a5,80002710 <lfs_file_write+0xde>
    800026ee:	601c                	ld	a5,0(s0)
    800026f0:	5bdc                	lw	a5,52(a5)
    800026f2:	c47c                	sw	a5,76(s0)
    800026f4:	02040793          	add	a5,s0,32
    800026f8:	e43e                	sd	a5,8(sp)
    800026fa:	03848793          	add	a5,s1,56
    800026fe:	f43e                	sd	a5,40(sp)
    80002700:	54dc                	lw	a5,44(s1)
    80002702:	5898                	lw	a4,48(s1)
    80002704:	c0ba                	sw	a4,64(sp)
    80002706:	c2be                	sw	a5,68(sp)
    80002708:	fcc00d93          	li	s11,-52
    8000270c:	5cfd                	li	s9,-1
    8000270e:	a211                	j	80002812 <lfs_file_write+0x1e0>
    80002710:	03448893          	add	a7,s1,52
    80002714:	03048813          	add	a6,s1,48
    80002718:	37fd                	addw	a5,a5,-1
    8000271a:	4c98                	lw	a4,24(s1)
    8000271c:	48d4                	lw	a3,20(s1)
    8000271e:	4601                	li	a2,0
    80002720:	03848593          	add	a1,s1,56
    80002724:	8522                	mv	a0,s0
    80002726:	b64ff0ef          	jal	80001a8a <lfs_ctz_find>
    8000272a:	ed01                	bnez	a0,80002742 <lfs_file_write+0x110>
    8000272c:	601c                	ld	a5,0(s0)
    8000272e:	02c7e603          	lwu	a2,44(a5)
    80002732:	0ff00593          	li	a1,255
    80002736:	60a8                	ld	a0,64(s1)
    80002738:	cb4fe0ef          	jal	80000bec <memset>
    8000273c:	57fd                	li	a5,-1
    8000273e:	dc9c                	sw	a5,56(s1)
    80002740:	b77d                	j	800026ee <lfs_file_write+0xbc>
    80002742:	549c                	lw	a5,40(s1)
    80002744:	00080737          	lui	a4,0x80
    80002748:	8fd9                	or	a5,a5,a4
    8000274a:	d49c                	sw	a5,40(s1)
    8000274c:	a499                	j	80002992 <lfs_file_write+0x360>
    8000274e:	4796                	lw	a5,68(sp)
    80002750:	c3ad                	beqz	a5,800027b2 <lfs_file_write+0x180>
    80002752:	37fd                	addw	a5,a5,-1
    80002754:	c2be                	sw	a5,68(sp)
    80002756:	00cc                	add	a1,sp,68
    80002758:	8522                	mv	a0,s0
    8000275a:	8e6ff0ef          	jal	80001840 <lfs_ctz_index>
    8000275e:	4996                	lw	s3,68(sp)
    80002760:	0019871b          	addw	a4,s3,1
    80002764:	0007079b          	sext.w	a5,a4
    80002768:	c2ba                	sw	a4,68(sp)
    8000276a:	6018                	ld	a4,0(s0)
    8000276c:	5b18                	lw	a4,48(a4)
    8000276e:	0cf70163          	beq	a4,a5,80002830 <lfs_file_write+0x1fe>
    80002772:	c3a1                	beqz	a5,800027b2 <lfs_file_write+0x180>
    80002774:	4901                	li	s2,0
    80002776:	a011                	j	8000277a <lfs_file_write+0x148>
    80002778:	893e                	mv	s2,a5
    8000277a:	4805                	li	a6,1
    8000277c:	03f10793          	add	a5,sp,63
    80002780:	874a                	mv	a4,s2
    80002782:	4686                	lw	a3,64(sp)
    80002784:	4601                	li	a2,0
    80002786:	6b22                	ld	s6,8(sp)
    80002788:	85da                	mv	a1,s6
    8000278a:	8522                	mv	a0,s0
    8000278c:	89ffe0ef          	jal	8000102a <lfs_cache_read>
    80002790:	1e051163          	bnez	a0,80002972 <lfs_file_write+0x340>
    80002794:	4805                	li	a6,1
    80002796:	03f10793          	add	a5,sp,63
    8000279a:	874a                	mv	a4,s2
    8000279c:	86d2                	mv	a3,s4
    8000279e:	865a                	mv	a2,s6
    800027a0:	75a2                	ld	a1,40(sp)
    800027a2:	8522                	mv	a0,s0
    800027a4:	d0cff0ef          	jal	80001cb0 <lfs_cache_prog>
    800027a8:	ed39                	bnez	a0,80002806 <lfs_file_write+0x1d4>
    800027aa:	0019079b          	addw	a5,s2,1
    800027ae:	fd2995e3          	bne	s3,s2,80002778 <lfs_file_write+0x146>
    800027b2:	0344a823          	sw	s4,48(s1)
    800027b6:	d8dc                	sw	a5,52(s1)
    800027b8:	549c                	lw	a5,40(s1)
    800027ba:	00020737          	lui	a4,0x20
    800027be:	8fd9                	or	a5,a5,a4
    800027c0:	d49c                	sw	a5,40(s1)
    800027c2:	601c                	ld	a5,0(s0)
    800027c4:	5b9c                	lw	a5,48(a5)
    800027c6:	58d8                	lw	a4,52(s1)
    800027c8:	9f99                	subw	a5,a5,a4
    800027ca:	893e                	mv	s2,a5
    800027cc:	2781                	sext.w	a5,a5
    800027ce:	00fc7363          	bgeu	s8,a5,800027d4 <lfs_file_write+0x1a2>
    800027d2:	8962                	mv	s2,s8
    800027d4:	2901                	sext.w	s2,s2
    800027d6:	884a                	mv	a6,s2
    800027d8:	67c2                	ld	a5,16(sp)
    800027da:	58d8                	lw	a4,52(s1)
    800027dc:	5894                	lw	a3,48(s1)
    800027de:	6662                	ld	a2,24(sp)
    800027e0:	7582                	ld	a1,32(sp)
    800027e2:	8522                	mv	a0,s0
    800027e4:	cccff0ef          	jal	80001cb0 <lfs_cache_prog>
    800027e8:	1c050463          	beqz	a0,800029b0 <lfs_file_write+0x37e>
    800027ec:	19551e63          	bne	a0,s5,80002988 <lfs_file_write+0x356>
    800027f0:	85a6                	mv	a1,s1
    800027f2:	8522                	mv	a0,s0
    800027f4:	d47ff0ef          	jal	8000253a <lfs_file_relocate>
    800027f8:	dd79                	beqz	a0,800027d6 <lfs_file_write+0x1a4>
    800027fa:	549c                	lw	a5,40(s1)
    800027fc:	00080737          	lui	a4,0x80
    80002800:	8fd9                	or	a5,a5,a4
    80002802:	d49c                	sw	a5,40(s1)
    80002804:	a279                	j	80002992 <lfs_file_write+0x360>
    80002806:	fcc00793          	li	a5,-52
    8000280a:	16f51463          	bne	a0,a5,80002972 <lfs_file_write+0x340>
    8000280e:	03942823          	sw	s9,48(s0)
    80002812:	00ac                	add	a1,sp,72
    80002814:	8522                	mv	a0,s0
    80002816:	bb3ff0ef          	jal	800023c8 <lfs_alloc>
    8000281a:	14051c63          	bnez	a0,80002972 <lfs_file_write+0x340>
    8000281e:	4a26                	lw	s4,72(sp)
    80002820:	85d2                	mv	a1,s4
    80002822:	8522                	mv	a0,s0
    80002824:	d92fe0ef          	jal	80000db6 <lfs_bd_erase>
    80002828:	d11d                	beqz	a0,8000274e <lfs_file_write+0x11c>
    8000282a:	ffb502e3          	beq	a0,s11,8000280e <lfs_file_write+0x1dc>
    8000282e:	a291                	j	80002972 <lfs_file_write+0x340>
    80002830:	0005079b          	sext.w	a5,a0
    80002834:	2505                	addw	a0,a0,1
    80002836:	fff7c793          	not	a5,a5
    8000283a:	8fe9                	and	a5,a5,a0
    8000283c:	2781                	sext.w	a5,a5
    8000283e:	66c1                	lui	a3,0x10
    80002840:	16fd                	add	a3,a3,-1 # ffff <_start-0x7fff0001>
    80002842:	00f6b6b3          	sltu	a3,a3,a5
    80002846:	0046969b          	sllw	a3,a3,0x4
    8000284a:	00d7d7bb          	srlw	a5,a5,a3
    8000284e:	0007871b          	sext.w	a4,a5
    80002852:	0ff00613          	li	a2,255
    80002856:	00e63733          	sltu	a4,a2,a4
    8000285a:	0037171b          	sllw	a4,a4,0x3
    8000285e:	00e7d7bb          	srlw	a5,a5,a4
    80002862:	0007861b          	sext.w	a2,a5
    80002866:	00d76933          	or	s2,a4,a3
    8000286a:	2901                	sext.w	s2,s2
    8000286c:	473d                	li	a4,15
    8000286e:	00c736b3          	sltu	a3,a4,a2
    80002872:	0026969b          	sllw	a3,a3,0x2
    80002876:	00d7d7bb          	srlw	a5,a5,a3
    8000287a:	0007871b          	sext.w	a4,a5
    8000287e:	00d96933          	or	s2,s2,a3
    80002882:	2901                	sext.w	s2,s2
    80002884:	468d                	li	a3,3
    80002886:	00e6b733          	sltu	a4,a3,a4
    8000288a:	0017171b          	sllw	a4,a4,0x1
    8000288e:	00e7d7bb          	srlw	a5,a5,a4
    80002892:	0017d79b          	srlw	a5,a5,0x1
    80002896:	00e96933          	or	s2,s2,a4
    8000289a:	00f96933          	or	s2,s2,a5
    8000289e:	2901                	sext.w	s2,s2
    800028a0:	4981                	li	s3,0
    800028a2:	a819                	j	800028b8 <lfs_file_write+0x286>
    800028a4:	fcc00793          	li	a5,-52
    800028a8:	f6f503e3          	beq	a0,a5,8000280e <lfs_file_write+0x1dc>
    800028ac:	a0d9                	j	80002972 <lfs_file_write+0x340>
    800028ae:	0019879b          	addw	a5,s3,1
    800028b2:	0d390663          	beq	s2,s3,8000297e <lfs_file_write+0x34c>
    800028b6:	89be                	mv	s3,a5
    800028b8:	4706                	lw	a4,64(sp)
    800028ba:	00875793          	srl	a5,a4,0x8
    800028be:	0ff7f793          	zext.b	a5,a5
    800028c2:	0087979b          	sllw	a5,a5,0x8
    800028c6:	01075693          	srl	a3,a4,0x10
    800028ca:	0ff6f693          	zext.b	a3,a3
    800028ce:	0106969b          	sllw	a3,a3,0x10
    800028d2:	8fd5                	or	a5,a5,a3
    800028d4:	0ff77693          	zext.b	a3,a4
    800028d8:	8fd5                	or	a5,a5,a3
    800028da:	0187571b          	srlw	a4,a4,0x18
    800028de:	0187171b          	sllw	a4,a4,0x18
    800028e2:	8fd9                	or	a5,a5,a4
    800028e4:	c0be                	sw	a5,64(sp)
    800028e6:	00299b1b          	sllw	s6,s3,0x2
    800028ea:	4811                	li	a6,4
    800028ec:	009c                	add	a5,sp,64
    800028ee:	875a                	mv	a4,s6
    800028f0:	86d2                	mv	a3,s4
    800028f2:	6622                	ld	a2,8(sp)
    800028f4:	75a2                	ld	a1,40(sp)
    800028f6:	8522                	mv	a0,s0
    800028f8:	bb8ff0ef          	jal	80001cb0 <lfs_cache_prog>
    800028fc:	4786                	lw	a5,64(sp)
    800028fe:	0087d693          	srl	a3,a5,0x8
    80002902:	0ff6f693          	zext.b	a3,a3
    80002906:	0086969b          	sllw	a3,a3,0x8
    8000290a:	0107d713          	srl	a4,a5,0x10
    8000290e:	0ff77713          	zext.b	a4,a4
    80002912:	0107171b          	sllw	a4,a4,0x10
    80002916:	8ed9                	or	a3,a3,a4
    80002918:	0ff7f713          	zext.b	a4,a5
    8000291c:	8ed9                	or	a3,a3,a4
    8000291e:	0187d79b          	srlw	a5,a5,0x18
    80002922:	0187979b          	sllw	a5,a5,0x18
    80002926:	8edd                	or	a3,a3,a5
    80002928:	2681                	sext.w	a3,a3
    8000292a:	c0b6                	sw	a3,64(sp)
    8000292c:	fd25                	bnez	a0,800028a4 <lfs_file_write+0x272>
    8000292e:	f93900e3          	beq	s2,s3,800028ae <lfs_file_write+0x27c>
    80002932:	4811                	li	a6,4
    80002934:	009c                	add	a5,sp,64
    80002936:	875a                	mv	a4,s6
    80002938:	4601                	li	a2,0
    8000293a:	65a2                	ld	a1,8(sp)
    8000293c:	8522                	mv	a0,s0
    8000293e:	eecfe0ef          	jal	8000102a <lfs_cache_read>
    80002942:	4706                	lw	a4,64(sp)
    80002944:	00875793          	srl	a5,a4,0x8
    80002948:	0ff7f793          	zext.b	a5,a5
    8000294c:	0087979b          	sllw	a5,a5,0x8
    80002950:	01075693          	srl	a3,a4,0x10
    80002954:	0ff6f693          	zext.b	a3,a3
    80002958:	0106969b          	sllw	a3,a3,0x10
    8000295c:	8fd5                	or	a5,a5,a3
    8000295e:	0ff77693          	zext.b	a3,a4
    80002962:	8fd5                	or	a5,a5,a3
    80002964:	0187571b          	srlw	a4,a4,0x18
    80002968:	0187171b          	sllw	a4,a4,0x18
    8000296c:	8fd9                	or	a5,a5,a4
    8000296e:	c0be                	sw	a5,64(sp)
    80002970:	dd1d                	beqz	a0,800028ae <lfs_file_write+0x27c>
    80002972:	549c                	lw	a5,40(s1)
    80002974:	00080737          	lui	a4,0x80
    80002978:	8fd9                	or	a5,a5,a4
    8000297a:	d49c                	sw	a5,40(s1)
    8000297c:	a819                	j	80002992 <lfs_file_write+0x360>
    8000297e:	0019079b          	addw	a5,s2,1
    80002982:	0027979b          	sllw	a5,a5,0x2
    80002986:	b535                	j	800027b2 <lfs_file_write+0x180>
    80002988:	549c                	lw	a5,40(s1)
    8000298a:	00080737          	lui	a4,0x80
    8000298e:	8fd9                	or	a5,a5,a4
    80002990:	d49c                	sw	a5,40(s1)
    80002992:	70ea                	ld	ra,184(sp)
    80002994:	744a                	ld	s0,176(sp)
    80002996:	74aa                	ld	s1,168(sp)
    80002998:	790a                	ld	s2,160(sp)
    8000299a:	69ea                	ld	s3,152(sp)
    8000299c:	6a4a                	ld	s4,144(sp)
    8000299e:	6aaa                	ld	s5,136(sp)
    800029a0:	6b0a                	ld	s6,128(sp)
    800029a2:	7be6                	ld	s7,120(sp)
    800029a4:	7c46                	ld	s8,112(sp)
    800029a6:	7ca6                	ld	s9,104(sp)
    800029a8:	7d06                	ld	s10,96(sp)
    800029aa:	6de6                	ld	s11,88(sp)
    800029ac:	6129                	add	sp,sp,192
    800029ae:	8082                	ret
    800029b0:	54dc                	lw	a5,44(s1)
    800029b2:	012787bb          	addw	a5,a5,s2
    800029b6:	d4dc                	sw	a5,44(s1)
    800029b8:	58dc                	lw	a5,52(s1)
    800029ba:	012787bb          	addw	a5,a5,s2
    800029be:	d8dc                	sw	a5,52(s1)
    800029c0:	02091793          	sll	a5,s2,0x20
    800029c4:	9381                	srl	a5,a5,0x20
    800029c6:	6742                	ld	a4,16(sp)
    800029c8:	97ba                	add	a5,a5,a4
    800029ca:	e83e                	sd	a5,16(sp)
    800029cc:	412c0c3b          	subw	s8,s8,s2
    800029d0:	601c                	ld	a5,0(s0)
    800029d2:	5bdc                	lw	a5,52(a5)
    800029d4:	c47c                	sw	a5,76(s0)
    800029d6:	ce0c1be3          	bnez	s8,800026cc <lfs_file_write+0x9a>
    800029da:	549c                	lw	a5,40(s1)
    800029dc:	fff80737          	lui	a4,0xfff80
    800029e0:	177d                	add	a4,a4,-1 # fffffffffff7ffff <_sp+0xffffffff70f7ffff>
    800029e2:	8ff9                	and	a5,a5,a4
    800029e4:	d49c                	sw	a5,40(s1)
    800029e6:	000b851b          	sext.w	a0,s7
    800029ea:	b765                	j	80002992 <lfs_file_write+0x360>
    800029ec:	555d                	li	a0,-9
    800029ee:	b755                	j	80002992 <lfs_file_write+0x360>
    800029f0:	5515                	li	a0,-27
    800029f2:	b745                	j	80002992 <lfs_file_write+0x360>

00000000800029f4 <lfs_file_flush>:
    800029f4:	7175                	add	sp,sp,-144
    800029f6:	e506                	sd	ra,136(sp)
    800029f8:	e122                	sd	s0,128(sp)
    800029fa:	fca6                	sd	s1,120(sp)
    800029fc:	f8ca                	sd	s2,112(sp)
    800029fe:	f4ce                	sd	s3,104(sp)
    80002a00:	f0d2                	sd	s4,96(sp)
    80002a02:	ecd6                	sd	s5,88(sp)
    80002a04:	842a                	mv	s0,a0
    80002a06:	84ae                	mv	s1,a1
    80002a08:	5598                	lw	a4,40(a1)
    80002a0a:	01275793          	srl	a5,a4,0x12
    80002a0e:	8b85                	and	a5,a5,1
    80002a10:	cb81                	beqz	a5,80002a20 <lfs_file_flush+0x2c>
    80002a12:	57fd                	li	a5,-1
    80002a14:	dd9c                	sw	a5,56(a1)
    80002a16:	fffc07b7          	lui	a5,0xfffc0
    80002a1a:	17fd                	add	a5,a5,-1 # fffffffffffbffff <_sp+0xffffffff70fbffff>
    80002a1c:	8f7d                	and	a4,a4,a5
    80002a1e:	d598                	sw	a4,40(a1)
    80002a20:	549c                	lw	a5,40(s1)
    80002a22:	83c5                	srl	a5,a5,0x11
    80002a24:	8b85                	and	a5,a5,1
    80002a26:	4501                	li	a0,0
    80002a28:	cbd5                	beqz	a5,80002adc <lfs_file_flush+0xe8>
    80002a2a:	02c4a983          	lw	s3,44(s1)
    80002a2e:	e402                	sd	zero,8(sp)
    80002a30:	e802                	sd	zero,16(sp)
    80002a32:	ec02                	sd	zero,24(sp)
    80002a34:	f002                	sd	zero,32(sp)
    80002a36:	f402                	sd	zero,40(sp)
    80002a38:	fc02                	sd	zero,56(sp)
    80002a3a:	48dc                	lw	a5,20(s1)
    80002a3c:	ce3e                	sw	a5,28(sp)
    80002a3e:	4c9c                	lw	a5,24(s1)
    80002a40:	d03e                	sw	a5,32(sp)
    80002a42:	4785                	li	a5,1
    80002a44:	d83e                	sw	a5,48(sp)
    80002a46:	da4e                	sw	s3,52(sp)
    80002a48:	701c                	ld	a5,32(s0)
    80002a4a:	e0be                	sd	a5,64(sp)
    80002a4c:	741c                	ld	a5,40(s0)
    80002a4e:	e4be                	sd	a5,72(sp)
    80002a50:	57fd                	li	a5,-1
    80002a52:	d01c                	sw	a5,32(s0)
    80002a54:	54d8                	lw	a4,44(s1)
    80002a56:	4c9c                	lw	a5,24(s1)
    80002a58:	04f77163          	bgeu	a4,a5,80002a9a <lfs_file_flush+0xa6>
    80002a5c:	597d                	li	s2,-1
    80002a5e:	a029                	j	80002a68 <lfs_file_flush+0x74>
    80002a60:	54d8                	lw	a4,44(s1)
    80002a62:	4c9c                	lw	a5,24(s1)
    80002a64:	02f77b63          	bgeu	a4,a5,80002a9a <lfs_file_flush+0xa6>
    80002a68:	4685                	li	a3,1
    80002a6a:	00710613          	add	a2,sp,7
    80002a6e:	002c                	add	a1,sp,8
    80002a70:	8522                	mv	a0,s0
    80002a72:	07c000ef          	jal	80002aee <lfs_file_read>
    80002a76:	06054363          	bltz	a0,80002adc <lfs_file_flush+0xe8>
    80002a7a:	4685                	li	a3,1
    80002a7c:	00710613          	add	a2,sp,7
    80002a80:	85a6                	mv	a1,s1
    80002a82:	8522                	mv	a0,s0
    80002a84:	bafff0ef          	jal	80002632 <lfs_file_write>
    80002a88:	04054a63          	bltz	a0,80002adc <lfs_file_flush+0xe8>
    80002a8c:	501c                	lw	a5,32(s0)
    80002a8e:	fd2789e3          	beq	a5,s2,80002a60 <lfs_file_flush+0x6c>
    80002a92:	c0ca                	sw	s2,64(sp)
    80002a94:	03242023          	sw	s2,32(s0)
    80002a98:	b7e1                	j	80002a60 <lfs_file_flush+0x6c>
    80002a9a:	02040a13          	add	s4,s0,32
    80002a9e:	03848913          	add	s2,s1,56
    80002aa2:	fcc00a93          	li	s5,-52
    80002aa6:	8652                	mv	a2,s4
    80002aa8:	85ca                	mv	a1,s2
    80002aaa:	8522                	mv	a0,s0
    80002aac:	984ff0ef          	jal	80001c30 <lfs_cache_flush>
    80002ab0:	c909                	beqz	a0,80002ac2 <lfs_file_flush+0xce>
    80002ab2:	03551563          	bne	a0,s5,80002adc <lfs_file_flush+0xe8>
    80002ab6:	85a6                	mv	a1,s1
    80002ab8:	8522                	mv	a0,s0
    80002aba:	a81ff0ef          	jal	8000253a <lfs_file_relocate>
    80002abe:	d565                	beqz	a0,80002aa6 <lfs_file_flush+0xb2>
    80002ac0:	a831                	j	80002adc <lfs_file_flush+0xe8>
    80002ac2:	589c                	lw	a5,48(s1)
    80002ac4:	c8dc                	sw	a5,20(s1)
    80002ac6:	54dc                	lw	a5,44(s1)
    80002ac8:	cc9c                	sw	a5,24(s1)
    80002aca:	549c                	lw	a5,40(s1)
    80002acc:	7701                	lui	a4,0xfffe0
    80002ace:	177d                	add	a4,a4,-1 # fffffffffffdffff <_sp+0xffffffff70fdffff>
    80002ad0:	8ff9                	and	a5,a5,a4
    80002ad2:	6741                	lui	a4,0x10
    80002ad4:	8fd9                	or	a5,a5,a4
    80002ad6:	d49c                	sw	a5,40(s1)
    80002ad8:	0334a623          	sw	s3,44(s1)
    80002adc:	60aa                	ld	ra,136(sp)
    80002ade:	640a                	ld	s0,128(sp)
    80002ae0:	74e6                	ld	s1,120(sp)
    80002ae2:	7946                	ld	s2,112(sp)
    80002ae4:	79a6                	ld	s3,104(sp)
    80002ae6:	7a06                	ld	s4,96(sp)
    80002ae8:	6ae6                	ld	s5,88(sp)
    80002aea:	6149                	add	sp,sp,144
    80002aec:	8082                	ret

0000000080002aee <lfs_file_read>:
    80002aee:	711d                	add	sp,sp,-96
    80002af0:	ec86                	sd	ra,88(sp)
    80002af2:	e8a2                	sd	s0,80(sp)
    80002af4:	e4a6                	sd	s1,72(sp)
    80002af6:	e0ca                	sd	s2,64(sp)
    80002af8:	fc4e                	sd	s3,56(sp)
    80002afa:	f852                	sd	s4,48(sp)
    80002afc:	f456                	sd	s5,40(sp)
    80002afe:	f05a                	sd	s6,32(sp)
    80002b00:	ec5e                	sd	s7,24(sp)
    80002b02:	e862                	sd	s8,16(sp)
    80002b04:	e466                	sd	s9,8(sp)
    80002b06:	84b6                	mv	s1,a3
    80002b08:	559c                	lw	a5,40(a1)
    80002b0a:	0037f693          	and	a3,a5,3
    80002b0e:	4709                	li	a4,2
    80002b10:	0ce68463          	beq	a3,a4,80002bd8 <lfs_file_read+0xea>
    80002b14:	892a                	mv	s2,a0
    80002b16:	842e                	mv	s0,a1
    80002b18:	89b2                	mv	s3,a2
    80002b1a:	83c5                	srl	a5,a5,0x11
    80002b1c:	8b85                	and	a5,a5,1
    80002b1e:	eb85                	bnez	a5,80002b4e <lfs_file_read+0x60>
    80002b20:	5458                	lw	a4,44(s0)
    80002b22:	4c1c                	lw	a5,24(s0)
    80002b24:	0af77c63          	bgeu	a4,a5,80002bdc <lfs_file_read+0xee>
    80002b28:	9f99                	subw	a5,a5,a4
    80002b2a:	8c3e                	mv	s8,a5
    80002b2c:	2781                	sext.w	a5,a5
    80002b2e:	00f4f363          	bgeu	s1,a5,80002b34 <lfs_file_read+0x46>
    80002b32:	8c26                	mv	s8,s1
    80002b34:	2c01                	sext.w	s8,s8
    80002b36:	080c0e63          	beqz	s8,80002bd2 <lfs_file_read+0xe4>
    80002b3a:	84e2                	mv	s1,s8
    80002b3c:	00040ab7          	lui	s5,0x40
    80002b40:	03440b93          	add	s7,s0,52
    80002b44:	03040b13          	add	s6,s0,48
    80002b48:	03840a13          	add	s4,s0,56
    80002b4c:	a0bd                	j	80002bba <lfs_file_read+0xcc>
    80002b4e:	ea7ff0ef          	jal	800029f4 <lfs_file_flush>
    80002b52:	d579                	beqz	a0,80002b20 <lfs_file_read+0x32>
    80002b54:	a069                	j	80002bde <lfs_file_read+0xf0>
    80002b56:	88de                	mv	a7,s7
    80002b58:	885a                	mv	a6,s6
    80002b5a:	545c                	lw	a5,44(s0)
    80002b5c:	4c18                	lw	a4,24(s0)
    80002b5e:	4854                	lw	a3,20(s0)
    80002b60:	4601                	li	a2,0
    80002b62:	85d2                	mv	a1,s4
    80002b64:	854a                	mv	a0,s2
    80002b66:	f25fe0ef          	jal	80001a8a <lfs_ctz_find>
    80002b6a:	e935                	bnez	a0,80002bde <lfs_file_read+0xf0>
    80002b6c:	541c                	lw	a5,40(s0)
    80002b6e:	0157e7b3          	or	a5,a5,s5
    80002b72:	d41c                	sw	a5,40(s0)
    80002b74:	5858                	lw	a4,52(s0)
    80002b76:	00093783          	ld	a5,0(s2)
    80002b7a:	5b94                	lw	a3,48(a5)
    80002b7c:	9e99                	subw	a3,a3,a4
    80002b7e:	8cb6                	mv	s9,a3
    80002b80:	2681                	sext.w	a3,a3
    80002b82:	00d4f363          	bgeu	s1,a3,80002b88 <lfs_file_read+0x9a>
    80002b86:	8ca6                	mv	s9,s1
    80002b88:	000c881b          	sext.w	a6,s9
    80002b8c:	87ce                	mv	a5,s3
    80002b8e:	5814                	lw	a3,48(s0)
    80002b90:	4601                	li	a2,0
    80002b92:	85d2                	mv	a1,s4
    80002b94:	854a                	mv	a0,s2
    80002b96:	c94fe0ef          	jal	8000102a <lfs_cache_read>
    80002b9a:	e131                	bnez	a0,80002bde <lfs_file_read+0xf0>
    80002b9c:	545c                	lw	a5,44(s0)
    80002b9e:	00fc87bb          	addw	a5,s9,a5
    80002ba2:	d45c                	sw	a5,44(s0)
    80002ba4:	585c                	lw	a5,52(s0)
    80002ba6:	00fc87bb          	addw	a5,s9,a5
    80002baa:	d85c                	sw	a5,52(s0)
    80002bac:	020c9793          	sll	a5,s9,0x20
    80002bb0:	9381                	srl	a5,a5,0x20
    80002bb2:	99be                	add	s3,s3,a5
    80002bb4:	419484bb          	subw	s1,s1,s9
    80002bb8:	cc89                	beqz	s1,80002bd2 <lfs_file_read+0xe4>
    80002bba:	541c                	lw	a5,40(s0)
    80002bbc:	0157f7b3          	and	a5,a5,s5
    80002bc0:	2781                	sext.w	a5,a5
    80002bc2:	dbd1                	beqz	a5,80002b56 <lfs_file_read+0x68>
    80002bc4:	00093783          	ld	a5,0(s2)
    80002bc8:	5858                	lw	a4,52(s0)
    80002bca:	5b9c                	lw	a5,48(a5)
    80002bcc:	faf714e3          	bne	a4,a5,80002b74 <lfs_file_read+0x86>
    80002bd0:	b759                	j	80002b56 <lfs_file_read+0x68>
    80002bd2:	000c051b          	sext.w	a0,s8
    80002bd6:	a021                	j	80002bde <lfs_file_read+0xf0>
    80002bd8:	555d                	li	a0,-9
    80002bda:	a011                	j	80002bde <lfs_file_read+0xf0>
    80002bdc:	4501                	li	a0,0
    80002bde:	60e6                	ld	ra,88(sp)
    80002be0:	6446                	ld	s0,80(sp)
    80002be2:	64a6                	ld	s1,72(sp)
    80002be4:	6906                	ld	s2,64(sp)
    80002be6:	79e2                	ld	s3,56(sp)
    80002be8:	7a42                	ld	s4,48(sp)
    80002bea:	7aa2                	ld	s5,40(sp)
    80002bec:	7b02                	ld	s6,32(sp)
    80002bee:	6be2                	ld	s7,24(sp)
    80002bf0:	6c42                	ld	s8,16(sp)
    80002bf2:	6ca2                	ld	s9,8(sp)
    80002bf4:	6125                	add	sp,sp,96
    80002bf6:	8082                	ret

0000000080002bf8 <lfs_file_seek>:
    80002bf8:	1101                	add	sp,sp,-32
    80002bfa:	ec06                	sd	ra,24(sp)
    80002bfc:	e822                	sd	s0,16(sp)
    80002bfe:	e426                	sd	s1,8(sp)
    80002c00:	e04a                	sd	s2,0(sp)
    80002c02:	84ae                	mv	s1,a1
    80002c04:	8432                	mv	s0,a2
    80002c06:	8936                	mv	s2,a3
    80002c08:	dedff0ef          	jal	800029f4 <lfs_file_flush>
    80002c0c:	e105                	bnez	a0,80002c2c <lfs_file_seek+0x34>
    80002c0e:	54dc                	lw	a5,44(s1)
    80002c10:	00090a63          	beqz	s2,80002c24 <lfs_file_seek+0x2c>
    80002c14:	4705                	li	a4,1
    80002c16:	02e90163          	beq	s2,a4,80002c38 <lfs_file_seek+0x40>
    80002c1a:	4709                	li	a4,2
    80002c1c:	02e90063          	beq	s2,a4,80002c3c <lfs_file_seek+0x44>
    80002c20:	0007841b          	sext.w	s0,a5
    80002c24:	00044f63          	bltz	s0,80002c42 <lfs_file_seek+0x4a>
    80002c28:	d4c0                	sw	s0,44(s1)
    80002c2a:	8522                	mv	a0,s0
    80002c2c:	60e2                	ld	ra,24(sp)
    80002c2e:	6442                	ld	s0,16(sp)
    80002c30:	64a2                	ld	s1,8(sp)
    80002c32:	6902                	ld	s2,0(sp)
    80002c34:	6105                	add	sp,sp,32
    80002c36:	8082                	ret
    80002c38:	9c3d                	addw	s0,s0,a5
    80002c3a:	b7ed                	j	80002c24 <lfs_file_seek+0x2c>
    80002c3c:	4c9c                	lw	a5,24(s1)
    80002c3e:	9c3d                	addw	s0,s0,a5
    80002c40:	b7d5                	j	80002c24 <lfs_file_seek+0x2c>
    80002c42:	5529                	li	a0,-22
    80002c44:	b7e5                	j	80002c2c <lfs_file_seek+0x34>

0000000080002c46 <lfs_file_rewind>:
    80002c46:	1141                	add	sp,sp,-16
    80002c48:	e406                	sd	ra,8(sp)
    80002c4a:	4681                	li	a3,0
    80002c4c:	4601                	li	a2,0
    80002c4e:	fabff0ef          	jal	80002bf8 <lfs_file_seek>
    80002c52:	87aa                	mv	a5,a0
    80002c54:	00a05363          	blez	a0,80002c5a <lfs_file_rewind+0x14>
    80002c58:	4781                	li	a5,0
    80002c5a:	0007851b          	sext.w	a0,a5
    80002c5e:	60a2                	ld	ra,8(sp)
    80002c60:	0141                	add	sp,sp,16
    80002c62:	8082                	ret

0000000080002c64 <lfs_file_truncate>:
    80002c64:	559c                	lw	a5,40(a1)
    80002c66:	8b8d                	and	a5,a5,3
    80002c68:	4705                	li	a4,1
    80002c6a:	0ce78063          	beq	a5,a4,80002d2a <lfs_file_truncate+0xc6>
    80002c6e:	7139                	add	sp,sp,-64
    80002c70:	fc06                	sd	ra,56(sp)
    80002c72:	f822                	sd	s0,48(sp)
    80002c74:	f426                	sd	s1,40(sp)
    80002c76:	f04a                	sd	s2,32(sp)
    80002c78:	ec4e                	sd	s3,24(sp)
    80002c7a:	892a                	mv	s2,a0
    80002c7c:	842e                	mv	s0,a1
    80002c7e:	84b2                	mv	s1,a2
    80002c80:	b7aff0ef          	jal	80001ffa <lfs_file_size>
    80002c84:	0005079b          	sext.w	a5,a0
    80002c88:	04f4e763          	bltu	s1,a5,80002cd6 <lfs_file_truncate+0x72>
    80002c8c:	4501                	li	a0,0
    80002c8e:	0497f963          	bgeu	a5,s1,80002ce0 <lfs_file_truncate+0x7c>
    80002c92:	02c42983          	lw	s3,44(s0)
    80002c96:	09379163          	bne	a5,s3,80002d18 <lfs_file_truncate+0xb4>
    80002c9a:	545c                	lw	a5,44(s0)
    80002c9c:	0297f063          	bgeu	a5,s1,80002cbc <lfs_file_truncate+0x58>
    80002ca0:	000107a3          	sb	zero,15(sp)
    80002ca4:	4685                	li	a3,1
    80002ca6:	00f10613          	add	a2,sp,15
    80002caa:	85a2                	mv	a1,s0
    80002cac:	854a                	mv	a0,s2
    80002cae:	985ff0ef          	jal	80002632 <lfs_file_write>
    80002cb2:	02054763          	bltz	a0,80002ce0 <lfs_file_truncate+0x7c>
    80002cb6:	545c                	lw	a5,44(s0)
    80002cb8:	fe97e4e3          	bltu	a5,s1,80002ca0 <lfs_file_truncate+0x3c>
    80002cbc:	4681                	li	a3,0
    80002cbe:	864e                	mv	a2,s3
    80002cc0:	85a2                	mv	a1,s0
    80002cc2:	854a                	mv	a0,s2
    80002cc4:	f35ff0ef          	jal	80002bf8 <lfs_file_seek>
    80002cc8:	87aa                	mv	a5,a0
    80002cca:	00a05363          	blez	a0,80002cd0 <lfs_file_truncate+0x6c>
    80002cce:	4781                	li	a5,0
    80002cd0:	0007851b          	sext.w	a0,a5
    80002cd4:	a031                	j	80002ce0 <lfs_file_truncate+0x7c>
    80002cd6:	85a2                	mv	a1,s0
    80002cd8:	854a                	mv	a0,s2
    80002cda:	d1bff0ef          	jal	800029f4 <lfs_file_flush>
    80002cde:	c901                	beqz	a0,80002cee <lfs_file_truncate+0x8a>
    80002ce0:	70e2                	ld	ra,56(sp)
    80002ce2:	7442                	ld	s0,48(sp)
    80002ce4:	74a2                	ld	s1,40(sp)
    80002ce6:	7902                	ld	s2,32(sp)
    80002ce8:	69e2                	ld	s3,24(sp)
    80002cea:	6121                	add	sp,sp,64
    80002cec:	8082                	ret
    80002cee:	c402                	sw	zero,8(sp)
    80002cf0:	00810893          	add	a7,sp,8
    80002cf4:	01440813          	add	a6,s0,20
    80002cf8:	87a6                	mv	a5,s1
    80002cfa:	4c18                	lw	a4,24(s0)
    80002cfc:	4854                	lw	a3,20(s0)
    80002cfe:	4601                	li	a2,0
    80002d00:	03840593          	add	a1,s0,56
    80002d04:	854a                	mv	a0,s2
    80002d06:	d85fe0ef          	jal	80001a8a <lfs_ctz_find>
    80002d0a:	f979                	bnez	a0,80002ce0 <lfs_file_truncate+0x7c>
    80002d0c:	cc04                	sw	s1,24(s0)
    80002d0e:	541c                	lw	a5,40(s0)
    80002d10:	6741                	lui	a4,0x10
    80002d12:	8fd9                	or	a5,a5,a4
    80002d14:	d41c                	sw	a5,40(s0)
    80002d16:	b7e9                	j	80002ce0 <lfs_file_truncate+0x7c>
    80002d18:	4689                	li	a3,2
    80002d1a:	4601                	li	a2,0
    80002d1c:	85a2                	mv	a1,s0
    80002d1e:	854a                	mv	a0,s2
    80002d20:	ed9ff0ef          	jal	80002bf8 <lfs_file_seek>
    80002d24:	f6055be3          	bgez	a0,80002c9a <lfs_file_truncate+0x36>
    80002d28:	bf65                	j	80002ce0 <lfs_file_truncate+0x7c>
    80002d2a:	555d                	li	a0,-9
    80002d2c:	8082                	ret

0000000080002d2e <lfs_deorphan>:
    80002d2e:	4785                	li	a5,1
    80002d30:	04f50c23          	sb	a5,88(a0)
    80002d34:	4518                	lw	a4,8(a0)
    80002d36:	57fd                	li	a5,-1
    80002d38:	14f70563          	beq	a4,a5,80002e82 <lfs_deorphan+0x154>
    80002d3c:	7131                	add	sp,sp,-192
    80002d3e:	fd06                	sd	ra,184(sp)
    80002d40:	f922                	sd	s0,176(sp)
    80002d42:	f526                	sd	s1,168(sp)
    80002d44:	f14a                	sd	s2,160(sp)
    80002d46:	842a                	mv	s0,a0
    80002d48:	4558                	lw	a4,12(a0)
    80002d4a:	12f70e63          	beq	a4,a5,80002e86 <lfs_deorphan+0x158>
    80002d4e:	f882                	sd	zero,112(sp)
    80002d50:	fc82                	sd	zero,120(sp)
    80002d52:	e102                	sd	zero,128(sp)
    80002d54:	e502                	sd	zero,136(sp)
    80002d56:	e902                	sd	zero,144(sp)
    80002d58:	ed02                	sd	zero,152(sp)
    80002d5a:	800007b7          	lui	a5,0x80000
    80002d5e:	cb3e                	sw	a5,148(sp)
    80002d60:	e082                	sd	zero,64(sp)
    80002d62:	e482                	sd	zero,72(sp)
    80002d64:	e882                	sd	zero,80(sp)
    80002d66:	ec82                	sd	zero,88(sp)
    80002d68:	f082                	sd	zero,96(sp)
    80002d6a:	d482                	sw	zero,104(sp)
    80002d6c:	4785                	li	a5,1
    80002d6e:	d6be                	sw	a5,108(sp)
    80002d70:	611c                	ld	a5,0(a0)
    80002d72:	5bdc                	lw	a5,52(a5)
    80002d74:	10078b63          	beqz	a5,80002e8a <lfs_deorphan+0x15c>
    80002d78:	4901                	li	s2,0
    80002d7a:	54fd                	li	s1,-1
    80002d7c:	57a6                	lw	a5,104(sp)
    80002d7e:	0e978963          	beq	a5,s1,80002e70 <lfs_deorphan+0x142>
    80002d82:	57b6                	lw	a5,108(sp)
    80002d84:	0e978d63          	beq	a5,s1,80002e7e <lfs_deorphan+0x150>
    80002d88:	10b0                	add	a2,sp,104
    80002d8a:	008c                	add	a1,sp,64
    80002d8c:	8522                	mv	a0,s0
    80002d8e:	c10fe0ef          	jal	8000119e <lfs_dir_fetch>
    80002d92:	e165                	bnez	a0,80002e72 <lfs_deorphan+0x144>
    80002d94:	47da                	lw	a5,148(sp)
    80002d96:	0207da63          	bgez	a5,80002dca <lfs_deorphan+0x9c>
    80002d9a:	0810                	add	a2,sp,16
    80002d9c:	008c                	add	a1,sp,64
    80002d9e:	8522                	mv	a0,s0
    80002da0:	d5afe0ef          	jal	800012fa <lfs_dir_next>
    80002da4:	e149                	bnez	a0,80002e26 <lfs_deorphan+0xf8>
    80002da6:	01410783          	lb	a5,20(sp)
    80002daa:	fe07d8e3          	bgez	a5,80002d9a <lfs_deorphan+0x6c>
    80002dae:	082c                	add	a1,sp,24
    80002db0:	8522                	mv	a0,s0
    80002db2:	e28fe0ef          	jal	800013da <lfs_moved>
    80002db6:	0a054e63          	bltz	a0,80002e72 <lfs_deorphan+0x144>
    80002dba:	cd49                	beqz	a0,80002e54 <lfs_deorphan+0x126>
    80002dbc:	0810                	add	a2,sp,16
    80002dbe:	008c                	add	a1,sp,64
    80002dc0:	8522                	mv	a0,s0
    80002dc2:	6e4000ef          	jal	800034a6 <lfs_dir_remove>
    80002dc6:	d971                	beqz	a0,80002d9a <lfs_deorphan+0x6c>
    80002dc8:	a06d                	j	80002e72 <lfs_deorphan+0x144>
    80002dca:	868a                	mv	a3,sp
    80002dcc:	0810                	add	a2,sp,16
    80002dce:	092c                	add	a1,sp,152
    80002dd0:	8522                	mv	a0,s0
    80002dd2:	ea0fe0ef          	jal	80001472 <lfs_parent>
    80002dd6:	08054e63          	bltz	a0,80002e72 <lfs_deorphan+0x144>
    80002dda:	c115                	beqz	a0,80002dfe <lfs_deorphan+0xd0>
    80002ddc:	47a2                	lw	a5,8(sp)
    80002dde:	476a                	lw	a4,152(sp)
    80002de0:	02e78a63          	beq	a5,a4,80002e14 <lfs_deorphan+0xe6>
    80002de4:	46fa                	lw	a3,156(sp)
    80002de6:	02f68c63          	beq	a3,a5,80002e1e <lfs_deorphan+0xf0>
    80002dea:	cd3e                	sw	a5,152(sp)
    80002dec:	47b2                	lw	a5,12(sp)
    80002dee:	cf3e                	sw	a5,156(sp)
    80002df0:	4681                	li	a3,0
    80002df2:	4601                	li	a2,0
    80002df4:	188c                	add	a1,sp,112
    80002df6:	8522                	mv	a0,s0
    80002df8:	098000ef          	jal	80002e90 <lfs_dir_commit>
    80002dfc:	a89d                	j	80002e72 <lfs_deorphan+0x144>
    80002dfe:	57a6                	lw	a5,104(sp)
    80002e00:	cd3e                	sw	a5,152(sp)
    80002e02:	57b6                	lw	a5,108(sp)
    80002e04:	cf3e                	sw	a5,156(sp)
    80002e06:	4681                	li	a3,0
    80002e08:	4601                	li	a2,0
    80002e0a:	188c                	add	a1,sp,112
    80002e0c:	8522                	mv	a0,s0
    80002e0e:	082000ef          	jal	80002e90 <lfs_dir_commit>
    80002e12:	a085                	j	80002e72 <lfs_deorphan+0x144>
    80002e14:	4632                	lw	a2,12(sp)
    80002e16:	46fa                	lw	a3,156(sp)
    80002e18:	fcd616e3          	bne	a2,a3,80002de4 <lfs_deorphan+0xb6>
    80002e1c:	bfbd                	j	80002d9a <lfs_deorphan+0x6c>
    80002e1e:	46b2                	lw	a3,12(sp)
    80002e20:	f6e68de3          	beq	a3,a4,80002d9a <lfs_deorphan+0x6c>
    80002e24:	b7d9                	j	80002dea <lfs_deorphan+0xbc>
    80002e26:	57f9                	li	a5,-2
    80002e28:	04f51563          	bne	a0,a5,80002e72 <lfs_deorphan+0x144>
    80002e2c:	6786                	ld	a5,64(sp)
    80002e2e:	f8be                	sd	a5,112(sp)
    80002e30:	67a6                	ld	a5,72(sp)
    80002e32:	fcbe                	sd	a5,120(sp)
    80002e34:	67c6                	ld	a5,80(sp)
    80002e36:	e13e                	sd	a5,128(sp)
    80002e38:	67e6                	ld	a5,88(sp)
    80002e3a:	e53e                	sd	a5,136(sp)
    80002e3c:	7786                	ld	a5,96(sp)
    80002e3e:	e93e                	sd	a5,144(sp)
    80002e40:	77a6                	ld	a5,104(sp)
    80002e42:	ed3e                	sd	a5,152(sp)
    80002e44:	2905                	addw	s2,s2,1
    80002e46:	601c                	ld	a5,0(s0)
    80002e48:	5bdc                	lw	a5,52(a5)
    80002e4a:	f2f969e3          	bltu	s2,a5,80002d7c <lfs_deorphan+0x4e>
    80002e4e:	fcc00513          	li	a0,-52
    80002e52:	a005                	j	80002e72 <lfs_deorphan+0x144>
    80002e54:	01414783          	lbu	a5,20(sp)
    80002e58:	07f7f793          	and	a5,a5,127
    80002e5c:	00f10a23          	sb	a5,20(sp)
    80002e60:	4681                	li	a3,0
    80002e62:	0810                	add	a2,sp,16
    80002e64:	008c                	add	a1,sp,64
    80002e66:	8522                	mv	a0,s0
    80002e68:	3b6000ef          	jal	8000321e <lfs_dir_update>
    80002e6c:	d51d                	beqz	a0,80002d9a <lfs_deorphan+0x6c>
    80002e6e:	a011                	j	80002e72 <lfs_deorphan+0x144>
    80002e70:	4501                	li	a0,0
    80002e72:	70ea                	ld	ra,184(sp)
    80002e74:	744a                	ld	s0,176(sp)
    80002e76:	74aa                	ld	s1,168(sp)
    80002e78:	790a                	ld	s2,160(sp)
    80002e7a:	6129                	add	sp,sp,192
    80002e7c:	8082                	ret
    80002e7e:	4501                	li	a0,0
    80002e80:	bfcd                	j	80002e72 <lfs_deorphan+0x144>
    80002e82:	4501                	li	a0,0
    80002e84:	8082                	ret
    80002e86:	4501                	li	a0,0
    80002e88:	b7ed                	j	80002e72 <lfs_deorphan+0x144>
    80002e8a:	fcc00513          	li	a0,-52
    80002e8e:	b7d5                	j	80002e72 <lfs_deorphan+0x144>

0000000080002e90 <lfs_dir_commit>:
    80002e90:	7115                	add	sp,sp,-224
    80002e92:	ed86                	sd	ra,216(sp)
    80002e94:	e9a2                	sd	s0,208(sp)
    80002e96:	e5a6                	sd	s1,200(sp)
    80002e98:	e1ca                	sd	s2,192(sp)
    80002e9a:	fd4e                	sd	s3,184(sp)
    80002e9c:	f952                	sd	s4,176(sp)
    80002e9e:	f556                	sd	s5,168(sp)
    80002ea0:	f15a                	sd	s6,160(sp)
    80002ea2:	ed5e                	sd	s7,152(sp)
    80002ea4:	e962                	sd	s8,144(sp)
    80002ea6:	e566                	sd	s9,136(sp)
    80002ea8:	e16a                	sd	s10,128(sp)
    80002eaa:	fcee                	sd	s11,120(sp)
    80002eac:	8d2a                	mv	s10,a0
    80002eae:	842e                	mv	s0,a1
    80002eb0:	8bb2                	mv	s7,a2
    80002eb2:	89b6                	mv	s3,a3
    80002eb4:	519c                	lw	a5,32(a1)
    80002eb6:	2785                	addw	a5,a5,1 # ffffffff80000001 <_sp+0xfffffffef1000001>
    80002eb8:	d19c                	sw	a5,32(a1)
    80002eba:	00858793          	add	a5,a1,8
    80002ebe:	ec3e                	sd	a5,24(sp)
    80002ec0:	0085ab03          	lw	s6,8(a1)
    80002ec4:	00c5ac83          	lw	s9,12(a1)
    80002ec8:	0195a423          	sw	s9,8(a1)
    80002ecc:	0165a623          	sw	s6,12(a1)
    80002ed0:	02d05263          	blez	a3,80002ef4 <lfs_dir_commit+0x64>
    80002ed4:	00460713          	add	a4,a2,4
    80002ed8:	00169613          	sll	a2,a3,0x1
    80002edc:	9636                	add	a2,a2,a3
    80002ede:	060e                	sll	a2,a2,0x3
    80002ee0:	963a                	add	a2,a2,a4
    80002ee2:	5054                	lw	a3,36(s0)
    80002ee4:	475c                	lw	a5,12(a4)
    80002ee6:	9fb5                	addw	a5,a5,a3
    80002ee8:	4314                	lw	a3,0(a4)
    80002eea:	9f95                	subw	a5,a5,a3
    80002eec:	d05c                	sw	a5,36(s0)
    80002eee:	0761                	add	a4,a4,24 # 10018 <_start-0x7ffeffe8>
    80002ef0:	fec719e3          	bne	a4,a2,80002ee2 <lfs_dir_commit+0x52>
    80002ef4:	d4e6                	sw	s9,104(sp)
    80002ef6:	d6da                	sw	s6,108(sp)
    80002ef8:	e802                	sd	zero,16(sp)
    80002efa:	5dfd                	li	s11,-1
    80002efc:	440c                	lw	a1,8(s0)
    80002efe:	856a                	mv	a0,s10
    80002f00:	eb7fd0ef          	jal	80000db6 <lfs_bd_erase>
    80002f04:	84aa                	mv	s1,a0
    80002f06:	c50d                	beqz	a0,80002f30 <lfs_dir_commit+0xa0>
    80002f08:	fcc00793          	li	a5,-52
    80002f0c:	2ef51463          	bne	a0,a5,800031f4 <lfs_dir_commit+0x364>
    80002f10:	03bd2823          	sw	s11,48(s10) # 20030 <_start-0x7ffdffd0>
    80002f14:	4785                	li	a5,1
    80002f16:	2d97fd63          	bgeu	a5,s9,800031f0 <lfs_dir_commit+0x360>
    80002f1a:	2f67fd63          	bgeu	a5,s6,80003214 <lfs_dir_commit+0x384>
    80002f1e:	65e2                	ld	a1,24(sp)
    80002f20:	856a                	mv	a0,s10
    80002f22:	ca6ff0ef          	jal	800023c8 <lfs_alloc>
    80002f26:	84aa                	mv	s1,a0
    80002f28:	4785                	li	a5,1
    80002f2a:	e83e                	sd	a5,16(sp)
    80002f2c:	d961                	beqz	a0,80002efc <lfs_dir_commit+0x6c>
    80002f2e:	a4d9                	j	800031f4 <lfs_dir_commit+0x364>
    80002f30:	57fd                	li	a5,-1
    80002f32:	d43e                	sw	a5,40(sp)
    80002f34:	02040493          	add	s1,s0,32
    80002f38:	8526                	mv	a0,s1
    80002f3a:	f7bfd0ef          	jal	80000eb4 <lfs_dir_tole32>
    80002f3e:	4641                	li	a2,16
    80002f40:	85a6                	mv	a1,s1
    80002f42:	1028                	add	a0,sp,40
    80002f44:	4ef000ef          	jal	80003c32 <lfs_crc>
    80002f48:	030d0793          	add	a5,s10,48
    80002f4c:	85be                	mv	a1,a5
    80002f4e:	e03e                	sd	a5,0(sp)
    80002f50:	4841                	li	a6,16
    80002f52:	87a6                	mv	a5,s1
    80002f54:	4701                	li	a4,0
    80002f56:	4414                	lw	a3,8(s0)
    80002f58:	4601                	li	a2,0
    80002f5a:	856a                	mv	a0,s10
    80002f5c:	d55fe0ef          	jal	80001cb0 <lfs_cache_prog>
    80002f60:	8a2a                	mv	s4,a0
    80002f62:	8526                	mv	a0,s1
    80002f64:	e97fd0ef          	jal	80000dfa <lfs_dir_fromle32>
    80002f68:	000a0863          	beqz	s4,80002f78 <lfs_dir_commit+0xe8>
    80002f6c:	fcc00793          	li	a5,-52
    80002f70:	fafa00e3          	beq	s4,a5,80002f10 <lfs_dir_commit+0x80>
    80002f74:	84d2                	mv	s1,s4
    80002f76:	acbd                	j	800031f4 <lfs_dir_commit+0x364>
    80002f78:	505c                	lw	a5,36(s0)
    80002f7a:	1786                	sll	a5,a5,0x21
    80002f7c:	9385                	srl	a5,a5,0x21
    80002f7e:	37f1                	addw	a5,a5,-4
    80002f80:	4741                	li	a4,16
    80002f82:	4ac1                	li	s5,16
    80002f84:	4c41                	li	s8,16
    80002f86:	00f77863          	bgeu	a4,a5,80002f96 <lfs_dir_commit+0x106>
    80002f8a:	800007b7          	lui	a5,0x80000
    80002f8e:	fff7c793          	not	a5,a5
    80002f92:	e43e                	sd	a5,8(sp)
    80002f94:	a0f9                	j	80003062 <lfs_dir_commit+0x1d2>
    80002f96:	4ac1                	li	s5,16
    80002f98:	5722                	lw	a4,40(sp)
    80002f9a:	00875793          	srl	a5,a4,0x8
    80002f9e:	0ff7f793          	zext.b	a5,a5
    80002fa2:	0087979b          	sllw	a5,a5,0x8
    80002fa6:	01075693          	srl	a3,a4,0x10
    80002faa:	0ff6f693          	zext.b	a3,a3
    80002fae:	0106969b          	sllw	a3,a3,0x10
    80002fb2:	8fd5                	or	a5,a5,a3
    80002fb4:	0ff77693          	zext.b	a3,a4
    80002fb8:	8fd5                	or	a5,a5,a3
    80002fba:	0187571b          	srlw	a4,a4,0x18
    80002fbe:	0187171b          	sllw	a4,a4,0x18
    80002fc2:	8fd9                	or	a5,a5,a4
    80002fc4:	d43e                	sw	a5,40(sp)
    80002fc6:	4811                	li	a6,4
    80002fc8:	103c                	add	a5,sp,40
    80002fca:	8756                	mv	a4,s5
    80002fcc:	4414                	lw	a3,8(s0)
    80002fce:	4601                	li	a2,0
    80002fd0:	6582                	ld	a1,0(sp)
    80002fd2:	856a                	mv	a0,s10
    80002fd4:	cddfe0ef          	jal	80001cb0 <lfs_cache_prog>
    80002fd8:	84aa                	mv	s1,a0
    80002fda:	5722                	lw	a4,40(sp)
    80002fdc:	00875793          	srl	a5,a4,0x8
    80002fe0:	0ff7f793          	zext.b	a5,a5
    80002fe4:	0087979b          	sllw	a5,a5,0x8
    80002fe8:	01075693          	srl	a3,a4,0x10
    80002fec:	0ff6f693          	zext.b	a3,a3
    80002ff0:	0106969b          	sllw	a3,a3,0x10
    80002ff4:	8fd5                	or	a5,a5,a3
    80002ff6:	0ff77693          	zext.b	a3,a4
    80002ffa:	8fd5                	or	a5,a5,a3
    80002ffc:	0187571b          	srlw	a4,a4,0x18
    80003000:	0187171b          	sllw	a4,a4,0x18
    80003004:	8fd9                	or	a5,a5,a4
    80003006:	d43e                	sw	a5,40(sp)
    80003008:	c95d                	beqz	a0,800030be <lfs_dir_commit+0x22e>
    8000300a:	fcc00793          	li	a5,-52
    8000300e:	f0f501e3          	beq	a0,a5,80002f10 <lfs_dir_commit+0x80>
    80003012:	a2cd                	j	800031f4 <lfs_dir_commit+0x364>
    80003014:	fcc00793          	li	a5,-52
    80003018:	eef50ce3          	beq	a0,a5,80002f10 <lfs_dir_commit+0x80>
    8000301c:	aae1                	j	800031f4 <lfs_dir_commit+0x364>
    8000301e:	4705                	li	a4,1
    80003020:	1834                	add	a3,sp,56
    80003022:	8662                	mv	a2,s8
    80003024:	85da                	mv	a1,s6
    80003026:	856a                	mv	a0,s10
    80003028:	95afe0ef          	jal	80001182 <lfs_bd_read>
    8000302c:	84aa                	mv	s1,a0
    8000302e:	1c051363          	bnez	a0,800031f4 <lfs_dir_commit+0x364>
    80003032:	4605                	li	a2,1
    80003034:	182c                	add	a1,sp,56
    80003036:	1028                	add	a0,sp,40
    80003038:	3fb000ef          	jal	80003c32 <lfs_crc>
    8000303c:	4805                	li	a6,1
    8000303e:	183c                	add	a5,sp,56
    80003040:	8756                	mv	a4,s5
    80003042:	4414                	lw	a3,8(s0)
    80003044:	4601                	li	a2,0
    80003046:	6582                	ld	a1,0(sp)
    80003048:	856a                	mv	a0,s10
    8000304a:	c67fe0ef          	jal	80001cb0 <lfs_cache_prog>
    8000304e:	84aa                	mv	s1,a0
    80003050:	e135                	bnez	a0,800030b4 <lfs_dir_commit+0x224>
    80003052:	2c05                	addw	s8,s8,1
    80003054:	2a85                	addw	s5,s5,1 # 40001 <_start-0x7ffbffff>
    80003056:	505c                	lw	a5,36(s0)
    80003058:	6722                	ld	a4,8(sp)
    8000305a:	8ff9                	and	a5,a5,a4
    8000305c:	37f1                	addw	a5,a5,-4 # 7ffffffc <_start-0x4>
    8000305e:	f2fafde3          	bgeu	s5,a5,80002f98 <lfs_dir_commit+0x108>
    80003062:	fb3a5ee3          	bge	s4,s3,8000301e <lfs_dir_commit+0x18e>
    80003066:	001a1913          	sll	s2,s4,0x1
    8000306a:	9952                	add	s2,s2,s4
    8000306c:	090e                	sll	s2,s2,0x3
    8000306e:	995e                	add	s2,s2,s7
    80003070:	00092783          	lw	a5,0(s2)
    80003074:	fb8795e3          	bne	a5,s8,8000301e <lfs_dir_commit+0x18e>
    80003078:	01096603          	lwu	a2,16(s2)
    8000307c:	00893583          	ld	a1,8(s2)
    80003080:	1028                	add	a0,sp,40
    80003082:	3b1000ef          	jal	80003c32 <lfs_crc>
    80003086:	01092803          	lw	a6,16(s2)
    8000308a:	00893783          	ld	a5,8(s2)
    8000308e:	8756                	mv	a4,s5
    80003090:	4414                	lw	a3,8(s0)
    80003092:	4601                	li	a2,0
    80003094:	6582                	ld	a1,0(sp)
    80003096:	856a                	mv	a0,s10
    80003098:	c19fe0ef          	jal	80001cb0 <lfs_cache_prog>
    8000309c:	84aa                	mv	s1,a0
    8000309e:	f93d                	bnez	a0,80003014 <lfs_dir_commit+0x184>
    800030a0:	00492783          	lw	a5,4(s2)
    800030a4:	01878c3b          	addw	s8,a5,s8
    800030a8:	01092783          	lw	a5,16(s2)
    800030ac:	01578abb          	addw	s5,a5,s5
    800030b0:	2a05                	addw	s4,s4,1
    800030b2:	b755                	j	80003056 <lfs_dir_commit+0x1c6>
    800030b4:	fcc00793          	li	a5,-52
    800030b8:	e4f50ce3          	beq	a0,a5,80002f10 <lfs_dir_commit+0x80>
    800030bc:	aa25                	j	800031f4 <lfs_dir_commit+0x364>
    800030be:	57fd                	li	a5,-1
    800030c0:	02fd2023          	sw	a5,32(s10)
    800030c4:	4601                	li	a2,0
    800030c6:	6582                	ld	a1,0(sp)
    800030c8:	856a                	mv	a0,s10
    800030ca:	b67fe0ef          	jal	80001c30 <lfs_cache_flush>
    800030ce:	84aa                	mv	s1,a0
    800030d0:	e519                	bnez	a0,800030de <lfs_dir_commit+0x24e>
    800030d2:	000d3503          	ld	a0,0(s10)
    800030d6:	711c                	ld	a5,32(a0)
    800030d8:	9782                	jalr	a5
    800030da:	84aa                	mv	s1,a0
    800030dc:	c511                	beqz	a0,800030e8 <lfs_dir_commit+0x258>
    800030de:	fcc00793          	li	a5,-52
    800030e2:	e2f487e3          	beq	s1,a5,80002f10 <lfs_dir_commit+0x80>
    800030e6:	a239                	j	800031f4 <lfs_dir_commit+0x364>
    800030e8:	57fd                	li	a5,-1
    800030ea:	dc3e                	sw	a5,56(sp)
    800030ec:	00842c03          	lw	s8,8(s0)
    800030f0:	02442a03          	lw	s4,36(s0)
    800030f4:	1a06                	sll	s4,s4,0x21
    800030f6:	021a5a13          	srl	s4,s4,0x21
    800030fa:	3a71                	addw	s4,s4,-4
    800030fc:	020d0a93          	add	s5,s10,32
    80003100:	020a0763          	beqz	s4,8000312e <lfs_dir_commit+0x29e>
    80003104:	4901                	li	s2,0
    80003106:	4805                	li	a6,1
    80003108:	02710793          	add	a5,sp,39
    8000310c:	874a                	mv	a4,s2
    8000310e:	86e2                	mv	a3,s8
    80003110:	4601                	li	a2,0
    80003112:	85d6                	mv	a1,s5
    80003114:	856a                	mv	a0,s10
    80003116:	f15fd0ef          	jal	8000102a <lfs_cache_read>
    8000311a:	e11d                	bnez	a0,80003140 <lfs_dir_commit+0x2b0>
    8000311c:	4605                	li	a2,1
    8000311e:	02710593          	add	a1,sp,39
    80003122:	1828                	add	a0,sp,56
    80003124:	30f000ef          	jal	80003c32 <lfs_crc>
    80003128:	2905                	addw	s2,s2,1
    8000312a:	fd2a1ee3          	bne	s4,s2,80003106 <lfs_dir_commit+0x276>
    8000312e:	5762                	lw	a4,56(sp)
    80003130:	57a2                	lw	a5,40(sp)
    80003132:	dcf71fe3          	bne	a4,a5,80002f10 <lfs_dir_commit+0x80>
    80003136:	67c2                	ld	a5,16(sp)
    80003138:	e791                	bnez	a5,80003144 <lfs_dir_commit+0x2b4>
    8000313a:	018d3783          	ld	a5,24(s10)
    8000313e:	a859                	j	800031d4 <lfs_dir_commit+0x344>
    80003140:	84aa                	mv	s1,a0
    80003142:	a84d                	j	800031f4 <lfs_dir_commit+0x364>
    80003144:	1034                	add	a3,sp,40
    80003146:	1830                	add	a2,sp,56
    80003148:	10ac                	add	a1,sp,104
    8000314a:	856a                	mv	a0,s10
    8000314c:	b26fe0ef          	jal	80001472 <lfs_parent>
    80003150:	87aa                	mv	a5,a0
    80003152:	0c054463          	bltz	a0,8000321a <lfs_dir_commit+0x38a>
    80003156:	c531                	beqz	a0,800031a2 <lfs_dir_commit+0x312>
    80003158:	441c                	lw	a5,8(s0)
    8000315a:	d83e                	sw	a5,48(sp)
    8000315c:	445c                	lw	a5,12(s0)
    8000315e:	da3e                	sw	a5,52(sp)
    80003160:	4681                	li	a3,0
    80003162:	1030                	add	a2,sp,40
    80003164:	182c                	add	a1,sp,56
    80003166:	856a                	mv	a0,s10
    80003168:	0b6000ef          	jal	8000321e <lfs_dir_update>
    8000316c:	87aa                	mv	a5,a0
    8000316e:	e555                	bnez	a0,8000321a <lfs_dir_commit+0x38a>
    80003170:	008d2783          	lw	a5,8(s10)
    80003174:	00fc8a63          	beq	s9,a5,80003188 <lfs_dir_commit+0x2f8>
    80003178:	00cd2703          	lw	a4,12(s10)
    8000317c:	00eb0663          	beq	s6,a4,80003188 <lfs_dir_commit+0x2f8>
    80003180:	00ec8463          	beq	s9,a4,80003188 <lfs_dir_commit+0x2f8>
    80003184:	00fb1863          	bne	s6,a5,80003194 <lfs_dir_commit+0x304>
    80003188:	441c                	lw	a5,8(s0)
    8000318a:	00fd2423          	sw	a5,8(s10)
