
/mnt/users/ssd0/no_backup/petrisko/pre-alpha-release/bp_top/syn/results/vcs/bp_tethered.e_bp_default_cfg.none.sim.bp-tests.hello_world/prog.riscv:     file format elf64-littleriscv

SYMBOL TABLE:
0000000080000000 l    d  .text	0000000000000000 .text
00000000800071c0 l    d  .rodata	0000000000000000 .rodata
00000000800072a0 l    d  .srodata	0000000000000000 .srodata
00000000800072a8 l    d  .init_array	0000000000000000 .init_array
00000000800072b8 l    d  .fini_array	0000000000000000 .fini_array
00000000800072c0 l    d  .eh_frame	0000000000000000 .eh_frame
00000000800072d0 l    d  .data	0000000000000000 .data
0000000080009f90 l    d  .got	0000000000000000 .got
0000000080009fa0 l    d  .got.plt	0000000000000000 .got.plt
0000000080100000 l    d  .sdata	0000000000000000 .sdata
0000000080100048 l    d  .sbss	0000000000000000 .sbss
0000000080100060 l    d  .bss	0000000000000000 .bss
0000000000000000 l    d  .comment	0000000000000000 .comment
0000000000000000 l    d  .riscv.attributes	0000000000000000 .riscv.attributes
0000000000000000 l    df *ABS*	0000000000000000 /mnt/users/ssd0/no_backup/petrisko/sdk/install/lib/gcc/riscv64-unknown-elf-dramfs/9.2.0/../../../../riscv64-unknown-elf-dramfs/lib/crt0.o
00000000800000d0 l       .text	0000000000000000 init_hart0
00000000800000c0 l       .text	0000000000000000 wait_for_sync
0000000080000114 l       .text	0000000000000000 init_hartn
0000000000000000 l    df *ABS*	0000000000000000 crtstuff.c
00000000800072c0 l     O .eh_frame	0000000000000000 
0000000080000148 l     F .text	0000000000000000 __do_global_dtors_aux
0000000080100060 l     O .bss	0000000000000001 completed.5527
00000000800072b8 l     O .fini_array	0000000000000000 __do_global_dtors_aux_fini_array_entry
000000008000019c l     F .text	0000000000000000 frame_dummy
0000000080100068 l     O .bss	0000000000000030 object.5532
00000000800072b0 l     O .init_array	0000000000000000 __frame_dummy_init_array_entry
0000000000000000 l    df *ABS*	0000000000000000 hello_world.c
0000000000000000 l    df *ABS*	0000000000000000 bp_utils.c
0000000000000000 l    df *ABS*	0000000000000000 bsg_newlib_intf.c
0000000000000000 l    df *ABS*	0000000000000000 emulation.c
0000000080009d10 l     O .data	0000000000000100 amow_jt
0000000080009e10 l     O .data	0000000000000100 amod_jt
0000000080009f50 l     O .data	0000000000000040 amo_jt
0000000080009f10 l     O .data	0000000000000040 mul_jt
0000000000000000 l    df *ABS*	0000000000000000 atexit.c
0000000000000000 l    df *ABS*	0000000000000000 exit.c
0000000000000000 l    df *ABS*	0000000000000000 fini.c
0000000000000000 l    df *ABS*	0000000000000000 impure.c
00000000800072d0 l     O .data	00000000000001d0 impure_data
0000000000000000 l    df *ABS*	0000000000000000 init.c
0000000000000000 l    df *ABS*	0000000000000000 __atexit.c
0000000000000000 l    df *ABS*	0000000000000000 __call_atexit.c
00000000800071a8 l     F .text	0000000000000018 register_fini
0000000000000000 l    df *ABS*	0000000000000000 sys_exit.c
0000000000000000 l    df *ABS*	0000000000000000 sysclose.c
0000000000000000 l    df *ABS*	0000000000000000 closer.c
0000000000000000 l    df *ABS*	0000000000000000 reent.c
0000000000000000 l    df *ABS*	0000000000000000 mallocr.c
0000000000000000 l    df *ABS*	0000000000000000 mallocr.c
0000000000000000 l    df *ABS*	0000000000000000 mlock.c
0000000000000000 l    df *ABS*	0000000000000000 sbrkr.c
0000000000000000 l    df *ABS*	0000000000000000 sys_close.c
0000000000000000 l    df *ABS*	0000000000000000 sys_sbrk.c
0000000000000000 l    df *ABS*	0000000000000000 dramfs_fdtable.c
00000000801000c0 l     O .bss	0000000000000640 dramfs_fdtable
0000000000000000 l    df *ABS*	0000000000000000 lfs.c
00000000800022ac l     F .text	0000000000000020 lfs_bd_erase
00000000800022cc l     F .text	0000000000000050 lfs_alloc_lookahead
000000008000231c l     F .text	00000000000000e4 lfs_dir_fromle32
0000000080002400 l     F .text	00000000000000e4 lfs_dir_tole32
00000000800024e4 l     F .text	0000000000000074 lfs_entry_fromle32
0000000080002558 l     F .text	0000000000000074 lfs_entry_tole32
00000000800025cc l     F .text	00000000000000e4 lfs_ctz_index
00000000800026b0 l     F .text	0000000000000200 lfs_cache_read
00000000800028b0 l     F .text	0000000000000030 lfs_bd_read
00000000800028e0 l     F .text	0000000000000230 lfs_dir_fetch
0000000080002b10 l     F .text	0000000000000168 lfs_dir_next
0000000080002c78 l     F .text	00000000000000fc lfs_moved
0000000080002d74 l     F .text	0000000000000140 lfs_parent
0000000080002eb4 l     F .text	00000000000000f8 lfs_pred
0000000080002fac l     F .text	00000000000000c0 lfs_cache_cmp
000000008000306c l     F .text	0000000000000288 lfs_dir_find
00000000800032f4 l     F .text	00000000000001a0 lfs_ctz_traverse
0000000080003494 l     F .text	00000000000000d0 lfs_cache_flush
0000000080003564 l     F .text	00000000000001c8 lfs_cache_prog
000000008000372c l     F .text	0000000000000068 lfs_deinit
0000000080003794 l     F .text	00000000000000e0 lfs_init
0000000080003874 l     F .text	0000000000000250 lfs_ctz_find
00000000800043d0 l     F .text	0000000000000174 lfs_alloc
0000000080004544 l     F .text	00000000000000e8 lfs_dir_alloc
000000008000462c l     F .text	0000000000000160 lfs_file_relocate
0000000080004d00 l     F .text	000000000000019c lfs_file_flush
0000000080005480 l     F .text	0000000000000530 lfs_dir_commit
0000000080005df0 l     F .text	0000000000000200 lfs_dir_remove
00000000800059b0 l     F .text	00000000000000b0 lfs_dir_update
0000000080005bf0 l     F .text	0000000000000200 lfs_dir_append
0000000000000000 l    df *ABS*	0000000000000000 lfs_util.c
0000000080007228 l     O .rodata	0000000000000040 rtable.1941
0000000000000000 l    df *ABS*	0000000000000000 lfs_mem.c
0000000000000000 l    df *ABS*	0000000000000000 lfs_bd.c
0000000000000000 l    df *ABS*	0000000000000000 dramfs_fs.c
0000000000000000 l    df *ABS*	0000000000000000 errno.c
0000000000000000 l    df *ABS*	0000000000000000 malloc.c
0000000000000000 l    df *ABS*	0000000000000000 memcmp.c
0000000000000000 l    df *ABS*	0000000000000000 memcpy.c
0000000000000000 l    df *ABS*	0000000000000000 strchr.c
0000000000000000 l    df *ABS*	0000000000000000 strcspn.c
0000000000000000 l    df *ABS*	0000000000000000 strlen.c
0000000000000000 l    df *ABS*	0000000000000000 strspn.c
0000000000000000 l    df *ABS*	0000000000000000 sysopen.c
0000000000000000 l    df *ABS*	0000000000000000 openr.c
0000000000000000 l    df *ABS*	0000000000000000 sys_open.c
0000000000000000 l    df *ABS*	0000000000000000 crtstuff.c
00000000800072c0 l     O .eh_frame	0000000000000000 __FRAME_END__
0000000000000000 l    df *ABS*	0000000000000000 
00000000800072c0 l       .fini_array	0000000000000000 __fini_array_end
00000000800072b8 l       .fini_array	0000000000000000 __fini_array_start
00000000800072b8 l       .init_array	0000000000000000 __init_array_end
00000000800072a8 l       .init_array	0000000000000000 __preinit_array_end
0000000080009f90 l     O .got	0000000000000000 _GLOBAL_OFFSET_TABLE_
00000000800072a8 l       .init_array	0000000000000000 __init_array_start
00000000800072a8 l       .init_array	0000000000000000 __preinit_array_start
0000000080000144  w      .text	0000000000000000 _argv
0000000080003ac4 g     F .text	00000000000000a4 lfs_dir_open
0000000080001204 g     F .text	0000000000000040 cleanup_glue
0000000080003e14 g     F .text	0000000000000008 lfs_file_tell
0000000080000484  w    F .text	0000000000000020 dramfs_fs_init
0000000080005ff0 g     F .text	00000000000002e0 lfs_format
0000000080003d1c g     F .text	000000000000004c lfs_dir_rewind
00000000800003bc g       .text	0000000000000000 amo_maxuw
000000008000045c g       .text	0000000000000000 amo_minuw
0000000080000828 g     F .text	0000000000000038 dramfs_sendchar
00000000800002cc g       .text	0000000000000000 amo_andd
00000000800072d0 g       .data	0000000000000000 _fdata
0000000080002054 g     F .text	0000000000000004 __malloc_unlock
0000000080000cf0 g       .text	0000000000000000 mul_mulhu
0000000080005048 g     F .text	0000000000000084 lfs_file_seek
0000000080004158 g     F .text	000000000000001c lfs_unmount
0000000080006bb0 g     F .text	000000000000000c __errno
0000000080006ad4 g     F .text	0000000000000044 lfs_erase
000000008000673c g     F .text	000000000000027c lfs_rename
0000000080100760 g     O .bss	0000000000000004 errno
000000008000729f g       .rodata	0000000000000000 _etext
000000008000a7b0 g       .sdata	0000000000000000 _gp
00000000800006f0 g     F .text	0000000000000060 bp_cget
0000000080003d68 g     F .text	00000000000000ac lfs_dir_seek
0000000080009cb0  w    O .data	0000000000000060 dramfs_fs_cfg
0000000080006c54 g     F .text	000000000000011c memcpy
0000000080007cb0  w    O .data	0000000000002000 lfs_mem
0000000080006a34 g     F .text	0000000000000050 lfs_read
0000000080000b08 g       .text	000000000000000c __mtvec_handler
000000008000478c g     F .text	0000000000000574 lfs_file_write
00000000800050cc g     F .text	0000000000000030 lfs_file_rewind
0000000080000860 g     F .text	000000000000002c dramfs_getchar
0000000080000614 g     F .text	0000000000000084 bp_hprint_uint64
0000000080000698 g     F .text	0000000000000058 bp_print_string
00000000800004cc g     F .text	0000000000000060 bp_barrier_end
0000000080006bbc g     F .text	0000000000000010 malloc
0000000080000780 g     F .text	000000000000002c bp_param_get
0000000080100060 g       .bss	0000000000000000 _bss_start
000000008000029c g       .text	0000000000000000 amo_addd
0000000080000750 g     F .text	0000000000000030 bp_panic
0000000080100058 g     O .sbss	0000000000000008 __malloc_top_pad
0000000080100000 g     O .sdata	0000000000000000 .hidden __dso_handle
0000000080002058 g     F .text	0000000000000058 _sbrk_r
00000000800002fc g       .text	0000000000000000 amo_ord
0000000080100050 g     O .sbss	0000000000000008 __malloc_max_sbrked_mem
0000000080100020 g     O .sdata	0000000000000008 heap_ptr
00000000800072a0 g     O .srodata	0000000000000008 _global_impure_ptr
0000000080000de4 g     F .text	0000000000000094 __libc_init_array
000000008000210c g     F .text	0000000000000024 dramfs_init_fdtable
00000000800070c0 g     F .text	00000000000000e8 _open
00000000800020f0 g     F .text	000000000000001c _sbrk
0000000080006400 g     F .text	0000000000000244 lfs_file_opencfg
0000000080100700  w    O .bss	0000000000000060 dramfs_fs
0000000080002218 g     F .text	000000000000001c dramfs_get_file
0000000080000ac0 g     F .text	0000000000000048 bp_unhandled_trap_abort
0000000080000ca0 g       .text	0000000000000000 mul_mulhsu
00000000800050fc g     F .text	0000000000000138 lfs_file_truncate
0000000080000d88 g     F .text	000000000000005c __libc_fini_array
0000000080002234 g     F .text	0000000000000078 dramfs_free_fd
0000000080001244 g     F .text	000000000000019c _reclaim_reent
0000000080100028 g     O .sdata	0000000000000008 lfs_ptr
0000000080006b18 g     F .text	0000000000000008 lfs_sync
0000000080003e1c g     F .text	0000000000000034 lfs_file_size
0000000080000344 g       .text	0000000000000000 amo_maxd
00000000800003e4 g       .text	0000000000000000 amo_mind
0000000080000270 g       .text	0000000000000000 amo_swapd
000000008000025c g       .text	0000000000000000 amo_swapw
000000008000150c g     F .text	0000000000000330 _free_r
0000000080001018 g     F .text	0000000000000150 __call_exitprocs
000000008f000000 g       *ABS*	0000000000000000 _sp
0000000080000000 g       .text	0000000000000000 _ftext
0000000080100010 g     O .sdata	0000000000000008 __malloc_sbrk_base
0000000080000000 g     F .text	000000000000013c _start
00000000800002b4 g       .text	0000000000000000 amo_andw
00000000800007ac g     F .text	0000000000000040 dramfs_init
000000008000705c g     F .text	0000000000000064 _open_r
0000000080000f54 g     F .text	00000000000000c4 __register_exitproc
0000000080003b9c g     F .text	0000000000000178 lfs_dir_read
0000000080100098 g     O .bss	0000000000000028 __malloc_current_mallinfo
0000000080005a60 g     F .text	00000000000000fc lfs_file_sync
00000000800021ac g     F .text	000000000000006c dramfs_reserve_fd
00000000800011ac g     F .text	0000000000000058 _close_r
0000000080006bdc g     F .text	0000000000000078 memcmp
0000000080004174 g     F .text	000000000000025c lfs_traverse
0000000080002130 g     F .text	0000000000000054 dramfs_check_fd
00000000800062d0 g     F .text	0000000000000130 lfs_mkdir
00000000800074a0 g     O .data	0000000000000810 __malloc_av_
0000000080005b5c g     F .text	0000000000000094 lfs_file_close
0000000080002050 g     F .text	0000000000000004 __malloc_lock
00000000800005e4 g     F .text	0000000000000030 bp_cprint
0000000080000e78 g     F .text	00000000000000dc memset
00000000800001c0 g     F .text	000000000000009c main
0000000080002184 g     F .text	0000000000000028 dramfs_nonblock_fd
0000000080006a84 g     F .text	0000000000000050 lfs_prog
0000000080100048 g     O .sbss	0000000000000008 __malloc_max_total_mem
0000000080000394 g       .text	0000000000000000 amo_maxud
0000000080000434 g       .text	0000000000000000 amo_minud
000000008000183c g     F .text	0000000000000814 _malloc_r
0000000080003d14 g     F .text	0000000000000008 lfs_dir_tell
00000000800013e0 g     F .text	000000000000012c _malloc_trim_r
00000000800007ec g     F .text	000000000000003c dramfs_exit
0000000080003e50 g     F .text	00000000000000e4 lfs_stat
0000000080000d40 g     F .text	0000000000000014 atexit
0000000080006ea4 g     F .text	0000000000000054 strcspn
000000008000052c g     F .text	0000000000000040 bp_finish
0000000080100008 g     O .sdata	0000000000000008 _impure_ptr
00000000800002e4 g       .text	0000000000000000 amo_orw
000000008000032c g       .text	0000000000000000 amo_xord
0000000080000284 g       .text	0000000000000000 amo_addw
0000000080000314 g       .text	0000000000000000 amo_xorw
00000000800069b8 g     F .text	0000000000000070 lfs_crc
0000000080100048 g       .sdata	0000000000000000 _edata
0000000080100768 g       .bss	0000000000000000 _end
000000008000056c g     F .text	0000000000000078 bp_hprint
0000000080006660 g     F .text	00000000000000dc lfs_remove
0000000080100000  w      .sdata	0000000000000000 _sync
0000000080006644 g     F .text	000000000000001c lfs_file_open
0000000080100018 g     O .sdata	0000000000000008 __malloc_trim_threshold
0000000080000d54 g     F .text	0000000000000034 exit
00000000800008fc g     F .text	00000000000001c4 bp_emulate_illegal_instruction
0000000080001168 g     F .text	0000000000000034 _exit
0000000080003f34 g     F .text	0000000000000224 lfs_mount
0000000080006fc4 g     F .text	000000000000004c strspn
0000000080006ef8 g     F .text	00000000000000cc strlen
0000000080007010 g     F .text	000000000000004c open
0000000080000144  w      .text	0000000000000004 _argc
0000000080006d70 g     F .text	0000000000000134 strchr
0000000080004e9c g     F .text	00000000000001ac lfs_file_read
0000000080003b68 g     F .text	0000000000000034 lfs_dir_close
00000000800004a4 g     F .text	0000000000000028 bp_get_hart
000000008000036c g       .text	0000000000000000 amo_maxw
000000008000040c g       .text	0000000000000000 amo_minw
0000000080005234 g     F .text	000000000000024c lfs_deorphan
0000000080100048 g       .sbss	0000000000000000 _fbss
000000008000119c g     F .text	0000000000000010 close
0000000080000c50 g       .text	0000000000000000 mul_mulh
00000000800020b0 g     F .text	0000000000000040 _close
0000000080006bcc g     F .text	0000000000000010 free
000000008000088c g     F .text	0000000000000070 bp_dump_trap_context



Disassembly of section .text:

0000000080000000 <_start>:
    80000000:	0000a197          	auipc	gp,0xa
    80000004:	7b018193          	addi	gp,gp,1968 # 8000a7b0 <_gp>
    80000008:	0f000117          	auipc	sp,0xf000
    8000000c:	ff810113          	addi	sp,sp,-8 # 8f000000 <_sp>
    80000010:	f14022f3          	csrr	t0,mhartid
    80000014:	00d29293          	slli	t0,t0,0xd
    80000018:	40510133          	sub	sp,sp,t0
    8000001c:	34011073          	csrw	mscratch,sp
    80000020:	00100293          	li	t0,1
    80000024:	00c29293          	slli	t0,t0,0xc
    80000028:	40510133          	sub	sp,sp,t0
    8000002c:	00001297          	auipc	t0,0x1
    80000030:	adc28293          	addi	t0,t0,-1316 # 80000b08 <__mtvec_handler>
    80000034:	30529073          	csrw	mtvec,t0
    80000038:	000022b7          	lui	t0,0x2
    8000003c:	3002a073          	csrs	mstatus,t0
    80000040:	00305073          	csrwi	fcsr,0
    80000044:	00000093          	li	ra,0
    80000048:	00000213          	li	tp,0
    8000004c:	00000293          	li	t0,0
    80000050:	00000313          	li	t1,0
    80000054:	00000393          	li	t2,0
    80000058:	00000413          	li	s0,0
    8000005c:	00000493          	li	s1,0
    80000060:	00000513          	li	a0,0
    80000064:	00000593          	li	a1,0
    80000068:	00000613          	li	a2,0
    8000006c:	00000693          	li	a3,0
    80000070:	00000713          	li	a4,0
    80000074:	00000793          	li	a5,0
    80000078:	00000813          	li	a6,0
    8000007c:	00000893          	li	a7,0
    80000080:	00000913          	li	s2,0
    80000084:	00000993          	li	s3,0
    80000088:	00000a13          	li	s4,0
    8000008c:	00000a93          	li	s5,0
    80000090:	00000b13          	li	s6,0
    80000094:	00000b93          	li	s7,0
    80000098:	00000c13          	li	s8,0
    8000009c:	00000c93          	li	s9,0
    800000a0:	00000d13          	li	s10,0
    800000a4:	00000d93          	li	s11,0
    800000a8:	00000e13          	li	t3,0
    800000ac:	00000e93          	li	t4,0
    800000b0:	00000f13          	li	t5,0
    800000b4:	00000f93          	li	t6,0
    800000b8:	f14022f3          	csrr	t0,mhartid
    800000bc:	00028a63          	beqz	t0,800000d0 <init_hart0>

00000000800000c0 <wait_for_sync>:
    800000c0:	00100297          	auipc	t0,0x100
    800000c4:	f402b283          	ld	t0,-192(t0) # 80100000 <__dso_handle>
    800000c8:	04029663          	bnez	t0,80000114 <init_hartn>
    800000cc:	ff5ff06f          	j	800000c0 <wait_for_sync>

00000000800000d0 <init_hart0>:
    800000d0:	00100517          	auipc	a0,0x100
    800000d4:	f7850513          	addi	a0,a0,-136 # 80100048 <__malloc_max_total_mem>
    800000d8:	00100617          	auipc	a2,0x100
    800000dc:	69060613          	addi	a2,a2,1680 # 80100768 <_end>
    800000e0:	40a60633          	sub	a2,a2,a0
    800000e4:	00000593          	li	a1,0
    800000e8:	591000ef          	jal	ra,80000e78 <memset>
    800000ec:	398000ef          	jal	ra,80000484 <dramfs_fs_init>
    800000f0:	04051063          	bnez	a0,80000130 <init_hartn+0x1c>
    800000f4:	00001517          	auipc	a0,0x1
    800000f8:	c9450513          	addi	a0,a0,-876 # 80000d88 <__libc_fini_array>
    800000fc:	445000ef          	jal	ra,80000d40 <atexit>
    80000100:	4e5000ef          	jal	ra,80000de4 <__libc_init_array>
    80000104:	00100293          	li	t0,1
    80000108:	00100317          	auipc	t1,0x100
    8000010c:	ef830313          	addi	t1,t1,-264 # 80100000 <__dso_handle>
    80000110:	00533023          	sd	t0,0(t1)

0000000080000114 <init_hartn>:
    80000114:	00000517          	auipc	a0,0x0
    80000118:	03050513          	addi	a0,a0,48 # 80000144 <_argc>
    8000011c:	00052503          	lw	a0,0(a0)
    80000120:	00000597          	auipc	a1,0x0
    80000124:	02458593          	addi	a1,a1,36 # 80000144 <_argc>
    80000128:	00000613          	li	a2,0
    8000012c:	094000ef          	jal	ra,800001c0 <main>
    80000130:	4250006f          	j	80000d54 <exit>
    80000134:	00000013          	nop
    80000138:	ffdff06f          	j	80000134 <init_hartn+0x20>
    8000013c:	fff00513          	li	a0,-1
    80000140:	4150006f          	j	80000d54 <exit>

0000000080000144 <_argc>:
    80000144:	0000                	unimp
	...

0000000080000148 <__do_global_dtors_aux>:
    80000148:	00100797          	auipc	a5,0x100
    8000014c:	f1878793          	addi	a5,a5,-232 # 80100060 <completed.5527>
    80000150:	0007c703          	lbu	a4,0(a5)
    80000154:	04071263          	bnez	a4,80000198 <__do_global_dtors_aux+0x50>
    80000158:	ff010113          	addi	sp,sp,-16
    8000015c:	00813023          	sd	s0,0(sp)
    80000160:	00113423          	sd	ra,8(sp)
    80000164:	00078413          	mv	s0,a5
    80000168:	00000793          	li	a5,0
    8000016c:	00078a63          	beqz	a5,80000180 <__do_global_dtors_aux+0x38>
    80000170:	00007517          	auipc	a0,0x7
    80000174:	15050513          	addi	a0,a0,336 # 800072c0 <__FRAME_END__>
    80000178:	00000097          	auipc	ra,0x0
    8000017c:	000000e7          	jalr	zero # 0 <_start-0x80000000>
    80000180:	00100793          	li	a5,1
    80000184:	00813083          	ld	ra,8(sp)
    80000188:	00f40023          	sb	a5,0(s0)
    8000018c:	00013403          	ld	s0,0(sp)
    80000190:	01010113          	addi	sp,sp,16
    80000194:	00008067          	ret
    80000198:	00008067          	ret

000000008000019c <frame_dummy>:
    8000019c:	00000793          	li	a5,0
    800001a0:	00078e63          	beqz	a5,800001bc <frame_dummy+0x20>
    800001a4:	00100597          	auipc	a1,0x100
    800001a8:	ec458593          	addi	a1,a1,-316 # 80100068 <object.5532>
    800001ac:	00007517          	auipc	a0,0x7
    800001b0:	11450513          	addi	a0,a0,276 # 800072c0 <__FRAME_END__>
    800001b4:	00000317          	auipc	t1,0x0
    800001b8:	00000067          	jr	zero # 0 <_start-0x80000000>
    800001bc:	00008067          	ret

00000000800001c0 <main>:
    800001c0:	fe010113          	addi	sp,sp,-32
    800001c4:	00113c23          	sd	ra,24(sp)
    800001c8:	00813823          	sd	s0,16(sp)
    800001cc:	02010413          	addi	s0,sp,32
    800001d0:	00050793          	mv	a5,a0
    800001d4:	feb43023          	sd	a1,-32(s0)
    800001d8:	fef42623          	sw	a5,-20(s0)
    800001dc:	04800513          	li	a0,72
    800001e0:	404000ef          	jal	ra,800005e4 <bp_cprint>
    800001e4:	06500513          	li	a0,101
    800001e8:	3fc000ef          	jal	ra,800005e4 <bp_cprint>
    800001ec:	06c00513          	li	a0,108
    800001f0:	3f4000ef          	jal	ra,800005e4 <bp_cprint>
    800001f4:	06c00513          	li	a0,108
    800001f8:	3ec000ef          	jal	ra,800005e4 <bp_cprint>
    800001fc:	06f00513          	li	a0,111
    80000200:	3e4000ef          	jal	ra,800005e4 <bp_cprint>
    80000204:	02000513          	li	a0,32
    80000208:	3dc000ef          	jal	ra,800005e4 <bp_cprint>
    8000020c:	05700513          	li	a0,87
    80000210:	3d4000ef          	jal	ra,800005e4 <bp_cprint>
    80000214:	06f00513          	li	a0,111
    80000218:	3cc000ef          	jal	ra,800005e4 <bp_cprint>
    8000021c:	07200513          	li	a0,114
    80000220:	3c4000ef          	jal	ra,800005e4 <bp_cprint>
    80000224:	06c00513          	li	a0,108
    80000228:	3bc000ef          	jal	ra,800005e4 <bp_cprint>
    8000022c:	06400513          	li	a0,100
    80000230:	3b4000ef          	jal	ra,800005e4 <bp_cprint>
    80000234:	02100513          	li	a0,33
    80000238:	3ac000ef          	jal	ra,800005e4 <bp_cprint>
    8000023c:	00a00513          	li	a0,10
    80000240:	3a4000ef          	jal	ra,800005e4 <bp_cprint>
    80000244:	00000793          	li	a5,0
    80000248:	00078513          	mv	a0,a5
    8000024c:	01813083          	ld	ra,24(sp)
    80000250:	01013403          	ld	s0,16(sp)
    80000254:	02010113          	addi	sp,sp,32
    80000258:	00008067          	ret

000000008000025c <amo_swapw>:
    8000025c:	100522af          	lr.w	t0,(a0)
    80000260:	18b5232f          	sc.w	t1,a1,(a0)
    80000264:	fe031ce3          	bnez	t1,8000025c <amo_swapw>
    80000268:	00028513          	mv	a0,t0
    8000026c:	00008067          	ret

0000000080000270 <amo_swapd>:
    80000270:	100532af          	lr.d	t0,(a0)
    80000274:	18b5332f          	sc.d	t1,a1,(a0)
    80000278:	fe031ce3          	bnez	t1,80000270 <amo_swapd>
    8000027c:	00028513          	mv	a0,t0
    80000280:	00008067          	ret

0000000080000284 <amo_addw>:
    80000284:	100522af          	lr.w	t0,(a0)
    80000288:	00b2833b          	addw	t1,t0,a1
    8000028c:	1865232f          	sc.w	t1,t1,(a0)
    80000290:	fe031ae3          	bnez	t1,80000284 <amo_addw>
    80000294:	00028513          	mv	a0,t0
    80000298:	00008067          	ret

000000008000029c <amo_addd>:
    8000029c:	100532af          	lr.d	t0,(a0)
    800002a0:	00b28333          	add	t1,t0,a1
    800002a4:	1865332f          	sc.d	t1,t1,(a0)
    800002a8:	fe031ae3          	bnez	t1,8000029c <amo_addd>
    800002ac:	00028513          	mv	a0,t0
    800002b0:	00008067          	ret

00000000800002b4 <amo_andw>:
    800002b4:	100522af          	lr.w	t0,(a0)
    800002b8:	00b2f333          	and	t1,t0,a1
    800002bc:	1865232f          	sc.w	t1,t1,(a0)
    800002c0:	fe031ae3          	bnez	t1,800002b4 <amo_andw>
    800002c4:	00028513          	mv	a0,t0
    800002c8:	00008067          	ret

00000000800002cc <amo_andd>:
    800002cc:	100532af          	lr.d	t0,(a0)
    800002d0:	00b2f333          	and	t1,t0,a1
    800002d4:	1865332f          	sc.d	t1,t1,(a0)
    800002d8:	fe031ae3          	bnez	t1,800002cc <amo_andd>
    800002dc:	00028513          	mv	a0,t0
    800002e0:	00008067          	ret

00000000800002e4 <amo_orw>:
    800002e4:	100522af          	lr.w	t0,(a0)
    800002e8:	00b2e333          	or	t1,t0,a1
    800002ec:	1865232f          	sc.w	t1,t1,(a0)
    800002f0:	fe031ae3          	bnez	t1,800002e4 <amo_orw>
    800002f4:	00028513          	mv	a0,t0
    800002f8:	00008067          	ret

00000000800002fc <amo_ord>:
    800002fc:	100532af          	lr.d	t0,(a0)
    80000300:	00b2e333          	or	t1,t0,a1
    80000304:	1865332f          	sc.d	t1,t1,(a0)
    80000308:	fe031ae3          	bnez	t1,800002fc <amo_ord>
    8000030c:	00028513          	mv	a0,t0
    80000310:	00008067          	ret

0000000080000314 <amo_xorw>:
    80000314:	100522af          	lr.w	t0,(a0)
    80000318:	00b2c333          	xor	t1,t0,a1
    8000031c:	1865232f          	sc.w	t1,t1,(a0)
    80000320:	fe031ae3          	bnez	t1,80000314 <amo_xorw>
    80000324:	00028513          	mv	a0,t0
    80000328:	00008067          	ret

000000008000032c <amo_xord>:
    8000032c:	100532af          	lr.d	t0,(a0)
    80000330:	00b2c333          	xor	t1,t0,a1
    80000334:	1865332f          	sc.d	t1,t1,(a0)
    80000338:	fe031ae3          	bnez	t1,8000032c <amo_xord>
    8000033c:	00028513          	mv	a0,t0
    80000340:	00008067          	ret

0000000080000344 <amo_maxd>:
    80000344:	100532af          	lr.d	t0,(a0)
    80000348:	00b2a333          	slt	t1,t0,a1
    8000034c:	40600333          	neg	t1,t1
    80000350:	00b2c3b3          	xor	t2,t0,a1
    80000354:	00737e33          	and	t3,t1,t2
    80000358:	01c2ce33          	xor	t3,t0,t3
    8000035c:	19c5332f          	sc.d	t1,t3,(a0)
    80000360:	fe0312e3          	bnez	t1,80000344 <amo_maxd>
    80000364:	00028513          	mv	a0,t0
    80000368:	00008067          	ret

000000008000036c <amo_maxw>:
    8000036c:	100522af          	lr.w	t0,(a0)
    80000370:	00b2a333          	slt	t1,t0,a1
    80000374:	4060033b          	negw	t1,t1
    80000378:	00b2c3b3          	xor	t2,t0,a1
    8000037c:	00737e33          	and	t3,t1,t2
    80000380:	01c2ce33          	xor	t3,t0,t3
    80000384:	19c5232f          	sc.w	t1,t3,(a0)
    80000388:	fe0312e3          	bnez	t1,8000036c <amo_maxw>
    8000038c:	00028513          	mv	a0,t0
    80000390:	00008067          	ret

0000000080000394 <amo_maxud>:
    80000394:	100532af          	lr.d	t0,(a0)
    80000398:	00b2b333          	sltu	t1,t0,a1
    8000039c:	40600333          	neg	t1,t1
    800003a0:	00b2c3b3          	xor	t2,t0,a1
    800003a4:	00737e33          	and	t3,t1,t2
    800003a8:	01c2ce33          	xor	t3,t0,t3
    800003ac:	19c5332f          	sc.d	t1,t3,(a0)
    800003b0:	fe0312e3          	bnez	t1,80000394 <amo_maxud>
    800003b4:	00028513          	mv	a0,t0
    800003b8:	00008067          	ret

00000000800003bc <amo_maxuw>:
    800003bc:	100522af          	lr.w	t0,(a0)
    800003c0:	00b2b333          	sltu	t1,t0,a1
    800003c4:	4060033b          	negw	t1,t1
    800003c8:	00b2c3b3          	xor	t2,t0,a1
    800003cc:	00737e33          	and	t3,t1,t2
    800003d0:	01c2ce33          	xor	t3,t0,t3
    800003d4:	19c5232f          	sc.w	t1,t3,(a0)
    800003d8:	fe0312e3          	bnez	t1,800003bc <amo_maxuw>
    800003dc:	00028513          	mv	a0,t0
    800003e0:	00008067          	ret

00000000800003e4 <amo_mind>:
    800003e4:	100532af          	lr.d	t0,(a0)
    800003e8:	00b2a333          	slt	t1,t0,a1
    800003ec:	40600333          	neg	t1,t1
    800003f0:	00b2c3b3          	xor	t2,t0,a1
    800003f4:	00737e33          	and	t3,t1,t2
    800003f8:	01c5ce33          	xor	t3,a1,t3
    800003fc:	19c5332f          	sc.d	t1,t3,(a0)
    80000400:	fe0312e3          	bnez	t1,800003e4 <amo_mind>
    80000404:	00028513          	mv	a0,t0
    80000408:	00008067          	ret

000000008000040c <amo_minw>:
    8000040c:	100522af          	lr.w	t0,(a0)
    80000410:	00b2a333          	slt	t1,t0,a1
    80000414:	4060033b          	negw	t1,t1
    80000418:	00b2c3b3          	xor	t2,t0,a1
    8000041c:	00737e33          	and	t3,t1,t2
    80000420:	01c5ce33          	xor	t3,a1,t3
    80000424:	19c5232f          	sc.w	t1,t3,(a0)
    80000428:	fe0312e3          	bnez	t1,8000040c <amo_minw>
    8000042c:	00028513          	mv	a0,t0
    80000430:	00008067          	ret

0000000080000434 <amo_minud>:
    80000434:	100532af          	lr.d	t0,(a0)
    80000438:	00b2b333          	sltu	t1,t0,a1
    8000043c:	40600333          	neg	t1,t1
    80000440:	00b2c3b3          	xor	t2,t0,a1
    80000444:	00737e33          	and	t3,t1,t2
    80000448:	01c5ce33          	xor	t3,a1,t3
    8000044c:	19c5332f          	sc.d	t1,t3,(a0)
    80000450:	fe0312e3          	bnez	t1,80000434 <amo_minud>
    80000454:	00028513          	mv	a0,t0
    80000458:	00008067          	ret

000000008000045c <amo_minuw>:
    8000045c:	100522af          	lr.w	t0,(a0)
    80000460:	00b2b333          	sltu	t1,t0,a1
    80000464:	4060033b          	negw	t1,t1
    80000468:	00b2c3b3          	xor	t2,t0,a1
    8000046c:	00737e33          	and	t3,t1,t2
    80000470:	01c5ce33          	xor	t3,a1,t3
    80000474:	19c5232f          	sc.w	t1,t3,(a0)
    80000478:	fe0312e3          	bnez	t1,8000045c <amo_minuw>
    8000047c:	00028513          	mv	a0,t0
    80000480:	00008067          	ret

0000000080000484 <dramfs_fs_init>:
    80000484:	ff010113          	addi	sp,sp,-16
    80000488:	00813423          	sd	s0,8(sp)
    8000048c:	01010413          	addi	s0,sp,16
    80000490:	00000793          	li	a5,0
    80000494:	00078513          	mv	a0,a5
    80000498:	00813403          	ld	s0,8(sp)
    8000049c:	01010113          	addi	sp,sp,16
    800004a0:	00008067          	ret

00000000800004a4 <bp_get_hart>:
    800004a4:	fe010113          	addi	sp,sp,-32
    800004a8:	00813c23          	sd	s0,24(sp)
    800004ac:	02010413          	addi	s0,sp,32
    800004b0:	f14027f3          	csrr	a5,mhartid
    800004b4:	fef43423          	sd	a5,-24(s0)
    800004b8:	fe843783          	ld	a5,-24(s0)
    800004bc:	00078513          	mv	a0,a5
    800004c0:	01813403          	ld	s0,24(sp)
    800004c4:	02010113          	addi	sp,sp,32
    800004c8:	00008067          	ret

00000000800004cc <bp_barrier_end>:
    800004cc:	fd010113          	addi	sp,sp,-48
    800004d0:	02113423          	sd	ra,40(sp)
    800004d4:	02813023          	sd	s0,32(sp)
    800004d8:	03010413          	addi	s0,sp,48
    800004dc:	fca43c23          	sd	a0,-40(s0)
    800004e0:	fcb43823          	sd	a1,-48(s0)
    800004e4:	00100793          	li	a5,1
    800004e8:	fef43423          	sd	a5,-24(s0)
    800004ec:	fd843783          	ld	a5,-40(s0)
    800004f0:	fe843703          	ld	a4,-24(s0)
    800004f4:	00e7b7af          	amoadd.d	a5,a4,(a5)
    800004f8:	fef43023          	sd	a5,-32(s0)
    800004fc:	00000013          	nop
    80000500:	fd843783          	ld	a5,-40(s0)
    80000504:	0007b783          	ld	a5,0(a5)
    80000508:	fd043703          	ld	a4,-48(s0)
    8000050c:	fee7eae3          	bltu	a5,a4,80000500 <bp_barrier_end+0x34>
    80000510:	00000513          	li	a0,0
    80000514:	018000ef          	jal	ra,8000052c <bp_finish>
    80000518:	00000013          	nop
    8000051c:	02813083          	ld	ra,40(sp)
    80000520:	02013403          	ld	s0,32(sp)
    80000524:	03010113          	addi	sp,sp,48
    80000528:	00008067          	ret

000000008000052c <bp_finish>:
    8000052c:	fd010113          	addi	sp,sp,-48
    80000530:	02113423          	sd	ra,40(sp)
    80000534:	02813023          	sd	s0,32(sp)
    80000538:	03010413          	addi	s0,sp,48
    8000053c:	00050793          	mv	a5,a0
    80000540:	fcf40fa3          	sb	a5,-33(s0)
    80000544:	f61ff0ef          	jal	ra,800004a4 <bp_get_hart>
    80000548:	fea43423          	sd	a0,-24(s0)
    8000054c:	fe843783          	ld	a5,-24(s0)
    80000550:	00379713          	slli	a4,a5,0x3
    80000554:	001027b7          	lui	a5,0x102
    80000558:	00f707b3          	add	a5,a4,a5
    8000055c:	fdf44703          	lbu	a4,-33(s0)
    80000560:	00e78023          	sb	a4,0(a5) # 102000 <_start-0x7fefe000>
    80000564:	0ff0000f          	fence
    80000568:	0000006f          	j	80000568 <bp_finish+0x3c>

000000008000056c <bp_hprint>:
    8000056c:	fe010113          	addi	sp,sp,-32
    80000570:	00113c23          	sd	ra,24(sp)
    80000574:	00813823          	sd	s0,16(sp)
    80000578:	02010413          	addi	s0,sp,32
    8000057c:	00050793          	mv	a5,a0
    80000580:	fef407a3          	sb	a5,-17(s0)
    80000584:	fef44783          	lbu	a5,-17(s0)
    80000588:	0ff7f713          	andi	a4,a5,255
    8000058c:	00900793          	li	a5,9
    80000590:	00e7ee63          	bltu	a5,a4,800005ac <bp_hprint+0x40>
    80000594:	fef44783          	lbu	a5,-17(s0)
    80000598:	0307879b          	addiw	a5,a5,48
    8000059c:	0ff7f793          	andi	a5,a5,255
    800005a0:	00078513          	mv	a0,a5
    800005a4:	040000ef          	jal	ra,800005e4 <bp_cprint>
    800005a8:	0280006f          	j	800005d0 <bp_hprint+0x64>
    800005ac:	fef44783          	lbu	a5,-17(s0)
    800005b0:	0ff7f713          	andi	a4,a5,255
    800005b4:	00f00793          	li	a5,15
    800005b8:	00e7ec63          	bltu	a5,a4,800005d0 <bp_hprint+0x64>
    800005bc:	fef44783          	lbu	a5,-17(s0)
    800005c0:	0577879b          	addiw	a5,a5,87
    800005c4:	0ff7f793          	andi	a5,a5,255
    800005c8:	00078513          	mv	a0,a5
    800005cc:	018000ef          	jal	ra,800005e4 <bp_cprint>
    800005d0:	00000013          	nop
    800005d4:	01813083          	ld	ra,24(sp)
    800005d8:	01013403          	ld	s0,16(sp)
    800005dc:	02010113          	addi	sp,sp,32
    800005e0:	00008067          	ret

00000000800005e4 <bp_cprint>:
    800005e4:	fe010113          	addi	sp,sp,-32
    800005e8:	00813c23          	sd	s0,24(sp)
    800005ec:	02010413          	addi	s0,sp,32
    800005f0:	00050793          	mv	a5,a0
    800005f4:	fef407a3          	sb	a5,-17(s0)
    800005f8:	001017b7          	lui	a5,0x101
    800005fc:	fef44703          	lbu	a4,-17(s0)
    80000600:	00e78023          	sb	a4,0(a5) # 101000 <_start-0x7feff000>
    80000604:	00000013          	nop
    80000608:	01813403          	ld	s0,24(sp)
    8000060c:	02010113          	addi	sp,sp,32
    80000610:	00008067          	ret

0000000080000614 <bp_hprint_uint64>:
    80000614:	fd010113          	addi	sp,sp,-48
    80000618:	02113423          	sd	ra,40(sp)
    8000061c:	02813023          	sd	s0,32(sp)
    80000620:	03010413          	addi	s0,sp,48
    80000624:	fca43c23          	sd	a0,-40(s0)
    80000628:	03000513          	li	a0,48
    8000062c:	fb9ff0ef          	jal	ra,800005e4 <bp_cprint>
    80000630:	07800513          	li	a0,120
    80000634:	fb1ff0ef          	jal	ra,800005e4 <bp_cprint>
    80000638:	fe042623          	sw	zero,-20(s0)
    8000063c:	0340006f          	j	80000670 <bp_hprint_uint64+0x5c>
    80000640:	fd843783          	ld	a5,-40(s0)
    80000644:	03c7d793          	srli	a5,a5,0x3c
    80000648:	fef405a3          	sb	a5,-21(s0)
    8000064c:	feb44783          	lbu	a5,-21(s0)
    80000650:	00078513          	mv	a0,a5
    80000654:	f19ff0ef          	jal	ra,8000056c <bp_hprint>
    80000658:	fd843783          	ld	a5,-40(s0)
    8000065c:	00479793          	slli	a5,a5,0x4
    80000660:	fcf43c23          	sd	a5,-40(s0)
    80000664:	fec42783          	lw	a5,-20(s0)
    80000668:	0017879b          	addiw	a5,a5,1
    8000066c:	fef42623          	sw	a5,-20(s0)
    80000670:	fec42783          	lw	a5,-20(s0)
    80000674:	0007871b          	sext.w	a4,a5
    80000678:	00f00793          	li	a5,15
    8000067c:	fce7d2e3          	bge	a5,a4,80000640 <bp_hprint_uint64+0x2c>
    80000680:	00000013          	nop
    80000684:	00000013          	nop
    80000688:	02813083          	ld	ra,40(sp)
    8000068c:	02013403          	ld	s0,32(sp)
    80000690:	03010113          	addi	sp,sp,48
    80000694:	00008067          	ret

0000000080000698 <bp_print_string>:
    80000698:	fe010113          	addi	sp,sp,-32
    8000069c:	00113c23          	sd	ra,24(sp)
    800006a0:	00813823          	sd	s0,16(sp)
    800006a4:	02010413          	addi	s0,sp,32
    800006a8:	fea43423          	sd	a0,-24(s0)
    800006ac:	0200006f          	j	800006cc <bp_print_string+0x34>
    800006b0:	fe843783          	ld	a5,-24(s0)
    800006b4:	0007c783          	lbu	a5,0(a5)
    800006b8:	00078513          	mv	a0,a5
    800006bc:	f29ff0ef          	jal	ra,800005e4 <bp_cprint>
    800006c0:	fe843783          	ld	a5,-24(s0)
    800006c4:	00178793          	addi	a5,a5,1
    800006c8:	fef43423          	sd	a5,-24(s0)
    800006cc:	fe843783          	ld	a5,-24(s0)
    800006d0:	0007c783          	lbu	a5,0(a5)
    800006d4:	fc079ee3          	bnez	a5,800006b0 <bp_print_string+0x18>
    800006d8:	00000013          	nop
    800006dc:	00000013          	nop
    800006e0:	01813083          	ld	ra,24(sp)
    800006e4:	01013403          	ld	s0,16(sp)
    800006e8:	02010113          	addi	sp,sp,32
    800006ec:	00008067          	ret

00000000800006f0 <bp_cget>:
    800006f0:	fe010113          	addi	sp,sp,-32
    800006f4:	00813c23          	sd	s0,24(sp)
    800006f8:	02010413          	addi	s0,sp,32
    800006fc:	001007b7          	lui	a5,0x100
    80000700:	0007c783          	lbu	a5,0(a5) # 100000 <_start-0x7ff00000>
    80000704:	fef407a3          	sb	a5,-17(s0)
    80000708:	fef44783          	lbu	a5,-17(s0)
    8000070c:	0ff7f713          	andi	a4,a5,255
    80000710:	0ff00793          	li	a5,255
    80000714:	00f71663          	bne	a4,a5,80000720 <bp_cget+0x30>
    80000718:	fff00793          	li	a5,-1
    8000071c:	0240006f          	j	80000740 <bp_cget+0x50>
    80000720:	fef44783          	lbu	a5,-17(s0)
    80000724:	0ff7f713          	andi	a4,a5,255
    80000728:	00d00793          	li	a5,13
    8000072c:	00f71663          	bne	a4,a5,80000738 <bp_cget+0x48>
    80000730:	00a00793          	li	a5,10
    80000734:	00c0006f          	j	80000740 <bp_cget+0x50>
    80000738:	fef44783          	lbu	a5,-17(s0)
    8000073c:	0007879b          	sext.w	a5,a5
    80000740:	00078513          	mv	a0,a5
    80000744:	01813403          	ld	s0,24(sp)
    80000748:	02010113          	addi	sp,sp,32
    8000074c:	00008067          	ret

0000000080000750 <bp_panic>:
    80000750:	fe010113          	addi	sp,sp,-32
    80000754:	00113c23          	sd	ra,24(sp)
    80000758:	00813823          	sd	s0,16(sp)
    8000075c:	02010413          	addi	s0,sp,32
    80000760:	fea43423          	sd	a0,-24(s0)
    80000764:	fe843783          	ld	a5,-24(s0)
    80000768:	00078663          	beqz	a5,80000774 <bp_panic+0x24>
    8000076c:	fe843503          	ld	a0,-24(s0)
    80000770:	f29ff0ef          	jal	ra,80000698 <bp_print_string>
    80000774:	00100513          	li	a0,1
    80000778:	db5ff0ef          	jal	ra,8000052c <bp_finish>
    8000077c:	0000006f          	j	8000077c <bp_panic+0x2c>

0000000080000780 <bp_param_get>:
    80000780:	fe010113          	addi	sp,sp,-32
    80000784:	00813c23          	sd	s0,24(sp)
    80000788:	02010413          	addi	s0,sp,32
    8000078c:	fea43423          	sd	a0,-24(s0)
    80000790:	fe843783          	ld	a5,-24(s0)
    80000794:	0007a783          	lw	a5,0(a5)
    80000798:	0007879b          	sext.w	a5,a5
    8000079c:	00078513          	mv	a0,a5
    800007a0:	01813403          	ld	s0,24(sp)
    800007a4:	02010113          	addi	sp,sp,32
    800007a8:	00008067          	ret

00000000800007ac <dramfs_init>:
    800007ac:	ff010113          	addi	sp,sp,-16
    800007b0:	00113423          	sd	ra,8(sp)
    800007b4:	00813023          	sd	s0,0(sp)
    800007b8:	01010413          	addi	s0,sp,16
    800007bc:	00009317          	auipc	t1,0x9
    800007c0:	7dc33303          	ld	t1,2012(t1) # 80009f98 <_GLOBAL_OFFSET_TABLE_+0x8>
    800007c4:	000300e7          	jalr	t1
    800007c8:	00050793          	mv	a5,a0
    800007cc:	0007d663          	bgez	a5,800007d8 <dramfs_init+0x2c>
    800007d0:	fff00513          	li	a0,-1
    800007d4:	580000ef          	jal	ra,80000d54 <exit>
    800007d8:	00000013          	nop
    800007dc:	00813083          	ld	ra,8(sp)
    800007e0:	00013403          	ld	s0,0(sp)
    800007e4:	01010113          	addi	sp,sp,16
    800007e8:	00008067          	ret

00000000800007ec <dramfs_exit>:
    800007ec:	fe010113          	addi	sp,sp,-32
    800007f0:	00113c23          	sd	ra,24(sp)
    800007f4:	00813823          	sd	s0,16(sp)
    800007f8:	02010413          	addi	s0,sp,32
    800007fc:	00050793          	mv	a5,a0
    80000800:	fef42623          	sw	a5,-20(s0)
    80000804:	fec42783          	lw	a5,-20(s0)
    80000808:	0ff7f793          	andi	a5,a5,255
    8000080c:	00078513          	mv	a0,a5
    80000810:	d1dff0ef          	jal	ra,8000052c <bp_finish>
    80000814:	00000013          	nop
    80000818:	01813083          	ld	ra,24(sp)
    8000081c:	01013403          	ld	s0,16(sp)
    80000820:	02010113          	addi	sp,sp,32
    80000824:	00008067          	ret

0000000080000828 <dramfs_sendchar>:
    80000828:	fe010113          	addi	sp,sp,-32
    8000082c:	00113c23          	sd	ra,24(sp)
    80000830:	00813823          	sd	s0,16(sp)
    80000834:	02010413          	addi	s0,sp,32
    80000838:	00050793          	mv	a5,a0
    8000083c:	fef407a3          	sb	a5,-17(s0)
    80000840:	fef44783          	lbu	a5,-17(s0)
    80000844:	00078513          	mv	a0,a5
    80000848:	d9dff0ef          	jal	ra,800005e4 <bp_cprint>
    8000084c:	00000013          	nop
    80000850:	01813083          	ld	ra,24(sp)
    80000854:	01013403          	ld	s0,16(sp)
    80000858:	02010113          	addi	sp,sp,32
    8000085c:	00008067          	ret

0000000080000860 <dramfs_getchar>:
    80000860:	ff010113          	addi	sp,sp,-16
    80000864:	00113423          	sd	ra,8(sp)
    80000868:	00813023          	sd	s0,0(sp)
    8000086c:	01010413          	addi	s0,sp,16
    80000870:	e81ff0ef          	jal	ra,800006f0 <bp_cget>
    80000874:	00050793          	mv	a5,a0
    80000878:	00078513          	mv	a0,a5
    8000087c:	00813083          	ld	ra,8(sp)
    80000880:	00013403          	ld	s0,0(sp)
    80000884:	01010113          	addi	sp,sp,16
    80000888:	00008067          	ret

000000008000088c <bp_dump_trap_context>:
    8000088c:	fd010113          	addi	sp,sp,-48
    80000890:	02113423          	sd	ra,40(sp)
    80000894:	02813023          	sd	s0,32(sp)
    80000898:	03010413          	addi	s0,sp,48
    8000089c:	fca43c23          	sd	a0,-40(s0)
    800008a0:	fcb43823          	sd	a1,-48(s0)
    800008a4:	341027f3          	csrr	a5,mepc
    800008a8:	fef43423          	sd	a5,-24(s0)
    800008ac:	00007517          	auipc	a0,0x7
    800008b0:	91450513          	addi	a0,a0,-1772 # 800071c0 <register_fini+0x18>
    800008b4:	de5ff0ef          	jal	ra,80000698 <bp_print_string>
    800008b8:	fd843503          	ld	a0,-40(s0)
    800008bc:	d59ff0ef          	jal	ra,80000614 <bp_hprint_uint64>
    800008c0:	00007517          	auipc	a0,0x7
    800008c4:	91050513          	addi	a0,a0,-1776 # 800071d0 <register_fini+0x28>
    800008c8:	dd1ff0ef          	jal	ra,80000698 <bp_print_string>
    800008cc:	fd043503          	ld	a0,-48(s0)
    800008d0:	d45ff0ef          	jal	ra,80000614 <bp_hprint_uint64>
    800008d4:	00007517          	auipc	a0,0x7
    800008d8:	90c50513          	addi	a0,a0,-1780 # 800071e0 <register_fini+0x38>
    800008dc:	dbdff0ef          	jal	ra,80000698 <bp_print_string>
    800008e0:	fe843503          	ld	a0,-24(s0)
    800008e4:	d31ff0ef          	jal	ra,80000614 <bp_hprint_uint64>
    800008e8:	00000013          	nop
    800008ec:	02813083          	ld	ra,40(sp)
    800008f0:	02013403          	ld	s0,32(sp)
    800008f4:	03010113          	addi	sp,sp,48
    800008f8:	00008067          	ret

00000000800008fc <bp_emulate_illegal_instruction>:
    800008fc:	fa010113          	addi	sp,sp,-96
    80000900:	04113c23          	sd	ra,88(sp)
    80000904:	04813823          	sd	s0,80(sp)
    80000908:	04913423          	sd	s1,72(sp)
    8000090c:	06010413          	addi	s0,sp,96
    80000910:	faa43c23          	sd	a0,-72(s0)
    80000914:	fab43823          	sd	a1,-80(s0)
    80000918:	fac43423          	sd	a2,-88(s0)
    8000091c:	fa843783          	ld	a5,-88(s0)
    80000920:	0147d793          	srli	a5,a5,0x14
    80000924:	03079793          	slli	a5,a5,0x30
    80000928:	0307d793          	srli	a5,a5,0x30
    8000092c:	7ff7f793          	andi	a5,a5,2047
    80000930:	fcf41f23          	sh	a5,-34(s0)
    80000934:	fa843783          	ld	a5,-88(s0)
    80000938:	01b7d793          	srli	a5,a5,0x1b
    8000093c:	0ff7f793          	andi	a5,a5,255
    80000940:	01f7f793          	andi	a5,a5,31
    80000944:	fcf40ea3          	sb	a5,-35(s0)
    80000948:	fa843783          	ld	a5,-88(s0)
    8000094c:	0147d793          	srli	a5,a5,0x14
    80000950:	0ff7f793          	andi	a5,a5,255
    80000954:	01f7f793          	andi	a5,a5,31
    80000958:	fcf40e23          	sb	a5,-36(s0)
    8000095c:	fa843783          	ld	a5,-88(s0)
    80000960:	00f7d793          	srli	a5,a5,0xf
    80000964:	0ff7f793          	andi	a5,a5,255
    80000968:	01f7f793          	andi	a5,a5,31
    8000096c:	fcf40da3          	sb	a5,-37(s0)
    80000970:	fa843783          	ld	a5,-88(s0)
    80000974:	00c7d793          	srli	a5,a5,0xc
    80000978:	0ff7f793          	andi	a5,a5,255
    8000097c:	0077f793          	andi	a5,a5,7
    80000980:	fcf40d23          	sb	a5,-38(s0)
    80000984:	fa843783          	ld	a5,-88(s0)
    80000988:	0077d793          	srli	a5,a5,0x7
    8000098c:	0ff7f793          	andi	a5,a5,255
    80000990:	01f7f793          	andi	a5,a5,31
    80000994:	fcf40ca3          	sb	a5,-39(s0)
    80000998:	fa843783          	ld	a5,-88(s0)
    8000099c:	0ff7f793          	andi	a5,a5,255
    800009a0:	07f7f793          	andi	a5,a5,127
    800009a4:	fcf40c23          	sb	a5,-40(s0)
    800009a8:	fdb44783          	lbu	a5,-37(s0)
    800009ac:	00379793          	slli	a5,a5,0x3
    800009b0:	fb843703          	ld	a4,-72(s0)
    800009b4:	00f707b3          	add	a5,a4,a5
    800009b8:	0007b783          	ld	a5,0(a5)
    800009bc:	fcf43823          	sd	a5,-48(s0)
    800009c0:	fdc44783          	lbu	a5,-36(s0)
    800009c4:	00379793          	slli	a5,a5,0x3
    800009c8:	fb843703          	ld	a4,-72(s0)
    800009cc:	00f707b3          	add	a5,a4,a5
    800009d0:	0007b783          	ld	a5,0(a5)
    800009d4:	fcf43423          	sd	a5,-56(s0)
    800009d8:	fd844783          	lbu	a5,-40(s0)
    800009dc:	0ff7f713          	andi	a4,a5,255
    800009e0:	02f00793          	li	a5,47
    800009e4:	04f71c63          	bne	a4,a5,80000a3c <bp_emulate_illegal_instruction+0x140>
    800009e8:	fda44783          	lbu	a5,-38(s0)
    800009ec:	0007879b          	sext.w	a5,a5
    800009f0:	00009717          	auipc	a4,0x9
    800009f4:	56070713          	addi	a4,a4,1376 # 80009f50 <amo_jt>
    800009f8:	00379793          	slli	a5,a5,0x3
    800009fc:	00f707b3          	add	a5,a4,a5
    80000a00:	0007b703          	ld	a4,0(a5)
    80000a04:	fdd44783          	lbu	a5,-35(s0)
    80000a08:	00379793          	slli	a5,a5,0x3
    80000a0c:	00f707b3          	add	a5,a4,a5
    80000a10:	0007b683          	ld	a3,0(a5)
    80000a14:	fd944783          	lbu	a5,-39(s0)
    80000a18:	00379793          	slli	a5,a5,0x3
    80000a1c:	fb843703          	ld	a4,-72(s0)
    80000a20:	00f704b3          	add	s1,a4,a5
    80000a24:	fc843583          	ld	a1,-56(s0)
    80000a28:	fd043503          	ld	a0,-48(s0)
    80000a2c:	000680e7          	jalr	a3
    80000a30:	00050793          	mv	a5,a0
    80000a34:	00f4b023          	sd	a5,0(s1)
    80000a38:	0700006f          	j	80000aa8 <bp_emulate_illegal_instruction+0x1ac>
    80000a3c:	fd844783          	lbu	a5,-40(s0)
    80000a40:	0ff7f713          	andi	a4,a5,255
    80000a44:	03300793          	li	a5,51
    80000a48:	04f71463          	bne	a4,a5,80000a90 <bp_emulate_illegal_instruction+0x194>
    80000a4c:	fda44783          	lbu	a5,-38(s0)
    80000a50:	0007879b          	sext.w	a5,a5
    80000a54:	00009717          	auipc	a4,0x9
    80000a58:	4bc70713          	addi	a4,a4,1212 # 80009f10 <mul_jt>
    80000a5c:	00379793          	slli	a5,a5,0x3
    80000a60:	00f707b3          	add	a5,a4,a5
    80000a64:	0007b683          	ld	a3,0(a5)
    80000a68:	fd944783          	lbu	a5,-39(s0)
    80000a6c:	00379793          	slli	a5,a5,0x3
    80000a70:	fb843703          	ld	a4,-72(s0)
    80000a74:	00f704b3          	add	s1,a4,a5
    80000a78:	fc843583          	ld	a1,-56(s0)
    80000a7c:	fd043503          	ld	a0,-48(s0)
    80000a80:	000680e7          	jalr	a3
    80000a84:	00050793          	mv	a5,a0
    80000a88:	00f4b023          	sd	a5,0(s1)
    80000a8c:	01c0006f          	j	80000aa8 <bp_emulate_illegal_instruction+0x1ac>
    80000a90:	fa843583          	ld	a1,-88(s0)
    80000a94:	fb043503          	ld	a0,-80(s0)
    80000a98:	df5ff0ef          	jal	ra,8000088c <bp_dump_trap_context>
    80000a9c:	00006517          	auipc	a0,0x6
    80000aa0:	75450513          	addi	a0,a0,1876 # 800071f0 <register_fini+0x48>
    80000aa4:	cadff0ef          	jal	ra,80000750 <bp_panic>
    80000aa8:	00000013          	nop
    80000aac:	05813083          	ld	ra,88(sp)
    80000ab0:	05013403          	ld	s0,80(sp)
    80000ab4:	04813483          	ld	s1,72(sp)
    80000ab8:	06010113          	addi	sp,sp,96
    80000abc:	00008067          	ret

0000000080000ac0 <bp_unhandled_trap_abort>:
    80000ac0:	fd010113          	addi	sp,sp,-48
    80000ac4:	02113423          	sd	ra,40(sp)
    80000ac8:	02813023          	sd	s0,32(sp)
    80000acc:	03010413          	addi	s0,sp,48
    80000ad0:	fea43423          	sd	a0,-24(s0)
    80000ad4:	feb43023          	sd	a1,-32(s0)
    80000ad8:	fcc43c23          	sd	a2,-40(s0)
    80000adc:	fd843583          	ld	a1,-40(s0)
    80000ae0:	fe043503          	ld	a0,-32(s0)
    80000ae4:	da9ff0ef          	jal	ra,8000088c <bp_dump_trap_context>
    80000ae8:	00006517          	auipc	a0,0x6
    80000aec:	72050513          	addi	a0,a0,1824 # 80007208 <register_fini+0x60>
    80000af0:	c61ff0ef          	jal	ra,80000750 <bp_panic>
    80000af4:	00000013          	nop
    80000af8:	02813083          	ld	ra,40(sp)
    80000afc:	02013403          	ld	s0,32(sp)
    80000b00:	03010113          	addi	sp,sp,48
    80000b04:	00008067          	ret

0000000080000b08 <__mtvec_handler>:
    80000b08:	34011173          	csrrw	sp,mscratch,sp
    80000b0c:	01f13023          	sd	t6,0(sp)
    80000b10:	ffe13c23          	sd	t5,-8(sp)
    80000b14:	ffd13823          	sd	t4,-16(sp)
    80000b18:	ffc13423          	sd	t3,-24(sp)
    80000b1c:	ffb13023          	sd	s11,-32(sp)
    80000b20:	fda13c23          	sd	s10,-40(sp)
    80000b24:	fd913823          	sd	s9,-48(sp)
    80000b28:	fd813423          	sd	s8,-56(sp)
    80000b2c:	fd713023          	sd	s7,-64(sp)
    80000b30:	fb613c23          	sd	s6,-72(sp)
    80000b34:	fb513823          	sd	s5,-80(sp)
    80000b38:	fb413423          	sd	s4,-88(sp)
    80000b3c:	fb313023          	sd	s3,-96(sp)
    80000b40:	f9213c23          	sd	s2,-104(sp)
    80000b44:	f9113823          	sd	a7,-112(sp)
    80000b48:	f9013423          	sd	a6,-120(sp)
    80000b4c:	f8f13023          	sd	a5,-128(sp)
    80000b50:	f6e13c23          	sd	a4,-136(sp)
    80000b54:	f6d13823          	sd	a3,-144(sp)
    80000b58:	f6c13423          	sd	a2,-152(sp)
    80000b5c:	f6b13023          	sd	a1,-160(sp)
    80000b60:	f4a13c23          	sd	a0,-168(sp)
    80000b64:	f4913823          	sd	s1,-176(sp)
    80000b68:	f4813423          	sd	s0,-184(sp)
    80000b6c:	f4713023          	sd	t2,-192(sp)
    80000b70:	f2613c23          	sd	t1,-200(sp)
    80000b74:	f2513823          	sd	t0,-208(sp)
    80000b78:	f2413423          	sd	tp,-216(sp)
    80000b7c:	f2313023          	sd	gp,-224(sp)
    80000b80:	340022f3          	csrr	t0,mscratch
    80000b84:	f0513c23          	sd	t0,-232(sp)
    80000b88:	f0113823          	sd	ra,-240(sp)
    80000b8c:	f0013423          	sd	zero,-248(sp)
    80000b90:	f0010113          	addi	sp,sp,-256
    80000b94:	00810513          	addi	a0,sp,8
    80000b98:	342025f3          	csrr	a1,mcause
    80000b9c:	34302673          	csrr	a2,mtval
    80000ba0:	00000097          	auipc	ra,0x0
    80000ba4:	01808093          	addi	ra,ra,24 # 80000bb8 <__mtvec_handler+0xb0>
    80000ba8:	00200293          	li	t0,2
    80000bac:	00559463          	bne	a1,t0,80000bb4 <__mtvec_handler+0xac>
    80000bb0:	d4dff06f          	j	800008fc <bp_emulate_illegal_instruction>
    80000bb4:	f0dff06f          	j	80000ac0 <bp_unhandled_trap_abort>
    80000bb8:	341022f3          	csrr	t0,mepc
    80000bbc:	00428293          	addi	t0,t0,4
    80000bc0:	34129073          	csrw	mepc,t0
    80000bc4:	10010113          	addi	sp,sp,256
    80000bc8:	34011073          	csrw	mscratch,sp
    80000bcc:	f0813003          	ld	zero,-248(sp)
    80000bd0:	f1013083          	ld	ra,-240(sp)
    80000bd4:	f2013183          	ld	gp,-224(sp)
    80000bd8:	f2813203          	ld	tp,-216(sp)
    80000bdc:	f3013283          	ld	t0,-208(sp)
    80000be0:	f3813303          	ld	t1,-200(sp)
    80000be4:	f4013383          	ld	t2,-192(sp)
    80000be8:	f4813403          	ld	s0,-184(sp)
    80000bec:	f5013483          	ld	s1,-176(sp)
    80000bf0:	f5813503          	ld	a0,-168(sp)
    80000bf4:	f6013583          	ld	a1,-160(sp)
    80000bf8:	f6813603          	ld	a2,-152(sp)
    80000bfc:	f7013683          	ld	a3,-144(sp)
    80000c00:	f7813703          	ld	a4,-136(sp)
    80000c04:	f8013783          	ld	a5,-128(sp)
    80000c08:	f8813803          	ld	a6,-120(sp)
    80000c0c:	f9013883          	ld	a7,-112(sp)
    80000c10:	f9813903          	ld	s2,-104(sp)
    80000c14:	fa013983          	ld	s3,-96(sp)
    80000c18:	fa813a03          	ld	s4,-88(sp)
    80000c1c:	fb013a83          	ld	s5,-80(sp)
    80000c20:	fb813b03          	ld	s6,-72(sp)
    80000c24:	fc013b83          	ld	s7,-64(sp)
    80000c28:	fc813c03          	ld	s8,-56(sp)
    80000c2c:	fd013c83          	ld	s9,-48(sp)
    80000c30:	fd813d03          	ld	s10,-40(sp)
    80000c34:	fe013d83          	ld	s11,-32(sp)
    80000c38:	fe813e03          	ld	t3,-24(sp)
    80000c3c:	ff013e83          	ld	t4,-16(sp)
    80000c40:	ff813f03          	ld	t5,-8(sp)
    80000c44:	00013f83          	ld	t6,0(sp)
    80000c48:	f1813103          	ld	sp,-232(sp)
    80000c4c:	30200073          	mret

0000000080000c50 <mul_mulh>:
    80000c50:	02051613          	slli	a2,a0,0x20
    80000c54:	02065613          	srli	a2,a2,0x20
    80000c58:	02059693          	slli	a3,a1,0x20
    80000c5c:	0206d693          	srli	a3,a3,0x20
    80000c60:	02d60733          	mul	a4,a2,a3
    80000c64:	42075793          	srai	a5,a4,0x20
    80000c68:	42055293          	srai	t0,a0,0x20
    80000c6c:	02d28733          	mul	a4,t0,a3
    80000c70:	00f70733          	add	a4,a4,a5
    80000c74:	02071793          	slli	a5,a4,0x20
    80000c78:	0207d793          	srli	a5,a5,0x20
    80000c7c:	42075813          	srai	a6,a4,0x20
    80000c80:	4205d313          	srai	t1,a1,0x20
    80000c84:	02660733          	mul	a4,a2,t1
    80000c88:	00f70733          	add	a4,a4,a5
    80000c8c:	42075793          	srai	a5,a4,0x20
    80000c90:	026282b3          	mul	t0,t0,t1
    80000c94:	010282b3          	add	t0,t0,a6
    80000c98:	00f28533          	add	a0,t0,a5
    80000c9c:	00008067          	ret

0000000080000ca0 <mul_mulhsu>:
    80000ca0:	02051613          	slli	a2,a0,0x20
    80000ca4:	02065613          	srli	a2,a2,0x20
    80000ca8:	02059693          	slli	a3,a1,0x20
    80000cac:	0206d693          	srli	a3,a3,0x20
    80000cb0:	02d60733          	mul	a4,a2,a3
    80000cb4:	42075793          	srai	a5,a4,0x20
    80000cb8:	42055293          	srai	t0,a0,0x20
    80000cbc:	02d28733          	mul	a4,t0,a3
    80000cc0:	00f70733          	add	a4,a4,a5
    80000cc4:	02071793          	slli	a5,a4,0x20
    80000cc8:	0207d793          	srli	a5,a5,0x20
    80000ccc:	42075813          	srai	a6,a4,0x20
    80000cd0:	0205d313          	srli	t1,a1,0x20
    80000cd4:	02660733          	mul	a4,a2,t1
    80000cd8:	00f70733          	add	a4,a4,a5
    80000cdc:	02075793          	srli	a5,a4,0x20
    80000ce0:	026282b3          	mul	t0,t0,t1
    80000ce4:	010282b3          	add	t0,t0,a6
    80000ce8:	00f28533          	add	a0,t0,a5
    80000cec:	00008067          	ret

0000000080000cf0 <mul_mulhu>:
    80000cf0:	02051613          	slli	a2,a0,0x20
    80000cf4:	02065613          	srli	a2,a2,0x20
    80000cf8:	02055293          	srli	t0,a0,0x20
    80000cfc:	02059693          	slli	a3,a1,0x20
    80000d00:	0206d693          	srli	a3,a3,0x20
    80000d04:	0205d313          	srli	t1,a1,0x20
    80000d08:	02d60733          	mul	a4,a2,a3
    80000d0c:	02075793          	srli	a5,a4,0x20
    80000d10:	02d28733          	mul	a4,t0,a3
    80000d14:	00f70733          	add	a4,a4,a5
    80000d18:	02071793          	slli	a5,a4,0x20
    80000d1c:	0207d793          	srli	a5,a5,0x20
    80000d20:	02075813          	srli	a6,a4,0x20
    80000d24:	02660733          	mul	a4,a2,t1
    80000d28:	00f70733          	add	a4,a4,a5
    80000d2c:	02075793          	srli	a5,a4,0x20
    80000d30:	026282b3          	mul	t0,t0,t1
    80000d34:	010282b3          	add	t0,t0,a6
    80000d38:	00f28533          	add	a0,t0,a5
    80000d3c:	00008067          	ret

0000000080000d40 <atexit>:
    80000d40:	00050593          	mv	a1,a0
    80000d44:	00000693          	li	a3,0
    80000d48:	00000613          	li	a2,0
    80000d4c:	00000513          	li	a0,0
    80000d50:	2040006f          	j	80000f54 <__register_exitproc>

0000000080000d54 <exit>:
    80000d54:	ff010113          	addi	sp,sp,-16
    80000d58:	00000593          	li	a1,0
    80000d5c:	00813023          	sd	s0,0(sp)
    80000d60:	00113423          	sd	ra,8(sp)
    80000d64:	00050413          	mv	s0,a0
    80000d68:	2b0000ef          	jal	ra,80001018 <__call_exitprocs>
    80000d6c:	00006517          	auipc	a0,0x6
    80000d70:	53453503          	ld	a0,1332(a0) # 800072a0 <_global_impure_ptr>
    80000d74:	04853783          	ld	a5,72(a0)
    80000d78:	00078463          	beqz	a5,80000d80 <exit+0x2c>
    80000d7c:	000780e7          	jalr	a5
    80000d80:	00040513          	mv	a0,s0
    80000d84:	3e4000ef          	jal	ra,80001168 <_exit>

0000000080000d88 <__libc_fini_array>:
    80000d88:	fe010113          	addi	sp,sp,-32
    80000d8c:	00813823          	sd	s0,16(sp)
    80000d90:	00006797          	auipc	a5,0x6
    80000d94:	53078793          	addi	a5,a5,1328 # 800072c0 <__FRAME_END__>
    80000d98:	00006417          	auipc	s0,0x6
    80000d9c:	52040413          	addi	s0,s0,1312 # 800072b8 <__do_global_dtors_aux_fini_array_entry>
    80000da0:	408787b3          	sub	a5,a5,s0
    80000da4:	00913423          	sd	s1,8(sp)
    80000da8:	00113c23          	sd	ra,24(sp)
    80000dac:	4037d493          	srai	s1,a5,0x3
    80000db0:	02048063          	beqz	s1,80000dd0 <__libc_fini_array+0x48>
    80000db4:	ff878793          	addi	a5,a5,-8
    80000db8:	00878433          	add	s0,a5,s0
    80000dbc:	00043783          	ld	a5,0(s0)
    80000dc0:	fff48493          	addi	s1,s1,-1
    80000dc4:	ff840413          	addi	s0,s0,-8
    80000dc8:	000780e7          	jalr	a5
    80000dcc:	fe0498e3          	bnez	s1,80000dbc <__libc_fini_array+0x34>
    80000dd0:	01813083          	ld	ra,24(sp)
    80000dd4:	01013403          	ld	s0,16(sp)
    80000dd8:	00813483          	ld	s1,8(sp)
    80000ddc:	02010113          	addi	sp,sp,32
    80000de0:	00008067          	ret

0000000080000de4 <__libc_init_array>:
    80000de4:	fe010113          	addi	sp,sp,-32
    80000de8:	00813823          	sd	s0,16(sp)
    80000dec:	01213023          	sd	s2,0(sp)
    80000df0:	00006417          	auipc	s0,0x6
    80000df4:	4b840413          	addi	s0,s0,1208 # 800072a8 <__init_array_start>
    80000df8:	00006917          	auipc	s2,0x6
    80000dfc:	4b090913          	addi	s2,s2,1200 # 800072a8 <__init_array_start>
    80000e00:	40890933          	sub	s2,s2,s0
    80000e04:	00113c23          	sd	ra,24(sp)
    80000e08:	00913423          	sd	s1,8(sp)
    80000e0c:	40395913          	srai	s2,s2,0x3
    80000e10:	00090e63          	beqz	s2,80000e2c <__libc_init_array+0x48>
    80000e14:	00000493          	li	s1,0
    80000e18:	00043783          	ld	a5,0(s0)
    80000e1c:	00148493          	addi	s1,s1,1
    80000e20:	00840413          	addi	s0,s0,8
    80000e24:	000780e7          	jalr	a5
    80000e28:	fe9918e3          	bne	s2,s1,80000e18 <__libc_init_array+0x34>
    80000e2c:	00006417          	auipc	s0,0x6
    80000e30:	47c40413          	addi	s0,s0,1148 # 800072a8 <__init_array_start>
    80000e34:	00006917          	auipc	s2,0x6
    80000e38:	48490913          	addi	s2,s2,1156 # 800072b8 <__do_global_dtors_aux_fini_array_entry>
    80000e3c:	40890933          	sub	s2,s2,s0
    80000e40:	40395913          	srai	s2,s2,0x3
    80000e44:	00090e63          	beqz	s2,80000e60 <__libc_init_array+0x7c>
    80000e48:	00000493          	li	s1,0
    80000e4c:	00043783          	ld	a5,0(s0)
    80000e50:	00148493          	addi	s1,s1,1
    80000e54:	00840413          	addi	s0,s0,8
    80000e58:	000780e7          	jalr	a5
    80000e5c:	fe9918e3          	bne	s2,s1,80000e4c <__libc_init_array+0x68>
    80000e60:	01813083          	ld	ra,24(sp)
    80000e64:	01013403          	ld	s0,16(sp)
    80000e68:	00813483          	ld	s1,8(sp)
    80000e6c:	00013903          	ld	s2,0(sp)
    80000e70:	02010113          	addi	sp,sp,32
    80000e74:	00008067          	ret

0000000080000e78 <memset>:
    80000e78:	00f00313          	li	t1,15
    80000e7c:	00050713          	mv	a4,a0
    80000e80:	02c37a63          	bgeu	t1,a2,80000eb4 <memset+0x3c>
    80000e84:	00f77793          	andi	a5,a4,15
    80000e88:	0a079063          	bnez	a5,80000f28 <memset+0xb0>
    80000e8c:	06059e63          	bnez	a1,80000f08 <memset+0x90>
    80000e90:	ff067693          	andi	a3,a2,-16
    80000e94:	00f67613          	andi	a2,a2,15
    80000e98:	00e686b3          	add	a3,a3,a4
    80000e9c:	00b73023          	sd	a1,0(a4)
    80000ea0:	00b73423          	sd	a1,8(a4)
    80000ea4:	01070713          	addi	a4,a4,16
    80000ea8:	fed76ae3          	bltu	a4,a3,80000e9c <memset+0x24>
    80000eac:	00061463          	bnez	a2,80000eb4 <memset+0x3c>
    80000eb0:	00008067          	ret
    80000eb4:	40c306b3          	sub	a3,t1,a2
    80000eb8:	00269693          	slli	a3,a3,0x2
    80000ebc:	00000297          	auipc	t0,0x0
    80000ec0:	005686b3          	add	a3,a3,t0
    80000ec4:	00c68067          	jr	12(a3)
    80000ec8:	00b70723          	sb	a1,14(a4)
    80000ecc:	00b706a3          	sb	a1,13(a4)
    80000ed0:	00b70623          	sb	a1,12(a4)
    80000ed4:	00b705a3          	sb	a1,11(a4)
    80000ed8:	00b70523          	sb	a1,10(a4)
    80000edc:	00b704a3          	sb	a1,9(a4)
    80000ee0:	00b70423          	sb	a1,8(a4)
    80000ee4:	00b703a3          	sb	a1,7(a4)
    80000ee8:	00b70323          	sb	a1,6(a4)
    80000eec:	00b702a3          	sb	a1,5(a4)
    80000ef0:	00b70223          	sb	a1,4(a4)
    80000ef4:	00b701a3          	sb	a1,3(a4)
    80000ef8:	00b70123          	sb	a1,2(a4)
    80000efc:	00b700a3          	sb	a1,1(a4)
    80000f00:	00b70023          	sb	a1,0(a4)
    80000f04:	00008067          	ret
    80000f08:	0ff5f593          	andi	a1,a1,255
    80000f0c:	00859693          	slli	a3,a1,0x8
    80000f10:	00d5e5b3          	or	a1,a1,a3
    80000f14:	01059693          	slli	a3,a1,0x10
    80000f18:	00d5e5b3          	or	a1,a1,a3
    80000f1c:	02059693          	slli	a3,a1,0x20
    80000f20:	00d5e5b3          	or	a1,a1,a3
    80000f24:	f6dff06f          	j	80000e90 <memset+0x18>
    80000f28:	00279693          	slli	a3,a5,0x2
    80000f2c:	00000297          	auipc	t0,0x0
    80000f30:	005686b3          	add	a3,a3,t0
    80000f34:	00008293          	mv	t0,ra
    80000f38:	f98680e7          	jalr	-104(a3)
    80000f3c:	00028093          	mv	ra,t0
    80000f40:	ff078793          	addi	a5,a5,-16
    80000f44:	40f70733          	sub	a4,a4,a5
    80000f48:	00f60633          	add	a2,a2,a5
    80000f4c:	f6c374e3          	bgeu	t1,a2,80000eb4 <memset+0x3c>
    80000f50:	f3dff06f          	j	80000e8c <memset+0x14>

0000000080000f54 <__register_exitproc>:
    80000f54:	00006717          	auipc	a4,0x6
    80000f58:	34c73703          	ld	a4,844(a4) # 800072a0 <_global_impure_ptr>
    80000f5c:	08073783          	ld	a5,128(a4)
    80000f60:	06078463          	beqz	a5,80000fc8 <__register_exitproc+0x74>
    80000f64:	0087a703          	lw	a4,8(a5)
    80000f68:	01f00813          	li	a6,31
    80000f6c:	0ae84263          	blt	a6,a4,80001010 <__register_exitproc+0xbc>
    80000f70:	02050c63          	beqz	a0,80000fa8 <__register_exitproc+0x54>
    80000f74:	1107b803          	ld	a6,272(a5)
    80000f78:	08080c63          	beqz	a6,80001010 <__register_exitproc+0xbc>
    80000f7c:	00371893          	slli	a7,a4,0x3
    80000f80:	011808b3          	add	a7,a6,a7
    80000f84:	00c8b023          	sd	a2,0(a7)
    80000f88:	20082303          	lw	t1,512(a6)
    80000f8c:	00100613          	li	a2,1
    80000f90:	00e6163b          	sllw	a2,a2,a4
    80000f94:	00c36333          	or	t1,t1,a2
    80000f98:	20682023          	sw	t1,512(a6)
    80000f9c:	10d8b023          	sd	a3,256(a7)
    80000fa0:	00200693          	li	a3,2
    80000fa4:	04d50063          	beq	a0,a3,80000fe4 <__register_exitproc+0x90>
    80000fa8:	00270693          	addi	a3,a4,2
    80000fac:	00369693          	slli	a3,a3,0x3
    80000fb0:	0017071b          	addiw	a4,a4,1
    80000fb4:	00e7a423          	sw	a4,8(a5)
    80000fb8:	00d787b3          	add	a5,a5,a3
    80000fbc:	00b7b023          	sd	a1,0(a5)
    80000fc0:	00000513          	li	a0,0
    80000fc4:	00008067          	ret
    80000fc8:	08870793          	addi	a5,a4,136
    80000fcc:	08f73023          	sd	a5,128(a4)
    80000fd0:	00000813          	li	a6,0
    80000fd4:	f80808e3          	beqz	a6,80000f64 <__register_exitproc+0x10>
    80000fd8:	00083803          	ld	a6,0(a6)
    80000fdc:	19073c23          	sd	a6,408(a4)
    80000fe0:	f85ff06f          	j	80000f64 <__register_exitproc+0x10>
    80000fe4:	20482683          	lw	a3,516(a6)
    80000fe8:	00000513          	li	a0,0
    80000fec:	00c6e633          	or	a2,a3,a2
    80000ff0:	00270693          	addi	a3,a4,2
    80000ff4:	20c82223          	sw	a2,516(a6)
    80000ff8:	0017071b          	addiw	a4,a4,1
    80000ffc:	00369693          	slli	a3,a3,0x3
    80001000:	00e7a423          	sw	a4,8(a5)
    80001004:	00d787b3          	add	a5,a5,a3
    80001008:	00b7b023          	sd	a1,0(a5)
    8000100c:	00008067          	ret
    80001010:	fff00513          	li	a0,-1
    80001014:	00008067          	ret

0000000080001018 <__call_exitprocs>:
    80001018:	fa010113          	addi	sp,sp,-96
    8000101c:	03413823          	sd	s4,48(sp)
    80001020:	00006a17          	auipc	s4,0x6
    80001024:	280a3a03          	ld	s4,640(s4) # 800072a0 <_global_impure_ptr>
    80001028:	03313c23          	sd	s3,56(sp)
    8000102c:	080a3983          	ld	s3,128(s4)
    80001030:	04113c23          	sd	ra,88(sp)
    80001034:	04813823          	sd	s0,80(sp)
    80001038:	04913423          	sd	s1,72(sp)
    8000103c:	05213023          	sd	s2,64(sp)
    80001040:	03513423          	sd	s5,40(sp)
    80001044:	03613023          	sd	s6,32(sp)
    80001048:	01713c23          	sd	s7,24(sp)
    8000104c:	01813823          	sd	s8,16(sp)
    80001050:	01913423          	sd	s9,8(sp)
    80001054:	01a13023          	sd	s10,0(sp)
    80001058:	04098863          	beqz	s3,800010a8 <__call_exitprocs+0x90>
    8000105c:	00050b13          	mv	s6,a0
    80001060:	00058c13          	mv	s8,a1
    80001064:	00100a93          	li	s5,1
    80001068:	fff00c93          	li	s9,-1
    8000106c:	0089a483          	lw	s1,8(s3)
    80001070:	1109bb83          	ld	s7,272(s3)
    80001074:	fff4841b          	addiw	s0,s1,-1
    80001078:	02044863          	bltz	s0,800010a8 <__call_exitprocs+0x90>
    8000107c:	00349493          	slli	s1,s1,0x3
    80001080:	009b8933          	add	s2,s7,s1
    80001084:	009984b3          	add	s1,s3,s1
    80001088:	040c0c63          	beqz	s8,800010e0 <__call_exitprocs+0xc8>
    8000108c:	000b8663          	beqz	s7,80001098 <__call_exitprocs+0x80>
    80001090:	0f893783          	ld	a5,248(s2)
    80001094:	05878663          	beq	a5,s8,800010e0 <__call_exitprocs+0xc8>
    80001098:	fff4041b          	addiw	s0,s0,-1
    8000109c:	ff890913          	addi	s2,s2,-8
    800010a0:	ff848493          	addi	s1,s1,-8
    800010a4:	ff9412e3          	bne	s0,s9,80001088 <__call_exitprocs+0x70>
    800010a8:	05813083          	ld	ra,88(sp)
    800010ac:	05013403          	ld	s0,80(sp)
    800010b0:	04813483          	ld	s1,72(sp)
    800010b4:	04013903          	ld	s2,64(sp)
    800010b8:	03813983          	ld	s3,56(sp)
    800010bc:	03013a03          	ld	s4,48(sp)
    800010c0:	02813a83          	ld	s5,40(sp)
    800010c4:	02013b03          	ld	s6,32(sp)
    800010c8:	01813b83          	ld	s7,24(sp)
    800010cc:	01013c03          	ld	s8,16(sp)
    800010d0:	00813c83          	ld	s9,8(sp)
    800010d4:	00013d03          	ld	s10,0(sp)
    800010d8:	06010113          	addi	sp,sp,96
    800010dc:	00008067          	ret
    800010e0:	0089a783          	lw	a5,8(s3)
    800010e4:	0084b703          	ld	a4,8(s1)
    800010e8:	fff7879b          	addiw	a5,a5,-1
    800010ec:	06878463          	beq	a5,s0,80001154 <__call_exitprocs+0x13c>
    800010f0:	0004b423          	sd	zero,8(s1)
    800010f4:	fa0702e3          	beqz	a4,80001098 <__call_exitprocs+0x80>
    800010f8:	0089ad03          	lw	s10,8(s3)
    800010fc:	040b8863          	beqz	s7,8000114c <__call_exitprocs+0x134>
    80001100:	200ba783          	lw	a5,512(s7)
    80001104:	008a96bb          	sllw	a3,s5,s0
    80001108:	00d7f7b3          	and	a5,a5,a3
    8000110c:	0007879b          	sext.w	a5,a5
    80001110:	02078e63          	beqz	a5,8000114c <__call_exitprocs+0x134>
    80001114:	204ba783          	lw	a5,516(s7)
    80001118:	ff893583          	ld	a1,-8(s2)
    8000111c:	00d7f7b3          	and	a5,a5,a3
    80001120:	0007879b          	sext.w	a5,a5
    80001124:	02079c63          	bnez	a5,8000115c <__call_exitprocs+0x144>
    80001128:	000b0513          	mv	a0,s6
    8000112c:	000700e7          	jalr	a4
    80001130:	0089a703          	lw	a4,8(s3)
    80001134:	080a3783          	ld	a5,128(s4)
    80001138:	01a71463          	bne	a4,s10,80001140 <__call_exitprocs+0x128>
    8000113c:	f5378ee3          	beq	a5,s3,80001098 <__call_exitprocs+0x80>
    80001140:	f60784e3          	beqz	a5,800010a8 <__call_exitprocs+0x90>
    80001144:	00078993          	mv	s3,a5
    80001148:	f25ff06f          	j	8000106c <__call_exitprocs+0x54>
    8000114c:	000700e7          	jalr	a4
    80001150:	fe1ff06f          	j	80001130 <__call_exitprocs+0x118>
    80001154:	0089a423          	sw	s0,8(s3)
    80001158:	f9dff06f          	j	800010f4 <__call_exitprocs+0xdc>
    8000115c:	00058513          	mv	a0,a1
    80001160:	000700e7          	jalr	a4
    80001164:	fcdff06f          	j	80001130 <__call_exitprocs+0x118>

0000000080001168 <_exit>:
    80001168:	ff010113          	addi	sp,sp,-16
    8000116c:	00813023          	sd	s0,0(sp)
    80001170:	00050413          	mv	s0,a0
    80001174:	00000513          	li	a0,0
    80001178:	00113423          	sd	ra,8(sp)
    8000117c:	020000ef          	jal	ra,8000119c <close>
    80001180:	00100513          	li	a0,1
    80001184:	018000ef          	jal	ra,8000119c <close>
    80001188:	00200513          	li	a0,2
    8000118c:	010000ef          	jal	ra,8000119c <close>
    80001190:	00040513          	mv	a0,s0
    80001194:	e58ff0ef          	jal	ra,800007ec <dramfs_exit>
    80001198:	0000006f          	j	80001198 <_exit+0x30>

000000008000119c <close>:
    8000119c:	00050593          	mv	a1,a0
    800011a0:	000ff517          	auipc	a0,0xff
    800011a4:	e6853503          	ld	a0,-408(a0) # 80100008 <_impure_ptr>
    800011a8:	0040006f          	j	800011ac <_close_r>

00000000800011ac <_close_r>:
    800011ac:	ff010113          	addi	sp,sp,-16
    800011b0:	00813023          	sd	s0,0(sp)
    800011b4:	00050413          	mv	s0,a0
    800011b8:	00058513          	mv	a0,a1
    800011bc:	000ff797          	auipc	a5,0xff
    800011c0:	5a07a223          	sw	zero,1444(a5) # 80100760 <errno>
    800011c4:	00113423          	sd	ra,8(sp)
    800011c8:	6e9000ef          	jal	ra,800020b0 <_close>
    800011cc:	fff00793          	li	a5,-1
    800011d0:	00f50a63          	beq	a0,a5,800011e4 <_close_r+0x38>
    800011d4:	00813083          	ld	ra,8(sp)
    800011d8:	00013403          	ld	s0,0(sp)
    800011dc:	01010113          	addi	sp,sp,16
    800011e0:	00008067          	ret
    800011e4:	000ff797          	auipc	a5,0xff
    800011e8:	57c7a783          	lw	a5,1404(a5) # 80100760 <errno>
    800011ec:	fe0784e3          	beqz	a5,800011d4 <_close_r+0x28>
    800011f0:	00813083          	ld	ra,8(sp)
    800011f4:	00f42023          	sw	a5,0(s0)
    800011f8:	00013403          	ld	s0,0(sp)
    800011fc:	01010113          	addi	sp,sp,16
    80001200:	00008067          	ret

0000000080001204 <cleanup_glue>:
    80001204:	fe010113          	addi	sp,sp,-32
    80001208:	00813823          	sd	s0,16(sp)
    8000120c:	00058413          	mv	s0,a1
    80001210:	0005b583          	ld	a1,0(a1)
    80001214:	00913423          	sd	s1,8(sp)
    80001218:	00113c23          	sd	ra,24(sp)
    8000121c:	00050493          	mv	s1,a0
    80001220:	00058463          	beqz	a1,80001228 <cleanup_glue+0x24>
    80001224:	fe1ff0ef          	jal	ra,80001204 <cleanup_glue>
    80001228:	00040593          	mv	a1,s0
    8000122c:	01013403          	ld	s0,16(sp)
    80001230:	01813083          	ld	ra,24(sp)
    80001234:	00048513          	mv	a0,s1
    80001238:	00813483          	ld	s1,8(sp)
    8000123c:	02010113          	addi	sp,sp,32
    80001240:	2cc0006f          	j	8000150c <_free_r>

0000000080001244 <_reclaim_reent>:
    80001244:	000ff797          	auipc	a5,0xff
    80001248:	dc47b783          	ld	a5,-572(a5) # 80100008 <_impure_ptr>
    8000124c:	18a78263          	beq	a5,a0,800013d0 <_reclaim_reent+0x18c>
    80001250:	04053783          	ld	a5,64(a0)
    80001254:	fd010113          	addi	sp,sp,-48
    80001258:	00913c23          	sd	s1,24(sp)
    8000125c:	02113423          	sd	ra,40(sp)
    80001260:	02813023          	sd	s0,32(sp)
    80001264:	01213823          	sd	s2,16(sp)
    80001268:	01313423          	sd	s3,8(sp)
    8000126c:	00050493          	mv	s1,a0
    80001270:	12078c63          	beqz	a5,800013a8 <_reclaim_reent+0x164>
    80001274:	0187b583          	ld	a1,24(a5)
    80001278:	04058463          	beqz	a1,800012c0 <_reclaim_reent+0x7c>
    8000127c:	00000913          	li	s2,0
    80001280:	20000993          	li	s3,512
    80001284:	012587b3          	add	a5,a1,s2
    80001288:	0007b403          	ld	s0,0(a5)
    8000128c:	02040063          	beqz	s0,800012ac <_reclaim_reent+0x68>
    80001290:	00040593          	mv	a1,s0
    80001294:	00043403          	ld	s0,0(s0)
    80001298:	00048513          	mv	a0,s1
    8000129c:	270000ef          	jal	ra,8000150c <_free_r>
    800012a0:	fe0418e3          	bnez	s0,80001290 <_reclaim_reent+0x4c>
    800012a4:	0404b783          	ld	a5,64(s1)
    800012a8:	0187b583          	ld	a1,24(a5)
    800012ac:	00890913          	addi	s2,s2,8
    800012b0:	fd391ae3          	bne	s2,s3,80001284 <_reclaim_reent+0x40>
    800012b4:	00048513          	mv	a0,s1
    800012b8:	254000ef          	jal	ra,8000150c <_free_r>
    800012bc:	0404b783          	ld	a5,64(s1)
    800012c0:	0007b583          	ld	a1,0(a5)
    800012c4:	10058863          	beqz	a1,800013d4 <_reclaim_reent+0x190>
    800012c8:	00048513          	mv	a0,s1
    800012cc:	240000ef          	jal	ra,8000150c <_free_r>
    800012d0:	0284b583          	ld	a1,40(s1)
    800012d4:	00058663          	beqz	a1,800012e0 <_reclaim_reent+0x9c>
    800012d8:	00048513          	mv	a0,s1
    800012dc:	230000ef          	jal	ra,8000150c <_free_r>
    800012e0:	0404b783          	ld	a5,64(s1)
    800012e4:	00078863          	beqz	a5,800012f4 <_reclaim_reent+0xb0>
    800012e8:	00078593          	mv	a1,a5
    800012ec:	00048513          	mv	a0,s1
    800012f0:	21c000ef          	jal	ra,8000150c <_free_r>
    800012f4:	0604b583          	ld	a1,96(s1)
    800012f8:	00058663          	beqz	a1,80001304 <_reclaim_reent+0xc0>
    800012fc:	00048513          	mv	a0,s1
    80001300:	20c000ef          	jal	ra,8000150c <_free_r>
    80001304:	0684b583          	ld	a1,104(s1)
    80001308:	00058663          	beqz	a1,80001314 <_reclaim_reent+0xd0>
    8000130c:	00048513          	mv	a0,s1
    80001310:	1fc000ef          	jal	ra,8000150c <_free_r>
    80001314:	0704b583          	ld	a1,112(s1)
    80001318:	00058663          	beqz	a1,80001324 <_reclaim_reent+0xe0>
    8000131c:	00048513          	mv	a0,s1
    80001320:	1ec000ef          	jal	ra,8000150c <_free_r>
    80001324:	1c84b583          	ld	a1,456(s1)
    80001328:	00058663          	beqz	a1,80001334 <_reclaim_reent+0xf0>
    8000132c:	00048513          	mv	a0,s1
    80001330:	1dc000ef          	jal	ra,8000150c <_free_r>
    80001334:	1c04b583          	ld	a1,448(s1)
    80001338:	00058663          	beqz	a1,80001344 <_reclaim_reent+0x100>
    8000133c:	00048513          	mv	a0,s1
    80001340:	1cc000ef          	jal	ra,8000150c <_free_r>
    80001344:	0804b783          	ld	a5,128(s1)
    80001348:	00078a63          	beqz	a5,8000135c <_reclaim_reent+0x118>
    8000134c:	1107b583          	ld	a1,272(a5)
    80001350:	00058663          	beqz	a1,8000135c <_reclaim_reent+0x118>
    80001354:	00048513          	mv	a0,s1
    80001358:	1b4000ef          	jal	ra,8000150c <_free_r>
    8000135c:	0584b583          	ld	a1,88(s1)
    80001360:	00058663          	beqz	a1,8000136c <_reclaim_reent+0x128>
    80001364:	00048513          	mv	a0,s1
    80001368:	1a4000ef          	jal	ra,8000150c <_free_r>
    8000136c:	0304a783          	lw	a5,48(s1)
    80001370:	04078263          	beqz	a5,800013b4 <_reclaim_reent+0x170>
    80001374:	0484b783          	ld	a5,72(s1)
    80001378:	00048513          	mv	a0,s1
    8000137c:	000780e7          	jalr	a5
    80001380:	1a04b583          	ld	a1,416(s1)
    80001384:	02058863          	beqz	a1,800013b4 <_reclaim_reent+0x170>
    80001388:	02013403          	ld	s0,32(sp)
    8000138c:	02813083          	ld	ra,40(sp)
    80001390:	01013903          	ld	s2,16(sp)
    80001394:	00813983          	ld	s3,8(sp)
    80001398:	00048513          	mv	a0,s1
    8000139c:	01813483          	ld	s1,24(sp)
    800013a0:	03010113          	addi	sp,sp,48
    800013a4:	e61ff06f          	j	80001204 <cleanup_glue>
    800013a8:	02853583          	ld	a1,40(a0)
    800013ac:	f20596e3          	bnez	a1,800012d8 <_reclaim_reent+0x94>
    800013b0:	f45ff06f          	j	800012f4 <_reclaim_reent+0xb0>
    800013b4:	02813083          	ld	ra,40(sp)
    800013b8:	02013403          	ld	s0,32(sp)
    800013bc:	01813483          	ld	s1,24(sp)
    800013c0:	01013903          	ld	s2,16(sp)
    800013c4:	00813983          	ld	s3,8(sp)
    800013c8:	03010113          	addi	sp,sp,48
    800013cc:	00008067          	ret
    800013d0:	00008067          	ret
    800013d4:	0284b583          	ld	a1,40(s1)
    800013d8:	f00590e3          	bnez	a1,800012d8 <_reclaim_reent+0x94>
    800013dc:	f0dff06f          	j	800012e8 <_reclaim_reent+0xa4>

00000000800013e0 <_malloc_trim_r>:
    800013e0:	fd010113          	addi	sp,sp,-48
    800013e4:	02813023          	sd	s0,32(sp)
    800013e8:	00913c23          	sd	s1,24(sp)
    800013ec:	01213823          	sd	s2,16(sp)
    800013f0:	01313423          	sd	s3,8(sp)
    800013f4:	00058413          	mv	s0,a1
    800013f8:	02113423          	sd	ra,40(sp)
    800013fc:	00006997          	auipc	s3,0x6
    80001400:	0a498993          	addi	s3,s3,164 # 800074a0 <__malloc_av_>
    80001404:	00050913          	mv	s2,a0
    80001408:	449000ef          	jal	ra,80002050 <__malloc_lock>
    8000140c:	0109b703          	ld	a4,16(s3)
    80001410:	07f00793          	li	a5,127
    80001414:	00873483          	ld	s1,8(a4)
    80001418:	ffc4f493          	andi	s1,s1,-4
    8000141c:	40848433          	sub	s0,s1,s0
    80001420:	05f40413          	addi	s0,s0,95
    80001424:	f8047413          	andi	s0,s0,-128
    80001428:	f8040413          	addi	s0,s0,-128
    8000142c:	0087de63          	bge	a5,s0,80001448 <_malloc_trim_r+0x68>
    80001430:	00000593          	li	a1,0
    80001434:	00090513          	mv	a0,s2
    80001438:	421000ef          	jal	ra,80002058 <_sbrk_r>
    8000143c:	0109b783          	ld	a5,16(s3)
    80001440:	009787b3          	add	a5,a5,s1
    80001444:	02f50663          	beq	a0,a5,80001470 <_malloc_trim_r+0x90>
    80001448:	00090513          	mv	a0,s2
    8000144c:	409000ef          	jal	ra,80002054 <__malloc_unlock>
    80001450:	02813083          	ld	ra,40(sp)
    80001454:	02013403          	ld	s0,32(sp)
    80001458:	01813483          	ld	s1,24(sp)
    8000145c:	01013903          	ld	s2,16(sp)
    80001460:	00813983          	ld	s3,8(sp)
    80001464:	00000513          	li	a0,0
    80001468:	03010113          	addi	sp,sp,48
    8000146c:	00008067          	ret
    80001470:	408005b3          	neg	a1,s0
    80001474:	00090513          	mv	a0,s2
    80001478:	3e1000ef          	jal	ra,80002058 <_sbrk_r>
    8000147c:	fff00793          	li	a5,-1
    80001480:	04f50863          	beq	a0,a5,800014d0 <_malloc_trim_r+0xf0>
    80001484:	000ff717          	auipc	a4,0xff
    80001488:	c1470713          	addi	a4,a4,-1004 # 80100098 <__malloc_current_mallinfo>
    8000148c:	00072783          	lw	a5,0(a4)
    80001490:	0109b683          	ld	a3,16(s3)
    80001494:	408484b3          	sub	s1,s1,s0
    80001498:	0014e493          	ori	s1,s1,1
    8000149c:	4087843b          	subw	s0,a5,s0
    800014a0:	00090513          	mv	a0,s2
    800014a4:	0096b423          	sd	s1,8(a3)
    800014a8:	00872023          	sw	s0,0(a4)
    800014ac:	3a9000ef          	jal	ra,80002054 <__malloc_unlock>
    800014b0:	02813083          	ld	ra,40(sp)
    800014b4:	02013403          	ld	s0,32(sp)
    800014b8:	01813483          	ld	s1,24(sp)
    800014bc:	01013903          	ld	s2,16(sp)
    800014c0:	00813983          	ld	s3,8(sp)
    800014c4:	00100513          	li	a0,1
    800014c8:	03010113          	addi	sp,sp,48
    800014cc:	00008067          	ret
    800014d0:	00000593          	li	a1,0
    800014d4:	00090513          	mv	a0,s2
    800014d8:	381000ef          	jal	ra,80002058 <_sbrk_r>
    800014dc:	0109b703          	ld	a4,16(s3)
    800014e0:	01f00693          	li	a3,31
    800014e4:	40e507b3          	sub	a5,a0,a4
    800014e8:	f6f6d0e3          	bge	a3,a5,80001448 <_malloc_trim_r+0x68>
    800014ec:	000ff697          	auipc	a3,0xff
    800014f0:	b246b683          	ld	a3,-1244(a3) # 80100010 <__malloc_sbrk_base>
    800014f4:	40d50533          	sub	a0,a0,a3
    800014f8:	0017e793          	ori	a5,a5,1
    800014fc:	000ff697          	auipc	a3,0xff
    80001500:	b8a6ae23          	sw	a0,-1124(a3) # 80100098 <__malloc_current_mallinfo>
    80001504:	00f73423          	sd	a5,8(a4)
    80001508:	f41ff06f          	j	80001448 <_malloc_trim_r+0x68>

000000008000150c <_free_r>:
    8000150c:	12058e63          	beqz	a1,80001648 <_free_r+0x13c>
    80001510:	fe010113          	addi	sp,sp,-32
    80001514:	00813823          	sd	s0,16(sp)
    80001518:	00913423          	sd	s1,8(sp)
    8000151c:	00058413          	mv	s0,a1
    80001520:	00050493          	mv	s1,a0
    80001524:	00113c23          	sd	ra,24(sp)
    80001528:	329000ef          	jal	ra,80002050 <__malloc_lock>
    8000152c:	ff843583          	ld	a1,-8(s0)
    80001530:	ff040713          	addi	a4,s0,-16
    80001534:	00006517          	auipc	a0,0x6
    80001538:	f6c50513          	addi	a0,a0,-148 # 800074a0 <__malloc_av_>
    8000153c:	ffe5f793          	andi	a5,a1,-2
    80001540:	00f70633          	add	a2,a4,a5
    80001544:	00863683          	ld	a3,8(a2)
    80001548:	01053803          	ld	a6,16(a0)
    8000154c:	ffc6f693          	andi	a3,a3,-4
    80001550:	1cc80063          	beq	a6,a2,80001710 <_free_r+0x204>
    80001554:	00d63423          	sd	a3,8(a2)
    80001558:	0015f593          	andi	a1,a1,1
    8000155c:	00d60833          	add	a6,a2,a3
    80001560:	0a059463          	bnez	a1,80001608 <_free_r+0xfc>
    80001564:	ff043303          	ld	t1,-16(s0)
    80001568:	00883583          	ld	a1,8(a6)
    8000156c:	00006897          	auipc	a7,0x6
    80001570:	f4488893          	addi	a7,a7,-188 # 800074b0 <__malloc_av_+0x10>
    80001574:	40670733          	sub	a4,a4,t1
    80001578:	01073803          	ld	a6,16(a4)
    8000157c:	006787b3          	add	a5,a5,t1
    80001580:	0015f593          	andi	a1,a1,1
    80001584:	15180663          	beq	a6,a7,800016d0 <_free_r+0x1c4>
    80001588:	01873303          	ld	t1,24(a4)
    8000158c:	00683c23          	sd	t1,24(a6)
    80001590:	01033823          	sd	a6,16(t1)
    80001594:	1e058c63          	beqz	a1,8000178c <_free_r+0x280>
    80001598:	0017e693          	ori	a3,a5,1
    8000159c:	00d73423          	sd	a3,8(a4)
    800015a0:	00f63023          	sd	a5,0(a2)
    800015a4:	1ff00693          	li	a3,511
    800015a8:	0af6ec63          	bltu	a3,a5,80001660 <_free_r+0x154>
    800015ac:	0037d793          	srli	a5,a5,0x3
    800015b0:	0017869b          	addiw	a3,a5,1
    800015b4:	0016969b          	slliw	a3,a3,0x1
    800015b8:	00369693          	slli	a3,a3,0x3
    800015bc:	00853803          	ld	a6,8(a0)
    800015c0:	00d506b3          	add	a3,a0,a3
    800015c4:	0006b583          	ld	a1,0(a3)
    800015c8:	4027d61b          	sraiw	a2,a5,0x2
    800015cc:	00100793          	li	a5,1
    800015d0:	00c797b3          	sll	a5,a5,a2
    800015d4:	0107e7b3          	or	a5,a5,a6
    800015d8:	ff068613          	addi	a2,a3,-16
    800015dc:	00c73c23          	sd	a2,24(a4)
    800015e0:	00b73823          	sd	a1,16(a4)
    800015e4:	00f53423          	sd	a5,8(a0)
    800015e8:	00e6b023          	sd	a4,0(a3)
    800015ec:	00e5bc23          	sd	a4,24(a1)
    800015f0:	01013403          	ld	s0,16(sp)
    800015f4:	01813083          	ld	ra,24(sp)
    800015f8:	00048513          	mv	a0,s1
    800015fc:	00813483          	ld	s1,8(sp)
    80001600:	02010113          	addi	sp,sp,32
    80001604:	2510006f          	j	80002054 <__malloc_unlock>
    80001608:	00883583          	ld	a1,8(a6)
    8000160c:	0015f593          	andi	a1,a1,1
    80001610:	02059e63          	bnez	a1,8000164c <_free_r+0x140>
    80001614:	00d787b3          	add	a5,a5,a3
    80001618:	00006897          	auipc	a7,0x6
    8000161c:	e9888893          	addi	a7,a7,-360 # 800074b0 <__malloc_av_+0x10>
    80001620:	01063683          	ld	a3,16(a2)
    80001624:	0017e813          	ori	a6,a5,1
    80001628:	00f705b3          	add	a1,a4,a5
    8000162c:	17168e63          	beq	a3,a7,800017a8 <_free_r+0x29c>
    80001630:	01863603          	ld	a2,24(a2)
    80001634:	00c6bc23          	sd	a2,24(a3)
    80001638:	00d63823          	sd	a3,16(a2)
    8000163c:	01073423          	sd	a6,8(a4)
    80001640:	00f5b023          	sd	a5,0(a1)
    80001644:	f61ff06f          	j	800015a4 <_free_r+0x98>
    80001648:	00008067          	ret
    8000164c:	0017e693          	ori	a3,a5,1
    80001650:	fed43c23          	sd	a3,-8(s0)
    80001654:	00f63023          	sd	a5,0(a2)
    80001658:	1ff00693          	li	a3,511
    8000165c:	f4f6f8e3          	bgeu	a3,a5,800015ac <_free_r+0xa0>
    80001660:	0097d693          	srli	a3,a5,0x9
    80001664:	00400613          	li	a2,4
    80001668:	0ed66e63          	bltu	a2,a3,80001764 <_free_r+0x258>
    8000166c:	0067d693          	srli	a3,a5,0x6
    80001670:	0396859b          	addiw	a1,a3,57
    80001674:	0015959b          	slliw	a1,a1,0x1
    80001678:	0386861b          	addiw	a2,a3,56
    8000167c:	00359593          	slli	a1,a1,0x3
    80001680:	00b505b3          	add	a1,a0,a1
    80001684:	0005b683          	ld	a3,0(a1)
    80001688:	ff058593          	addi	a1,a1,-16
    8000168c:	12d58c63          	beq	a1,a3,800017c4 <_free_r+0x2b8>
    80001690:	0086b603          	ld	a2,8(a3)
    80001694:	ffc67613          	andi	a2,a2,-4
    80001698:	00c7f663          	bgeu	a5,a2,800016a4 <_free_r+0x198>
    8000169c:	0106b683          	ld	a3,16(a3)
    800016a0:	fed598e3          	bne	a1,a3,80001690 <_free_r+0x184>
    800016a4:	0186b583          	ld	a1,24(a3)
    800016a8:	00b73c23          	sd	a1,24(a4)
    800016ac:	00d73823          	sd	a3,16(a4)
    800016b0:	01013403          	ld	s0,16(sp)
    800016b4:	01813083          	ld	ra,24(sp)
    800016b8:	00e5b823          	sd	a4,16(a1)
    800016bc:	00048513          	mv	a0,s1
    800016c0:	00813483          	ld	s1,8(sp)
    800016c4:	00e6bc23          	sd	a4,24(a3)
    800016c8:	02010113          	addi	sp,sp,32
    800016cc:	1890006f          	j	80002054 <__malloc_unlock>
    800016d0:	14059e63          	bnez	a1,8000182c <_free_r+0x320>
    800016d4:	01863583          	ld	a1,24(a2)
    800016d8:	01063603          	ld	a2,16(a2)
    800016dc:	00f687b3          	add	a5,a3,a5
    800016e0:	01013403          	ld	s0,16(sp)
    800016e4:	00b63c23          	sd	a1,24(a2)
    800016e8:	00c5b823          	sd	a2,16(a1)
    800016ec:	0017e693          	ori	a3,a5,1
    800016f0:	01813083          	ld	ra,24(sp)
    800016f4:	00d73423          	sd	a3,8(a4)
    800016f8:	00048513          	mv	a0,s1
    800016fc:	00f70733          	add	a4,a4,a5
    80001700:	00813483          	ld	s1,8(sp)
    80001704:	00f73023          	sd	a5,0(a4)
    80001708:	02010113          	addi	sp,sp,32
    8000170c:	1490006f          	j	80002054 <__malloc_unlock>
    80001710:	0015f593          	andi	a1,a1,1
    80001714:	00d787b3          	add	a5,a5,a3
    80001718:	02059063          	bnez	a1,80001738 <_free_r+0x22c>
    8000171c:	ff043583          	ld	a1,-16(s0)
    80001720:	40b70733          	sub	a4,a4,a1
    80001724:	01873683          	ld	a3,24(a4)
    80001728:	01073603          	ld	a2,16(a4)
    8000172c:	00b787b3          	add	a5,a5,a1
    80001730:	00d63c23          	sd	a3,24(a2)
    80001734:	00c6b823          	sd	a2,16(a3)
    80001738:	0017e693          	ori	a3,a5,1
    8000173c:	00d73423          	sd	a3,8(a4)
    80001740:	00e53823          	sd	a4,16(a0)
    80001744:	000ff717          	auipc	a4,0xff
    80001748:	8d473703          	ld	a4,-1836(a4) # 80100018 <__malloc_trim_threshold>
    8000174c:	eae7e2e3          	bltu	a5,a4,800015f0 <_free_r+0xe4>
    80001750:	000ff597          	auipc	a1,0xff
    80001754:	9085b583          	ld	a1,-1784(a1) # 80100058 <__malloc_top_pad>
    80001758:	00048513          	mv	a0,s1
    8000175c:	c85ff0ef          	jal	ra,800013e0 <_malloc_trim_r>
    80001760:	e91ff06f          	j	800015f0 <_free_r+0xe4>
    80001764:	01400613          	li	a2,20
    80001768:	02d67663          	bgeu	a2,a3,80001794 <_free_r+0x288>
    8000176c:	05400613          	li	a2,84
    80001770:	06d66863          	bltu	a2,a3,800017e0 <_free_r+0x2d4>
    80001774:	00c7d693          	srli	a3,a5,0xc
    80001778:	06f6859b          	addiw	a1,a3,111
    8000177c:	0015959b          	slliw	a1,a1,0x1
    80001780:	06e6861b          	addiw	a2,a3,110
    80001784:	00359593          	slli	a1,a1,0x3
    80001788:	ef9ff06f          	j	80001680 <_free_r+0x174>
    8000178c:	00d787b3          	add	a5,a5,a3
    80001790:	e91ff06f          	j	80001620 <_free_r+0x114>
    80001794:	05c6859b          	addiw	a1,a3,92
    80001798:	0015959b          	slliw	a1,a1,0x1
    8000179c:	05b6861b          	addiw	a2,a3,91
    800017a0:	00359593          	slli	a1,a1,0x3
    800017a4:	eddff06f          	j	80001680 <_free_r+0x174>
    800017a8:	02e53423          	sd	a4,40(a0)
    800017ac:	02e53023          	sd	a4,32(a0)
    800017b0:	01173c23          	sd	a7,24(a4)
    800017b4:	01173823          	sd	a7,16(a4)
    800017b8:	01073423          	sd	a6,8(a4)
    800017bc:	00f5b023          	sd	a5,0(a1)
    800017c0:	e31ff06f          	j	800015f0 <_free_r+0xe4>
    800017c4:	00853803          	ld	a6,8(a0)
    800017c8:	4026561b          	sraiw	a2,a2,0x2
    800017cc:	00100793          	li	a5,1
    800017d0:	00c79633          	sll	a2,a5,a2
    800017d4:	01066633          	or	a2,a2,a6
    800017d8:	00c53423          	sd	a2,8(a0)
    800017dc:	ecdff06f          	j	800016a8 <_free_r+0x19c>
    800017e0:	15400613          	li	a2,340
    800017e4:	00d66e63          	bltu	a2,a3,80001800 <_free_r+0x2f4>
    800017e8:	00f7d693          	srli	a3,a5,0xf
    800017ec:	0786859b          	addiw	a1,a3,120
    800017f0:	0015959b          	slliw	a1,a1,0x1
    800017f4:	0776861b          	addiw	a2,a3,119
    800017f8:	00359593          	slli	a1,a1,0x3
    800017fc:	e85ff06f          	j	80001680 <_free_r+0x174>
    80001800:	55400613          	li	a2,1364
    80001804:	00d66e63          	bltu	a2,a3,80001820 <_free_r+0x314>
    80001808:	0127d693          	srli	a3,a5,0x12
    8000180c:	07d6859b          	addiw	a1,a3,125
    80001810:	0015959b          	slliw	a1,a1,0x1
    80001814:	07c6861b          	addiw	a2,a3,124
    80001818:	00359593          	slli	a1,a1,0x3
    8000181c:	e65ff06f          	j	80001680 <_free_r+0x174>
    80001820:	7f000593          	li	a1,2032
    80001824:	07e00613          	li	a2,126
    80001828:	e59ff06f          	j	80001680 <_free_r+0x174>
    8000182c:	0017e693          	ori	a3,a5,1
    80001830:	00d73423          	sd	a3,8(a4)
    80001834:	00f63023          	sd	a5,0(a2)
    80001838:	db9ff06f          	j	800015f0 <_free_r+0xe4>

000000008000183c <_malloc_r>:
    8000183c:	fa010113          	addi	sp,sp,-96
    80001840:	04913423          	sd	s1,72(sp)
    80001844:	05213023          	sd	s2,64(sp)
    80001848:	04113c23          	sd	ra,88(sp)
    8000184c:	04813823          	sd	s0,80(sp)
    80001850:	03313c23          	sd	s3,56(sp)
    80001854:	03413823          	sd	s4,48(sp)
    80001858:	03513423          	sd	s5,40(sp)
    8000185c:	03613023          	sd	s6,32(sp)
    80001860:	01713c23          	sd	s7,24(sp)
    80001864:	01813823          	sd	s8,16(sp)
    80001868:	01913423          	sd	s9,8(sp)
    8000186c:	01758493          	addi	s1,a1,23
    80001870:	02e00793          	li	a5,46
    80001874:	00050913          	mv	s2,a0
    80001878:	0697e663          	bltu	a5,s1,800018e4 <_malloc_r+0xa8>
    8000187c:	02000793          	li	a5,32
    80001880:	26b7e663          	bltu	a5,a1,80001aec <_malloc_r+0x2b0>
    80001884:	7cc000ef          	jal	ra,80002050 <__malloc_lock>
    80001888:	02000493          	li	s1,32
    8000188c:	00400613          	li	a2,4
    80001890:	05000793          	li	a5,80
    80001894:	00006997          	auipc	s3,0x6
    80001898:	c0c98993          	addi	s3,s3,-1012 # 800074a0 <__malloc_av_>
    8000189c:	00f987b3          	add	a5,s3,a5
    800018a0:	0087b403          	ld	s0,8(a5)
    800018a4:	ff078713          	addi	a4,a5,-16
    800018a8:	28e40263          	beq	s0,a4,80001b2c <_malloc_r+0x2f0>
    800018ac:	00843783          	ld	a5,8(s0)
    800018b0:	01843683          	ld	a3,24(s0)
    800018b4:	01043603          	ld	a2,16(s0)
    800018b8:	ffc7f793          	andi	a5,a5,-4
    800018bc:	00f407b3          	add	a5,s0,a5
    800018c0:	0087b703          	ld	a4,8(a5)
    800018c4:	00d63c23          	sd	a3,24(a2)
    800018c8:	00c6b823          	sd	a2,16(a3)
    800018cc:	00176713          	ori	a4,a4,1
    800018d0:	00090513          	mv	a0,s2
    800018d4:	00e7b423          	sd	a4,8(a5)
    800018d8:	77c000ef          	jal	ra,80002054 <__malloc_unlock>
    800018dc:	01040513          	addi	a0,s0,16
    800018e0:	2180006f          	j	80001af8 <_malloc_r+0x2bc>
    800018e4:	800007b7          	lui	a5,0x80000
    800018e8:	ff04f493          	andi	s1,s1,-16
    800018ec:	fff7c793          	not	a5,a5
    800018f0:	1e97ee63          	bltu	a5,s1,80001aec <_malloc_r+0x2b0>
    800018f4:	1eb4ec63          	bltu	s1,a1,80001aec <_malloc_r+0x2b0>
    800018f8:	758000ef          	jal	ra,80002050 <__malloc_lock>
    800018fc:	1f700793          	li	a5,503
    80001900:	4e97f663          	bgeu	a5,s1,80001dec <_malloc_r+0x5b0>
    80001904:	0094d793          	srli	a5,s1,0x9
    80001908:	34078c63          	beqz	a5,80001c60 <_malloc_r+0x424>
    8000190c:	00400713          	li	a4,4
    80001910:	40f76c63          	bltu	a4,a5,80001d28 <_malloc_r+0x4ec>
    80001914:	0064d793          	srli	a5,s1,0x6
    80001918:	0397861b          	addiw	a2,a5,57
    8000191c:	0016169b          	slliw	a3,a2,0x1
    80001920:	0387851b          	addiw	a0,a5,56
    80001924:	00369693          	slli	a3,a3,0x3
    80001928:	00006997          	auipc	s3,0x6
    8000192c:	b7898993          	addi	s3,s3,-1160 # 800074a0 <__malloc_av_>
    80001930:	00d986b3          	add	a3,s3,a3
    80001934:	0086b403          	ld	s0,8(a3)
    80001938:	ff068693          	addi	a3,a3,-16
    8000193c:	1e868e63          	beq	a3,s0,80001b38 <_malloc_r+0x2fc>
    80001940:	01f00593          	li	a1,31
    80001944:	0100006f          	j	80001954 <_malloc_r+0x118>
    80001948:	36075863          	bgez	a4,80001cb8 <_malloc_r+0x47c>
    8000194c:	01843403          	ld	s0,24(s0)
    80001950:	1e868463          	beq	a3,s0,80001b38 <_malloc_r+0x2fc>
    80001954:	00843783          	ld	a5,8(s0)
    80001958:	ffc7f793          	andi	a5,a5,-4
    8000195c:	40978733          	sub	a4,a5,s1
    80001960:	fee5d4e3          	bge	a1,a4,80001948 <_malloc_r+0x10c>
    80001964:	0209b403          	ld	s0,32(s3)
    80001968:	00006897          	auipc	a7,0x6
    8000196c:	b4888893          	addi	a7,a7,-1208 # 800074b0 <__malloc_av_+0x10>
    80001970:	00050613          	mv	a2,a0
    80001974:	1d141a63          	bne	s0,a7,80001b48 <_malloc_r+0x30c>
    80001978:	0089b783          	ld	a5,8(s3)
    8000197c:	4026571b          	sraiw	a4,a2,0x2
    80001980:	00100593          	li	a1,1
    80001984:	00e595b3          	sll	a1,a1,a4
    80001988:	22b7fe63          	bgeu	a5,a1,80001bc4 <_malloc_r+0x388>
    8000198c:	0109b403          	ld	s0,16(s3)
    80001990:	00843a03          	ld	s4,8(s0)
    80001994:	ffca7b13          	andi	s6,s4,-4
    80001998:	009b6863          	bltu	s6,s1,800019a8 <_malloc_r+0x16c>
    8000199c:	409b07b3          	sub	a5,s6,s1
    800019a0:	01f00713          	li	a4,31
    800019a4:	2ef74663          	blt	a4,a5,80001c90 <_malloc_r+0x454>
    800019a8:	000fec97          	auipc	s9,0xfe
    800019ac:	668c8c93          	addi	s9,s9,1640 # 80100010 <__malloc_sbrk_base>
    800019b0:	000fe797          	auipc	a5,0xfe
    800019b4:	6a87b783          	ld	a5,1704(a5) # 80100058 <__malloc_top_pad>
    800019b8:	000cb683          	ld	a3,0(s9)
    800019bc:	00f487b3          	add	a5,s1,a5
    800019c0:	09f78a13          	addi	s4,a5,159
    800019c4:	fff00713          	li	a4,-1
    800019c8:	01640bb3          	add	s7,s0,s6
    800019cc:	f80a7a13          	andi	s4,s4,-128
    800019d0:	4ee68263          	beq	a3,a4,80001eb4 <_malloc_r+0x678>
    800019d4:	000a0593          	mv	a1,s4
    800019d8:	00090513          	mv	a0,s2
    800019dc:	67c000ef          	jal	ra,80002058 <_sbrk_r>
    800019e0:	fff00793          	li	a5,-1
    800019e4:	00050a93          	mv	s5,a0
    800019e8:	42f50c63          	beq	a0,a5,80001e20 <_malloc_r+0x5e4>
    800019ec:	43756863          	bltu	a0,s7,80001e1c <_malloc_r+0x5e0>
    800019f0:	000fec17          	auipc	s8,0xfe
    800019f4:	6a8c0c13          	addi	s8,s8,1704 # 80100098 <__malloc_current_mallinfo>
    800019f8:	000c2703          	lw	a4,0(s8)
    800019fc:	014707bb          	addw	a5,a4,s4
    80001a00:	00fc2023          	sw	a5,0(s8)
    80001a04:	00078693          	mv	a3,a5
    80001a08:	54ab8e63          	beq	s7,a0,80001f64 <_malloc_r+0x728>
    80001a0c:	000cb703          	ld	a4,0(s9)
    80001a10:	fff00793          	li	a5,-1
    80001a14:	56f70663          	beq	a4,a5,80001f80 <_malloc_r+0x744>
    80001a18:	417a87b3          	sub	a5,s5,s7
    80001a1c:	00d787bb          	addw	a5,a5,a3
    80001a20:	00fc2023          	sw	a5,0(s8)
    80001a24:	00fafb93          	andi	s7,s5,15
    80001a28:	4a0b8863          	beqz	s7,80001ed8 <_malloc_r+0x69c>
    80001a2c:	417a8ab3          	sub	s5,s5,s7
    80001a30:	010a8a93          	addi	s5,s5,16
    80001a34:	09000793          	li	a5,144
    80001a38:	417787b3          	sub	a5,a5,s7
    80001a3c:	014a8cb3          	add	s9,s5,s4
    80001a40:	41978a33          	sub	s4,a5,s9
    80001a44:	07fa7a13          	andi	s4,s4,127
    80001a48:	000a0593          	mv	a1,s4
    80001a4c:	00090513          	mv	a0,s2
    80001a50:	608000ef          	jal	ra,80002058 <_sbrk_r>
    80001a54:	fff00793          	li	a5,-1
    80001a58:	58f50263          	beq	a0,a5,80001fdc <_malloc_r+0x7a0>
    80001a5c:	41550533          	sub	a0,a0,s5
    80001a60:	000a071b          	sext.w	a4,s4
    80001a64:	01450a33          	add	s4,a0,s4
    80001a68:	000c2783          	lw	a5,0(s8)
    80001a6c:	0159b823          	sd	s5,16(s3)
    80001a70:	001a6a13          	ori	s4,s4,1
    80001a74:	00e787bb          	addw	a5,a5,a4
    80001a78:	00fc2023          	sw	a5,0(s8)
    80001a7c:	014ab423          	sd	s4,8(s5)
    80001a80:	51340463          	beq	s0,s3,80001f88 <_malloc_r+0x74c>
    80001a84:	01f00613          	li	a2,31
    80001a88:	51667463          	bgeu	a2,s6,80001f90 <_malloc_r+0x754>
    80001a8c:	00843683          	ld	a3,8(s0)
    80001a90:	fe8b0713          	addi	a4,s6,-24
    80001a94:	ff077713          	andi	a4,a4,-16
    80001a98:	0016f693          	andi	a3,a3,1
    80001a9c:	00e6e6b3          	or	a3,a3,a4
    80001aa0:	00d43423          	sd	a3,8(s0)
    80001aa4:	00900593          	li	a1,9
    80001aa8:	00e406b3          	add	a3,s0,a4
    80001aac:	00b6b423          	sd	a1,8(a3)
    80001ab0:	00b6b823          	sd	a1,16(a3)
    80001ab4:	52e66e63          	bltu	a2,a4,80001ff0 <_malloc_r+0x7b4>
    80001ab8:	008aba03          	ld	s4,8(s5)
    80001abc:	000a8413          	mv	s0,s5
    80001ac0:	000fe717          	auipc	a4,0xfe
    80001ac4:	59070713          	addi	a4,a4,1424 # 80100050 <__malloc_max_sbrked_mem>
    80001ac8:	00073683          	ld	a3,0(a4)
    80001acc:	00f6f463          	bgeu	a3,a5,80001ad4 <_malloc_r+0x298>
    80001ad0:	00f73023          	sd	a5,0(a4)
    80001ad4:	000fe717          	auipc	a4,0xfe
    80001ad8:	57470713          	addi	a4,a4,1396 # 80100048 <__malloc_max_total_mem>
    80001adc:	00073683          	ld	a3,0(a4)
    80001ae0:	34f6f463          	bgeu	a3,a5,80001e28 <_malloc_r+0x5ec>
    80001ae4:	00f73023          	sd	a5,0(a4)
    80001ae8:	3400006f          	j	80001e28 <_malloc_r+0x5ec>
    80001aec:	00c00793          	li	a5,12
    80001af0:	00f92023          	sw	a5,0(s2)
    80001af4:	00000513          	li	a0,0
    80001af8:	05813083          	ld	ra,88(sp)
    80001afc:	05013403          	ld	s0,80(sp)
    80001b00:	04813483          	ld	s1,72(sp)
    80001b04:	04013903          	ld	s2,64(sp)
    80001b08:	03813983          	ld	s3,56(sp)
    80001b0c:	03013a03          	ld	s4,48(sp)
    80001b10:	02813a83          	ld	s5,40(sp)
    80001b14:	02013b03          	ld	s6,32(sp)
    80001b18:	01813b83          	ld	s7,24(sp)
    80001b1c:	01013c03          	ld	s8,16(sp)
    80001b20:	00813c83          	ld	s9,8(sp)
    80001b24:	06010113          	addi	sp,sp,96
    80001b28:	00008067          	ret
    80001b2c:	0187b403          	ld	s0,24(a5)
    80001b30:	0026061b          	addiw	a2,a2,2
    80001b34:	d6879ce3          	bne	a5,s0,800018ac <_malloc_r+0x70>
    80001b38:	0209b403          	ld	s0,32(s3)
    80001b3c:	00006897          	auipc	a7,0x6
    80001b40:	97488893          	addi	a7,a7,-1676 # 800074b0 <__malloc_av_+0x10>
    80001b44:	e3140ae3          	beq	s0,a7,80001978 <_malloc_r+0x13c>
    80001b48:	00843783          	ld	a5,8(s0)
    80001b4c:	01f00693          	li	a3,31
    80001b50:	ffc7f793          	andi	a5,a5,-4
    80001b54:	40978733          	sub	a4,a5,s1
    80001b58:	24e6cc63          	blt	a3,a4,80001db0 <_malloc_r+0x574>
    80001b5c:	0319b423          	sd	a7,40(s3)
    80001b60:	0319b023          	sd	a7,32(s3)
    80001b64:	10075663          	bgez	a4,80001c70 <_malloc_r+0x434>
    80001b68:	1ff00713          	li	a4,511
    80001b6c:	14f76c63          	bltu	a4,a5,80001cc4 <_malloc_r+0x488>
    80001b70:	0037d793          	srli	a5,a5,0x3
    80001b74:	0017871b          	addiw	a4,a5,1
    80001b78:	0017171b          	slliw	a4,a4,0x1
    80001b7c:	00371713          	slli	a4,a4,0x3
    80001b80:	0089b503          	ld	a0,8(s3)
    80001b84:	00e98733          	add	a4,s3,a4
    80001b88:	00073583          	ld	a1,0(a4)
    80001b8c:	4027d69b          	sraiw	a3,a5,0x2
    80001b90:	00100793          	li	a5,1
    80001b94:	00d797b3          	sll	a5,a5,a3
    80001b98:	00a7e7b3          	or	a5,a5,a0
    80001b9c:	ff070693          	addi	a3,a4,-16
    80001ba0:	00d43c23          	sd	a3,24(s0)
    80001ba4:	00b43823          	sd	a1,16(s0)
    80001ba8:	00f9b423          	sd	a5,8(s3)
    80001bac:	00873023          	sd	s0,0(a4)
    80001bb0:	0085bc23          	sd	s0,24(a1)
    80001bb4:	4026571b          	sraiw	a4,a2,0x2
    80001bb8:	00100593          	li	a1,1
    80001bbc:	00e595b3          	sll	a1,a1,a4
    80001bc0:	dcb7e6e3          	bltu	a5,a1,8000198c <_malloc_r+0x150>
    80001bc4:	00f5f733          	and	a4,a1,a5
    80001bc8:	02071463          	bnez	a4,80001bf0 <_malloc_r+0x3b4>
    80001bcc:	00159593          	slli	a1,a1,0x1
    80001bd0:	ffc67613          	andi	a2,a2,-4
    80001bd4:	00f5f733          	and	a4,a1,a5
    80001bd8:	0046061b          	addiw	a2,a2,4
    80001bdc:	00071a63          	bnez	a4,80001bf0 <_malloc_r+0x3b4>
    80001be0:	00159593          	slli	a1,a1,0x1
    80001be4:	00f5f733          	and	a4,a1,a5
    80001be8:	0046061b          	addiw	a2,a2,4
    80001bec:	fe070ae3          	beqz	a4,80001be0 <_malloc_r+0x3a4>
    80001bf0:	01f00813          	li	a6,31
    80001bf4:	0016031b          	addiw	t1,a2,1
    80001bf8:	0013131b          	slliw	t1,t1,0x1
    80001bfc:	00331313          	slli	t1,t1,0x3
    80001c00:	ff030313          	addi	t1,t1,-16
    80001c04:	00698333          	add	t1,s3,t1
    80001c08:	00030513          	mv	a0,t1
    80001c0c:	01853783          	ld	a5,24(a0)
    80001c10:	00060e13          	mv	t3,a2
    80001c14:	12f50e63          	beq	a0,a5,80001d50 <_malloc_r+0x514>
    80001c18:	0087b703          	ld	a4,8(a5)
    80001c1c:	00078413          	mv	s0,a5
    80001c20:	0187b783          	ld	a5,24(a5)
    80001c24:	ffc77713          	andi	a4,a4,-4
    80001c28:	409706b3          	sub	a3,a4,s1
    80001c2c:	12d84e63          	blt	a6,a3,80001d68 <_malloc_r+0x52c>
    80001c30:	fe06c2e3          	bltz	a3,80001c14 <_malloc_r+0x3d8>
    80001c34:	00e40733          	add	a4,s0,a4
    80001c38:	00873683          	ld	a3,8(a4)
    80001c3c:	01043603          	ld	a2,16(s0)
    80001c40:	00090513          	mv	a0,s2
    80001c44:	0016e693          	ori	a3,a3,1
    80001c48:	00d73423          	sd	a3,8(a4)
    80001c4c:	00f63c23          	sd	a5,24(a2)
    80001c50:	00c7b823          	sd	a2,16(a5)
    80001c54:	400000ef          	jal	ra,80002054 <__malloc_unlock>
    80001c58:	01040513          	addi	a0,s0,16
    80001c5c:	e9dff06f          	j	80001af8 <_malloc_r+0x2bc>
    80001c60:	40000693          	li	a3,1024
    80001c64:	04000613          	li	a2,64
    80001c68:	03f00513          	li	a0,63
    80001c6c:	cbdff06f          	j	80001928 <_malloc_r+0xec>
    80001c70:	00f407b3          	add	a5,s0,a5
    80001c74:	0087b703          	ld	a4,8(a5)
    80001c78:	00090513          	mv	a0,s2
    80001c7c:	00176713          	ori	a4,a4,1
    80001c80:	00e7b423          	sd	a4,8(a5)
    80001c84:	3d0000ef          	jal	ra,80002054 <__malloc_unlock>
    80001c88:	01040513          	addi	a0,s0,16
    80001c8c:	e6dff06f          	j	80001af8 <_malloc_r+0x2bc>
    80001c90:	0014e713          	ori	a4,s1,1
    80001c94:	00e43423          	sd	a4,8(s0)
    80001c98:	009404b3          	add	s1,s0,s1
    80001c9c:	0099b823          	sd	s1,16(s3)
    80001ca0:	0017e793          	ori	a5,a5,1
    80001ca4:	00090513          	mv	a0,s2
    80001ca8:	00f4b423          	sd	a5,8(s1)
    80001cac:	3a8000ef          	jal	ra,80002054 <__malloc_unlock>
    80001cb0:	01040513          	addi	a0,s0,16
    80001cb4:	e45ff06f          	j	80001af8 <_malloc_r+0x2bc>
    80001cb8:	01843683          	ld	a3,24(s0)
    80001cbc:	01043603          	ld	a2,16(s0)
    80001cc0:	bfdff06f          	j	800018bc <_malloc_r+0x80>
    80001cc4:	0097d713          	srli	a4,a5,0x9
    80001cc8:	00400693          	li	a3,4
    80001ccc:	12e6fc63          	bgeu	a3,a4,80001e04 <_malloc_r+0x5c8>
    80001cd0:	01400693          	li	a3,20
    80001cd4:	22e6ec63          	bltu	a3,a4,80001f0c <_malloc_r+0x6d0>
    80001cd8:	05c7059b          	addiw	a1,a4,92
    80001cdc:	0015959b          	slliw	a1,a1,0x1
    80001ce0:	05b7069b          	addiw	a3,a4,91
    80001ce4:	00359593          	slli	a1,a1,0x3
    80001ce8:	00b985b3          	add	a1,s3,a1
    80001cec:	0005b703          	ld	a4,0(a1)
    80001cf0:	ff058593          	addi	a1,a1,-16
    80001cf4:	1ce58463          	beq	a1,a4,80001ebc <_malloc_r+0x680>
    80001cf8:	00873683          	ld	a3,8(a4)
    80001cfc:	ffc6f693          	andi	a3,a3,-4
    80001d00:	00d7f663          	bgeu	a5,a3,80001d0c <_malloc_r+0x4d0>
    80001d04:	01073703          	ld	a4,16(a4)
    80001d08:	fee598e3          	bne	a1,a4,80001cf8 <_malloc_r+0x4bc>
    80001d0c:	01873583          	ld	a1,24(a4)
    80001d10:	0089b783          	ld	a5,8(s3)
    80001d14:	00b43c23          	sd	a1,24(s0)
    80001d18:	00e43823          	sd	a4,16(s0)
    80001d1c:	0085b823          	sd	s0,16(a1)
    80001d20:	00873c23          	sd	s0,24(a4)
    80001d24:	e91ff06f          	j	80001bb4 <_malloc_r+0x378>
    80001d28:	01400713          	li	a4,20
    80001d2c:	12f77063          	bgeu	a4,a5,80001e4c <_malloc_r+0x610>
    80001d30:	05400713          	li	a4,84
    80001d34:	1ef76c63          	bltu	a4,a5,80001f2c <_malloc_r+0x6f0>
    80001d38:	00c4d793          	srli	a5,s1,0xc
    80001d3c:	06f7861b          	addiw	a2,a5,111
    80001d40:	0016169b          	slliw	a3,a2,0x1
    80001d44:	06e7851b          	addiw	a0,a5,110
    80001d48:	00369693          	slli	a3,a3,0x3
    80001d4c:	bddff06f          	j	80001928 <_malloc_r+0xec>
    80001d50:	001e0e1b          	addiw	t3,t3,1
    80001d54:	003e7793          	andi	a5,t3,3
    80001d58:	01050513          	addi	a0,a0,16
    80001d5c:	10078863          	beqz	a5,80001e6c <_malloc_r+0x630>
    80001d60:	01853783          	ld	a5,24(a0)
    80001d64:	eb1ff06f          	j	80001c14 <_malloc_r+0x3d8>
    80001d68:	01043603          	ld	a2,16(s0)
    80001d6c:	0014e593          	ori	a1,s1,1
    80001d70:	00b43423          	sd	a1,8(s0)
    80001d74:	00f63c23          	sd	a5,24(a2)
    80001d78:	00c7b823          	sd	a2,16(a5)
    80001d7c:	009404b3          	add	s1,s0,s1
    80001d80:	0299b423          	sd	s1,40(s3)
    80001d84:	0299b023          	sd	s1,32(s3)
    80001d88:	0016e793          	ori	a5,a3,1
    80001d8c:	0114bc23          	sd	a7,24(s1)
    80001d90:	0114b823          	sd	a7,16(s1)
    80001d94:	00f4b423          	sd	a5,8(s1)
    80001d98:	00e40733          	add	a4,s0,a4
    80001d9c:	00090513          	mv	a0,s2
    80001da0:	00d73023          	sd	a3,0(a4)
    80001da4:	2b0000ef          	jal	ra,80002054 <__malloc_unlock>
    80001da8:	01040513          	addi	a0,s0,16
    80001dac:	d4dff06f          	j	80001af8 <_malloc_r+0x2bc>
    80001db0:	0014e693          	ori	a3,s1,1
    80001db4:	00d43423          	sd	a3,8(s0)
    80001db8:	009404b3          	add	s1,s0,s1
    80001dbc:	0299b423          	sd	s1,40(s3)
    80001dc0:	0299b023          	sd	s1,32(s3)
    80001dc4:	00176693          	ori	a3,a4,1
    80001dc8:	0114bc23          	sd	a7,24(s1)
    80001dcc:	0114b823          	sd	a7,16(s1)
    80001dd0:	00d4b423          	sd	a3,8(s1)
    80001dd4:	00f407b3          	add	a5,s0,a5
    80001dd8:	00090513          	mv	a0,s2
    80001ddc:	00e7b023          	sd	a4,0(a5)
    80001de0:	274000ef          	jal	ra,80002054 <__malloc_unlock>
    80001de4:	01040513          	addi	a0,s0,16
    80001de8:	d11ff06f          	j	80001af8 <_malloc_r+0x2bc>
    80001dec:	0034d613          	srli	a2,s1,0x3
    80001df0:	0016079b          	addiw	a5,a2,1
    80001df4:	0017979b          	slliw	a5,a5,0x1
    80001df8:	0006061b          	sext.w	a2,a2
    80001dfc:	00379793          	slli	a5,a5,0x3
    80001e00:	a95ff06f          	j	80001894 <_malloc_r+0x58>
    80001e04:	0067d713          	srli	a4,a5,0x6
    80001e08:	0397059b          	addiw	a1,a4,57
    80001e0c:	0015959b          	slliw	a1,a1,0x1
    80001e10:	0387069b          	addiw	a3,a4,56
    80001e14:	00359593          	slli	a1,a1,0x3
    80001e18:	ed1ff06f          	j	80001ce8 <_malloc_r+0x4ac>
    80001e1c:	13340863          	beq	s0,s3,80001f4c <_malloc_r+0x710>
    80001e20:	0109b403          	ld	s0,16(s3)
    80001e24:	00843a03          	ld	s4,8(s0)
    80001e28:	ffca7a13          	andi	s4,s4,-4
    80001e2c:	409a07b3          	sub	a5,s4,s1
    80001e30:	009a6663          	bltu	s4,s1,80001e3c <_malloc_r+0x600>
    80001e34:	01f00713          	li	a4,31
    80001e38:	e4f74ce3          	blt	a4,a5,80001c90 <_malloc_r+0x454>
    80001e3c:	00090513          	mv	a0,s2
    80001e40:	214000ef          	jal	ra,80002054 <__malloc_unlock>
    80001e44:	00000513          	li	a0,0
    80001e48:	cb1ff06f          	j	80001af8 <_malloc_r+0x2bc>
    80001e4c:	05c7861b          	addiw	a2,a5,92
    80001e50:	0016169b          	slliw	a3,a2,0x1
    80001e54:	05b7851b          	addiw	a0,a5,91
    80001e58:	00369693          	slli	a3,a3,0x3
    80001e5c:	acdff06f          	j	80001928 <_malloc_r+0xec>
    80001e60:	01033783          	ld	a5,16(t1)
    80001e64:	fff6061b          	addiw	a2,a2,-1
    80001e68:	1e679063          	bne	a5,t1,80002048 <_malloc_r+0x80c>
    80001e6c:	00367793          	andi	a5,a2,3
    80001e70:	ff030313          	addi	t1,t1,-16
    80001e74:	fe0796e3          	bnez	a5,80001e60 <_malloc_r+0x624>
    80001e78:	0089b703          	ld	a4,8(s3)
    80001e7c:	fff5c793          	not	a5,a1
    80001e80:	00e7f7b3          	and	a5,a5,a4
    80001e84:	00f9b423          	sd	a5,8(s3)
    80001e88:	00159593          	slli	a1,a1,0x1
    80001e8c:	b0b7e0e3          	bltu	a5,a1,8000198c <_malloc_r+0x150>
    80001e90:	ae058ee3          	beqz	a1,8000198c <_malloc_r+0x150>
    80001e94:	00f5f733          	and	a4,a1,a5
    80001e98:	00071a63          	bnez	a4,80001eac <_malloc_r+0x670>
    80001e9c:	00159593          	slli	a1,a1,0x1
    80001ea0:	00f5f733          	and	a4,a1,a5
    80001ea4:	004e0e1b          	addiw	t3,t3,4
    80001ea8:	fe070ae3          	beqz	a4,80001e9c <_malloc_r+0x660>
    80001eac:	000e0613          	mv	a2,t3
    80001eb0:	d45ff06f          	j	80001bf4 <_malloc_r+0x3b8>
    80001eb4:	02078a13          	addi	s4,a5,32
    80001eb8:	b1dff06f          	j	800019d4 <_malloc_r+0x198>
    80001ebc:	0089b503          	ld	a0,8(s3)
    80001ec0:	4026d69b          	sraiw	a3,a3,0x2
    80001ec4:	00100793          	li	a5,1
    80001ec8:	00d797b3          	sll	a5,a5,a3
    80001ecc:	00a7e7b3          	or	a5,a5,a0
    80001ed0:	00f9b423          	sd	a5,8(s3)
    80001ed4:	e41ff06f          	j	80001d14 <_malloc_r+0x4d8>
    80001ed8:	014a8bb3          	add	s7,s5,s4
    80001edc:	41700bb3          	neg	s7,s7
    80001ee0:	07fbfb93          	andi	s7,s7,127
    80001ee4:	000b8593          	mv	a1,s7
    80001ee8:	00090513          	mv	a0,s2
    80001eec:	16c000ef          	jal	ra,80002058 <_sbrk_r>
    80001ef0:	fff00793          	li	a5,-1
    80001ef4:	00000713          	li	a4,0
    80001ef8:	b6f508e3          	beq	a0,a5,80001a68 <_malloc_r+0x22c>
    80001efc:	41550533          	sub	a0,a0,s5
    80001f00:	000b871b          	sext.w	a4,s7
    80001f04:	01750a33          	add	s4,a0,s7
    80001f08:	b61ff06f          	j	80001a68 <_malloc_r+0x22c>
    80001f0c:	05400693          	li	a3,84
    80001f10:	08e6e663          	bltu	a3,a4,80001f9c <_malloc_r+0x760>
    80001f14:	00c7d713          	srli	a4,a5,0xc
    80001f18:	06f7059b          	addiw	a1,a4,111
    80001f1c:	0015959b          	slliw	a1,a1,0x1
    80001f20:	06e7069b          	addiw	a3,a4,110
    80001f24:	00359593          	slli	a1,a1,0x3
    80001f28:	dc1ff06f          	j	80001ce8 <_malloc_r+0x4ac>
    80001f2c:	15400713          	li	a4,340
    80001f30:	08f76663          	bltu	a4,a5,80001fbc <_malloc_r+0x780>
    80001f34:	00f4d793          	srli	a5,s1,0xf
    80001f38:	0787861b          	addiw	a2,a5,120
    80001f3c:	0016169b          	slliw	a3,a2,0x1
    80001f40:	0777851b          	addiw	a0,a5,119
    80001f44:	00369693          	slli	a3,a3,0x3
    80001f48:	9e1ff06f          	j	80001928 <_malloc_r+0xec>
    80001f4c:	000fec17          	auipc	s8,0xfe
    80001f50:	14cc0c13          	addi	s8,s8,332 # 80100098 <__malloc_current_mallinfo>
    80001f54:	000c2783          	lw	a5,0(s8)
    80001f58:	014786bb          	addw	a3,a5,s4
    80001f5c:	00dc2023          	sw	a3,0(s8)
    80001f60:	aadff06f          	j	80001a0c <_malloc_r+0x1d0>
    80001f64:	07fbf713          	andi	a4,s7,127
    80001f68:	aa0712e3          	bnez	a4,80001a0c <_malloc_r+0x1d0>
    80001f6c:	0109b403          	ld	s0,16(s3)
    80001f70:	014b0a33          	add	s4,s6,s4
    80001f74:	001a6a13          	ori	s4,s4,1
    80001f78:	01443423          	sd	s4,8(s0)
    80001f7c:	b45ff06f          	j	80001ac0 <_malloc_r+0x284>
    80001f80:	015cb023          	sd	s5,0(s9)
    80001f84:	aa1ff06f          	j	80001a24 <_malloc_r+0x1e8>
    80001f88:	000a8413          	mv	s0,s5
    80001f8c:	b35ff06f          	j	80001ac0 <_malloc_r+0x284>
    80001f90:	00100793          	li	a5,1
    80001f94:	00fab423          	sd	a5,8(s5)
    80001f98:	ea5ff06f          	j	80001e3c <_malloc_r+0x600>
    80001f9c:	15400693          	li	a3,340
    80001fa0:	06e6e663          	bltu	a3,a4,8000200c <_malloc_r+0x7d0>
    80001fa4:	00f7d713          	srli	a4,a5,0xf
    80001fa8:	0787059b          	addiw	a1,a4,120
    80001fac:	0015959b          	slliw	a1,a1,0x1
    80001fb0:	0777069b          	addiw	a3,a4,119
    80001fb4:	00359593          	slli	a1,a1,0x3
    80001fb8:	d31ff06f          	j	80001ce8 <_malloc_r+0x4ac>
    80001fbc:	55400713          	li	a4,1364
    80001fc0:	06f76663          	bltu	a4,a5,8000202c <_malloc_r+0x7f0>
    80001fc4:	0124d793          	srli	a5,s1,0x12
    80001fc8:	07d7861b          	addiw	a2,a5,125
    80001fcc:	0016169b          	slliw	a3,a2,0x1
    80001fd0:	07c7851b          	addiw	a0,a5,124
    80001fd4:	00369693          	slli	a3,a3,0x3
    80001fd8:	951ff06f          	j	80001928 <_malloc_r+0xec>
    80001fdc:	ff0b8b93          	addi	s7,s7,-16
    80001fe0:	017c8a33          	add	s4,s9,s7
    80001fe4:	415a0a33          	sub	s4,s4,s5
    80001fe8:	00000713          	li	a4,0
    80001fec:	a7dff06f          	j	80001a68 <_malloc_r+0x22c>
    80001ff0:	01040593          	addi	a1,s0,16
    80001ff4:	00090513          	mv	a0,s2
    80001ff8:	d14ff0ef          	jal	ra,8000150c <_free_r>
    80001ffc:	0109b403          	ld	s0,16(s3)
    80002000:	000c2783          	lw	a5,0(s8)
    80002004:	00843a03          	ld	s4,8(s0)
    80002008:	ab9ff06f          	j	80001ac0 <_malloc_r+0x284>
    8000200c:	55400693          	li	a3,1364
    80002010:	02e6e663          	bltu	a3,a4,8000203c <_malloc_r+0x800>
    80002014:	0127d713          	srli	a4,a5,0x12
    80002018:	07d7059b          	addiw	a1,a4,125
    8000201c:	0015959b          	slliw	a1,a1,0x1
    80002020:	07c7069b          	addiw	a3,a4,124
    80002024:	00359593          	slli	a1,a1,0x3
    80002028:	cc1ff06f          	j	80001ce8 <_malloc_r+0x4ac>
    8000202c:	7f000693          	li	a3,2032
    80002030:	07f00613          	li	a2,127
    80002034:	07e00513          	li	a0,126
    80002038:	8f1ff06f          	j	80001928 <_malloc_r+0xec>
    8000203c:	7f000593          	li	a1,2032
    80002040:	07e00693          	li	a3,126
    80002044:	ca5ff06f          	j	80001ce8 <_malloc_r+0x4ac>
    80002048:	0089b783          	ld	a5,8(s3)
    8000204c:	e3dff06f          	j	80001e88 <_malloc_r+0x64c>

0000000080002050 <__malloc_lock>:
    80002050:	00008067          	ret

0000000080002054 <__malloc_unlock>:
    80002054:	00008067          	ret

0000000080002058 <_sbrk_r>:
    80002058:	ff010113          	addi	sp,sp,-16
    8000205c:	00813023          	sd	s0,0(sp)
    80002060:	00050413          	mv	s0,a0
    80002064:	00058513          	mv	a0,a1
    80002068:	000fe797          	auipc	a5,0xfe
    8000206c:	6e07ac23          	sw	zero,1784(a5) # 80100760 <errno>
    80002070:	00113423          	sd	ra,8(sp)
    80002074:	07c000ef          	jal	ra,800020f0 <_sbrk>
    80002078:	fff00793          	li	a5,-1
    8000207c:	00f50a63          	beq	a0,a5,80002090 <_sbrk_r+0x38>
    80002080:	00813083          	ld	ra,8(sp)
    80002084:	00013403          	ld	s0,0(sp)
    80002088:	01010113          	addi	sp,sp,16
    8000208c:	00008067          	ret
    80002090:	000fe797          	auipc	a5,0xfe
    80002094:	6d07a783          	lw	a5,1744(a5) # 80100760 <errno>
    80002098:	fe0784e3          	beqz	a5,80002080 <_sbrk_r+0x28>
    8000209c:	00813083          	ld	ra,8(sp)
    800020a0:	00f42023          	sw	a5,0(s0)
    800020a4:	00013403          	ld	s0,0(sp)
    800020a8:	01010113          	addi	sp,sp,16
    800020ac:	00008067          	ret

00000000800020b0 <_close>:
    800020b0:	ff010113          	addi	sp,sp,-16
    800020b4:	00813023          	sd	s0,0(sp)
    800020b8:	00113423          	sd	ra,8(sp)
    800020bc:	00050413          	mv	s0,a0
    800020c0:	070000ef          	jal	ra,80002130 <dramfs_check_fd>
    800020c4:	00054c63          	bltz	a0,800020dc <_close+0x2c>
    800020c8:	00040513          	mv	a0,s0
    800020cc:	00013403          	ld	s0,0(sp)
    800020d0:	00813083          	ld	ra,8(sp)
    800020d4:	01010113          	addi	sp,sp,16
    800020d8:	15c0006f          	j	80002234 <dramfs_free_fd>
    800020dc:	00813083          	ld	ra,8(sp)
    800020e0:	00013403          	ld	s0,0(sp)
    800020e4:	fff00513          	li	a0,-1
    800020e8:	01010113          	addi	sp,sp,16
    800020ec:	00008067          	ret

00000000800020f0 <_sbrk>:
    800020f0:	000fe717          	auipc	a4,0xfe
    800020f4:	f3070713          	addi	a4,a4,-208 # 80100020 <heap_ptr>
    800020f8:	00073783          	ld	a5,0(a4)
    800020fc:	00a78533          	add	a0,a5,a0
    80002100:	00a73023          	sd	a0,0(a4)
    80002104:	00078513          	mv	a0,a5
    80002108:	00008067          	ret

000000008000210c <dramfs_init_fdtable>:
    8000210c:	000fe797          	auipc	a5,0xfe
    80002110:	fb478793          	addi	a5,a5,-76 # 801000c0 <dramfs_fdtable>
    80002114:	000fe717          	auipc	a4,0xfe
    80002118:	5ec70713          	addi	a4,a4,1516 # 80100700 <dramfs_fs>
    8000211c:	0007a023          	sw	zero,0(a5)
    80002120:	0007a223          	sw	zero,4(a5)
    80002124:	05078793          	addi	a5,a5,80
    80002128:	fee79ae3          	bne	a5,a4,8000211c <dramfs_init_fdtable+0x10>
    8000212c:	00008067          	ret

0000000080002130 <dramfs_check_fd>:
    80002130:	01300793          	li	a5,19
    80002134:	02a7e663          	bltu	a5,a0,80002160 <dramfs_check_fd+0x30>
    80002138:	00251793          	slli	a5,a0,0x2
    8000213c:	00a787b3          	add	a5,a5,a0
    80002140:	00479793          	slli	a5,a5,0x4
    80002144:	000fe717          	auipc	a4,0xfe
    80002148:	f7c70713          	addi	a4,a4,-132 # 801000c0 <dramfs_fdtable>
    8000214c:	00f707b3          	add	a5,a4,a5
    80002150:	0007a783          	lw	a5,0(a5)
    80002154:	00000513          	li	a0,0
    80002158:	00078463          	beqz	a5,80002160 <dramfs_check_fd+0x30>
    8000215c:	00008067          	ret
    80002160:	ff010113          	addi	sp,sp,-16
    80002164:	00113423          	sd	ra,8(sp)
    80002168:	249040ef          	jal	ra,80006bb0 <__errno>
    8000216c:	00900793          	li	a5,9
    80002170:	00f52023          	sw	a5,0(a0)
    80002174:	fff00513          	li	a0,-1
    80002178:	00813083          	ld	ra,8(sp)
    8000217c:	01010113          	addi	sp,sp,16
    80002180:	00008067          	ret

0000000080002184 <dramfs_nonblock_fd>:
    80002184:	00251793          	slli	a5,a0,0x2
    80002188:	00a787b3          	add	a5,a5,a0
    8000218c:	00479793          	slli	a5,a5,0x4
    80002190:	000fe517          	auipc	a0,0xfe
    80002194:	f3050513          	addi	a0,a0,-208 # 801000c0 <dramfs_fdtable>
    80002198:	00f507b3          	add	a5,a0,a5
    8000219c:	0047a503          	lw	a0,4(a5)
    800021a0:	fff50513          	addi	a0,a0,-1
    800021a4:	00153513          	seqz	a0,a0
    800021a8:	00008067          	ret

00000000800021ac <dramfs_reserve_fd>:
    800021ac:	000fe797          	auipc	a5,0xfe
    800021b0:	f1478793          	addi	a5,a5,-236 # 801000c0 <dramfs_fdtable>
    800021b4:	00000513          	li	a0,0
    800021b8:	01400693          	li	a3,20
    800021bc:	0007a703          	lw	a4,0(a5)
    800021c0:	02070a63          	beqz	a4,800021f4 <dramfs_reserve_fd+0x48>
    800021c4:	0015051b          	addiw	a0,a0,1
    800021c8:	05078793          	addi	a5,a5,80
    800021cc:	fed518e3          	bne	a0,a3,800021bc <dramfs_reserve_fd+0x10>
    800021d0:	ff010113          	addi	sp,sp,-16
    800021d4:	00113423          	sd	ra,8(sp)
    800021d8:	1d9040ef          	jal	ra,80006bb0 <__errno>
    800021dc:	01700793          	li	a5,23
    800021e0:	00f52023          	sw	a5,0(a0)
    800021e4:	fff00513          	li	a0,-1
    800021e8:	00813083          	ld	ra,8(sp)
    800021ec:	01010113          	addi	sp,sp,16
    800021f0:	00008067          	ret
    800021f4:	00251793          	slli	a5,a0,0x2
    800021f8:	00a787b3          	add	a5,a5,a0
    800021fc:	00479793          	slli	a5,a5,0x4
    80002200:	000fe717          	auipc	a4,0xfe
    80002204:	ec070713          	addi	a4,a4,-320 # 801000c0 <dramfs_fdtable>
    80002208:	00f707b3          	add	a5,a4,a5
    8000220c:	00100713          	li	a4,1
    80002210:	00e7a023          	sw	a4,0(a5)
    80002214:	00008067          	ret

0000000080002218 <dramfs_get_file>:
    80002218:	00251793          	slli	a5,a0,0x2
    8000221c:	00a787b3          	add	a5,a5,a0
    80002220:	00479793          	slli	a5,a5,0x4
    80002224:	000fe517          	auipc	a0,0xfe
    80002228:	ea450513          	addi	a0,a0,-348 # 801000c8 <dramfs_fdtable+0x8>
    8000222c:	00a78533          	add	a0,a5,a0
    80002230:	00008067          	ret

0000000080002234 <dramfs_free_fd>:
    80002234:	00251793          	slli	a5,a0,0x2
    80002238:	00a787b3          	add	a5,a5,a0
    8000223c:	00479793          	slli	a5,a5,0x4
    80002240:	000fe717          	auipc	a4,0xfe
    80002244:	e8070713          	addi	a4,a4,-384 # 801000c0 <dramfs_fdtable>
    80002248:	00f707b3          	add	a5,a4,a5
    8000224c:	0007a703          	lw	a4,0(a5)
    80002250:	00100793          	li	a5,1
    80002254:	00f70663          	beq	a4,a5,80002260 <dramfs_free_fd+0x2c>
    80002258:	00000513          	li	a0,0
    8000225c:	00008067          	ret
    80002260:	ff010113          	addi	sp,sp,-16
    80002264:	00113423          	sd	ra,8(sp)
    80002268:	000fe597          	auipc	a1,0xfe
    8000226c:	e5858593          	addi	a1,a1,-424 # 801000c0 <dramfs_fdtable>
    80002270:	00251793          	slli	a5,a0,0x2
    80002274:	00a78733          	add	a4,a5,a0
    80002278:	00471713          	slli	a4,a4,0x4
    8000227c:	00e58733          	add	a4,a1,a4
    80002280:	00072023          	sw	zero,0(a4)
    80002284:	00a787b3          	add	a5,a5,a0
    80002288:	00479793          	slli	a5,a5,0x4
    8000228c:	00878793          	addi	a5,a5,8
    80002290:	00f585b3          	add	a1,a1,a5
    80002294:	000fe517          	auipc	a0,0xfe
    80002298:	46c50513          	addi	a0,a0,1132 # 80100700 <dramfs_fs>
    8000229c:	0c1030ef          	jal	ra,80005b5c <lfs_file_close>
    800022a0:	00813083          	ld	ra,8(sp)
    800022a4:	01010113          	addi	sp,sp,16
    800022a8:	00008067          	ret

00000000800022ac <lfs_bd_erase>:
    800022ac:	ff010113          	addi	sp,sp,-16
    800022b0:	00113423          	sd	ra,8(sp)
    800022b4:	00053503          	ld	a0,0(a0)
    800022b8:	01853783          	ld	a5,24(a0)
    800022bc:	000780e7          	jalr	a5
    800022c0:	00813083          	ld	ra,8(sp)
    800022c4:	01010113          	addi	sp,sp,16
    800022c8:	00008067          	ret

00000000800022cc <lfs_alloc_lookahead>:
    800022cc:	00053783          	ld	a5,0(a0)
    800022d0:	0347a703          	lw	a4,52(a5)
    800022d4:	04052783          	lw	a5,64(a0)
    800022d8:	40f707bb          	subw	a5,a4,a5
    800022dc:	00b785bb          	addw	a1,a5,a1
    800022e0:	02e5f5bb          	remuw	a1,a1,a4
    800022e4:	0005879b          	sext.w	a5,a1
    800022e8:	04452703          	lw	a4,68(a0)
    800022ec:	02e7f463          	bgeu	a5,a4,80002314 <lfs_alloc_lookahead+0x48>
    800022f0:	0055d71b          	srliw	a4,a1,0x5
    800022f4:	00271793          	slli	a5,a4,0x2
    800022f8:	05053703          	ld	a4,80(a0)
    800022fc:	00f70733          	add	a4,a4,a5
    80002300:	00100793          	li	a5,1
    80002304:	00b795bb          	sllw	a1,a5,a1
    80002308:	00072783          	lw	a5,0(a4)
    8000230c:	00f5e5b3          	or	a1,a1,a5
    80002310:	00b72023          	sw	a1,0(a4)
    80002314:	00000513          	li	a0,0
    80002318:	00008067          	ret

000000008000231c <lfs_dir_fromle32>:
    8000231c:	00052703          	lw	a4,0(a0)
    80002320:	00875793          	srli	a5,a4,0x8
    80002324:	0ff7f793          	andi	a5,a5,255
    80002328:	0087979b          	slliw	a5,a5,0x8
    8000232c:	01075693          	srli	a3,a4,0x10
    80002330:	0ff6f693          	andi	a3,a3,255
    80002334:	0106969b          	slliw	a3,a3,0x10
    80002338:	00d7e7b3          	or	a5,a5,a3
    8000233c:	0ff77693          	andi	a3,a4,255
    80002340:	00d7e7b3          	or	a5,a5,a3
    80002344:	0187571b          	srliw	a4,a4,0x18
    80002348:	0187171b          	slliw	a4,a4,0x18
    8000234c:	00e7e7b3          	or	a5,a5,a4
    80002350:	00f52023          	sw	a5,0(a0)
    80002354:	00452703          	lw	a4,4(a0)
    80002358:	00875793          	srli	a5,a4,0x8
    8000235c:	0ff7f793          	andi	a5,a5,255
    80002360:	0087979b          	slliw	a5,a5,0x8
    80002364:	01075693          	srli	a3,a4,0x10
    80002368:	0ff6f693          	andi	a3,a3,255
    8000236c:	0106969b          	slliw	a3,a3,0x10
    80002370:	00d7e7b3          	or	a5,a5,a3
    80002374:	0ff77693          	andi	a3,a4,255
    80002378:	00d7e7b3          	or	a5,a5,a3
    8000237c:	0187571b          	srliw	a4,a4,0x18
    80002380:	0187171b          	slliw	a4,a4,0x18
    80002384:	00e7e7b3          	or	a5,a5,a4
    80002388:	00f52223          	sw	a5,4(a0)
    8000238c:	00852703          	lw	a4,8(a0)
    80002390:	00875793          	srli	a5,a4,0x8
    80002394:	0ff7f793          	andi	a5,a5,255
    80002398:	0087979b          	slliw	a5,a5,0x8
    8000239c:	01075693          	srli	a3,a4,0x10
    800023a0:	0ff6f693          	andi	a3,a3,255
    800023a4:	0106969b          	slliw	a3,a3,0x10
    800023a8:	00d7e7b3          	or	a5,a5,a3
    800023ac:	0ff77693          	andi	a3,a4,255
    800023b0:	00d7e7b3          	or	a5,a5,a3
    800023b4:	0187571b          	srliw	a4,a4,0x18
    800023b8:	0187171b          	slliw	a4,a4,0x18
    800023bc:	00e7e7b3          	or	a5,a5,a4
    800023c0:	00f52423          	sw	a5,8(a0)
    800023c4:	00c52703          	lw	a4,12(a0)
    800023c8:	00875793          	srli	a5,a4,0x8
    800023cc:	0ff7f793          	andi	a5,a5,255
    800023d0:	0087979b          	slliw	a5,a5,0x8
    800023d4:	01075693          	srli	a3,a4,0x10
    800023d8:	0ff6f693          	andi	a3,a3,255
    800023dc:	0106969b          	slliw	a3,a3,0x10
    800023e0:	00d7e7b3          	or	a5,a5,a3
    800023e4:	0ff77693          	andi	a3,a4,255
    800023e8:	00d7e7b3          	or	a5,a5,a3
    800023ec:	0187571b          	srliw	a4,a4,0x18
    800023f0:	0187171b          	slliw	a4,a4,0x18
    800023f4:	00e7e7b3          	or	a5,a5,a4
    800023f8:	00f52623          	sw	a5,12(a0)
    800023fc:	00008067          	ret

0000000080002400 <lfs_dir_tole32>:
    80002400:	00052703          	lw	a4,0(a0)
    80002404:	00875793          	srli	a5,a4,0x8
    80002408:	0ff7f793          	andi	a5,a5,255
    8000240c:	0087979b          	slliw	a5,a5,0x8
    80002410:	01075693          	srli	a3,a4,0x10
    80002414:	0ff6f693          	andi	a3,a3,255
    80002418:	0106969b          	slliw	a3,a3,0x10
    8000241c:	00d7e7b3          	or	a5,a5,a3
    80002420:	0ff77693          	andi	a3,a4,255
    80002424:	00d7e7b3          	or	a5,a5,a3
    80002428:	0187571b          	srliw	a4,a4,0x18
    8000242c:	0187171b          	slliw	a4,a4,0x18
    80002430:	00e7e7b3          	or	a5,a5,a4
    80002434:	00f52023          	sw	a5,0(a0)
    80002438:	00452703          	lw	a4,4(a0)
    8000243c:	00875793          	srli	a5,a4,0x8
    80002440:	0ff7f793          	andi	a5,a5,255
    80002444:	0087979b          	slliw	a5,a5,0x8
    80002448:	01075693          	srli	a3,a4,0x10
    8000244c:	0ff6f693          	andi	a3,a3,255
    80002450:	0106969b          	slliw	a3,a3,0x10
    80002454:	00d7e7b3          	or	a5,a5,a3
    80002458:	0ff77693          	andi	a3,a4,255
    8000245c:	00d7e7b3          	or	a5,a5,a3
    80002460:	0187571b          	srliw	a4,a4,0x18
    80002464:	0187171b          	slliw	a4,a4,0x18
    80002468:	00e7e7b3          	or	a5,a5,a4
    8000246c:	00f52223          	sw	a5,4(a0)
    80002470:	00852703          	lw	a4,8(a0)
    80002474:	00875793          	srli	a5,a4,0x8
    80002478:	0ff7f793          	andi	a5,a5,255
    8000247c:	0087979b          	slliw	a5,a5,0x8
    80002480:	01075693          	srli	a3,a4,0x10
    80002484:	0ff6f693          	andi	a3,a3,255
    80002488:	0106969b          	slliw	a3,a3,0x10
    8000248c:	00d7e7b3          	or	a5,a5,a3
    80002490:	0ff77693          	andi	a3,a4,255
    80002494:	00d7e7b3          	or	a5,a5,a3
    80002498:	0187571b          	srliw	a4,a4,0x18
    8000249c:	0187171b          	slliw	a4,a4,0x18
    800024a0:	00e7e7b3          	or	a5,a5,a4
    800024a4:	00f52423          	sw	a5,8(a0)
    800024a8:	00c52703          	lw	a4,12(a0)
    800024ac:	00875793          	srli	a5,a4,0x8
    800024b0:	0ff7f793          	andi	a5,a5,255
    800024b4:	0087979b          	slliw	a5,a5,0x8
    800024b8:	01075693          	srli	a3,a4,0x10
    800024bc:	0ff6f693          	andi	a3,a3,255
    800024c0:	0106969b          	slliw	a3,a3,0x10
    800024c4:	00d7e7b3          	or	a5,a5,a3
    800024c8:	0ff77693          	andi	a3,a4,255
    800024cc:	00d7e7b3          	or	a5,a5,a3
    800024d0:	0187571b          	srliw	a4,a4,0x18
    800024d4:	0187171b          	slliw	a4,a4,0x18
    800024d8:	00e7e7b3          	or	a5,a5,a4
    800024dc:	00f52623          	sw	a5,12(a0)
    800024e0:	00008067          	ret

00000000800024e4 <lfs_entry_fromle32>:
    800024e4:	00452703          	lw	a4,4(a0)
    800024e8:	00875793          	srli	a5,a4,0x8
    800024ec:	0ff7f793          	andi	a5,a5,255
    800024f0:	0087979b          	slliw	a5,a5,0x8
    800024f4:	01075693          	srli	a3,a4,0x10
    800024f8:	0ff6f693          	andi	a3,a3,255
    800024fc:	0106969b          	slliw	a3,a3,0x10
    80002500:	00d7e7b3          	or	a5,a5,a3
    80002504:	0ff77693          	andi	a3,a4,255
    80002508:	00d7e7b3          	or	a5,a5,a3
    8000250c:	0187571b          	srliw	a4,a4,0x18
    80002510:	0187171b          	slliw	a4,a4,0x18
    80002514:	00e7e7b3          	or	a5,a5,a4
    80002518:	00f52223          	sw	a5,4(a0)
    8000251c:	00852703          	lw	a4,8(a0)
    80002520:	00875793          	srli	a5,a4,0x8
    80002524:	0ff7f793          	andi	a5,a5,255
    80002528:	0087979b          	slliw	a5,a5,0x8
    8000252c:	01075693          	srli	a3,a4,0x10
    80002530:	0ff6f693          	andi	a3,a3,255
    80002534:	0106969b          	slliw	a3,a3,0x10
    80002538:	00d7e7b3          	or	a5,a5,a3
    8000253c:	0ff77693          	andi	a3,a4,255
    80002540:	00d7e7b3          	or	a5,a5,a3
    80002544:	0187571b          	srliw	a4,a4,0x18
    80002548:	0187171b          	slliw	a4,a4,0x18
    8000254c:	00e7e7b3          	or	a5,a5,a4
    80002550:	00f52423          	sw	a5,8(a0)
    80002554:	00008067          	ret

0000000080002558 <lfs_entry_tole32>:
    80002558:	00452703          	lw	a4,4(a0)
    8000255c:	00875793          	srli	a5,a4,0x8
    80002560:	0ff7f793          	andi	a5,a5,255
    80002564:	0087979b          	slliw	a5,a5,0x8
    80002568:	01075693          	srli	a3,a4,0x10
    8000256c:	0ff6f693          	andi	a3,a3,255
    80002570:	0106969b          	slliw	a3,a3,0x10
    80002574:	00d7e7b3          	or	a5,a5,a3
    80002578:	0ff77693          	andi	a3,a4,255
    8000257c:	00d7e7b3          	or	a5,a5,a3
    80002580:	0187571b          	srliw	a4,a4,0x18
    80002584:	0187171b          	slliw	a4,a4,0x18
    80002588:	00e7e7b3          	or	a5,a5,a4
    8000258c:	00f52223          	sw	a5,4(a0)
    80002590:	00852703          	lw	a4,8(a0)
    80002594:	00875793          	srli	a5,a4,0x8
    80002598:	0ff7f793          	andi	a5,a5,255
    8000259c:	0087979b          	slliw	a5,a5,0x8
    800025a0:	01075693          	srli	a3,a4,0x10
    800025a4:	0ff6f693          	andi	a3,a3,255
    800025a8:	0106969b          	slliw	a3,a3,0x10
    800025ac:	00d7e7b3          	or	a5,a5,a3
    800025b0:	0ff77693          	andi	a3,a4,255
    800025b4:	00d7e7b3          	or	a5,a5,a3
    800025b8:	0187571b          	srliw	a4,a4,0x18
    800025bc:	0187171b          	slliw	a4,a4,0x18
    800025c0:	00e7e7b3          	or	a5,a5,a4
    800025c4:	00f52423          	sw	a5,8(a0)
    800025c8:	00008067          	ret

00000000800025cc <lfs_ctz_index>:
    800025cc:	0005a803          	lw	a6,0(a1)
    800025d0:	00053783          	ld	a5,0(a0)
    800025d4:	0307a683          	lw	a3,48(a5)
    800025d8:	ff86869b          	addiw	a3,a3,-8
    800025dc:	0006879b          	sext.w	a5,a3
    800025e0:	0cf86463          	bltu	a6,a5,800026a8 <lfs_ctz_index+0xdc>
    800025e4:	02d8573b          	divuw	a4,a6,a3
    800025e8:	fff7071b          	addiw	a4,a4,-1
    800025ec:	0017579b          	srliw	a5,a4,0x1
    800025f0:	55555337          	lui	t1,0x55555
    800025f4:	55530313          	addi	t1,t1,1365 # 55555555 <_start-0x2aaaaaab>
    800025f8:	0067f7b3          	and	a5,a5,t1
    800025fc:	40f7073b          	subw	a4,a4,a5
    80002600:	33333637          	lui	a2,0x33333
    80002604:	33360613          	addi	a2,a2,819 # 33333333 <_start-0x4ccccccd>
    80002608:	00e67533          	and	a0,a2,a4
    8000260c:	0027571b          	srliw	a4,a4,0x2
    80002610:	00e67733          	and	a4,a2,a4
    80002614:	00e5073b          	addw	a4,a0,a4
    80002618:	0047551b          	srliw	a0,a4,0x4
    8000261c:	00e5053b          	addw	a0,a0,a4
    80002620:	0f0f1737          	lui	a4,0xf0f1
    80002624:	f0f70893          	addi	a7,a4,-241 # f0f0f0f <_start-0x70f0f0f1>
    80002628:	01157533          	and	a0,a0,a7
    8000262c:	0085179b          	slliw	a5,a0,0x8
    80002630:	00a787bb          	addw	a5,a5,a0
    80002634:	0107951b          	slliw	a0,a5,0x10
    80002638:	00a7853b          	addw	a0,a5,a0
    8000263c:	0185551b          	srliw	a0,a0,0x18
    80002640:	0025051b          	addiw	a0,a0,2
    80002644:	0025151b          	slliw	a0,a0,0x2
    80002648:	40a8053b          	subw	a0,a6,a0
    8000264c:	02d5553b          	divuw	a0,a0,a3
    80002650:	0015571b          	srliw	a4,a0,0x1
    80002654:	00677733          	and	a4,a4,t1
    80002658:	40e5073b          	subw	a4,a0,a4
    8000265c:	00e677b3          	and	a5,a2,a4
    80002660:	0027571b          	srliw	a4,a4,0x2
    80002664:	00e67733          	and	a4,a2,a4
    80002668:	00e7873b          	addw	a4,a5,a4
    8000266c:	02a686bb          	mulw	a3,a3,a0
    80002670:	40d806bb          	subw	a3,a6,a3
    80002674:	0047579b          	srliw	a5,a4,0x4
    80002678:	00e787bb          	addw	a5,a5,a4
    8000267c:	0117f733          	and	a4,a5,a7
    80002680:	0087179b          	slliw	a5,a4,0x8
    80002684:	00e787bb          	addw	a5,a5,a4
    80002688:	0107971b          	slliw	a4,a5,0x10
    8000268c:	00e787bb          	addw	a5,a5,a4
    80002690:	0187d79b          	srliw	a5,a5,0x18
    80002694:	0027979b          	slliw	a5,a5,0x2
    80002698:	40f687bb          	subw	a5,a3,a5
    8000269c:	00f5a023          	sw	a5,0(a1)
    800026a0:	0005051b          	sext.w	a0,a0
    800026a4:	00008067          	ret
    800026a8:	00000513          	li	a0,0
    800026ac:	00008067          	ret

00000000800026b0 <lfs_cache_read>:
    800026b0:	fb010113          	addi	sp,sp,-80
    800026b4:	04113423          	sd	ra,72(sp)
    800026b8:	04813023          	sd	s0,64(sp)
    800026bc:	02913c23          	sd	s1,56(sp)
    800026c0:	03213823          	sd	s2,48(sp)
    800026c4:	03313423          	sd	s3,40(sp)
    800026c8:	03413023          	sd	s4,32(sp)
    800026cc:	01513c23          	sd	s5,24(sp)
    800026d0:	01613823          	sd	s6,16(sp)
    800026d4:	01713423          	sd	s7,8(sp)
    800026d8:	01813023          	sd	s8,0(sp)
    800026dc:	00050993          	mv	s3,a0
    800026e0:	00058493          	mv	s1,a1
    800026e4:	00060a13          	mv	s4,a2
    800026e8:	00068913          	mv	s2,a3
    800026ec:	00070413          	mv	s0,a4
    800026f0:	00078a93          	mv	s5,a5
    800026f4:	00080b13          	mv	s6,a6
    800026f8:	12081863          	bnez	a6,80002828 <lfs_cache_read+0x178>
    800026fc:	00000513          	li	a0,0
    80002700:	1780006f          	j	80002878 <lfs_cache_read+0x1c8>
    80002704:	004a2783          	lw	a5,4(s4)
    80002708:	12f46663          	bltu	s0,a5,80002834 <lfs_cache_read+0x184>
    8000270c:	0009b703          	ld	a4,0(s3)
    80002710:	02c72703          	lw	a4,44(a4)
    80002714:	00f7073b          	addw	a4,a4,a5
    80002718:	0007069b          	sext.w	a3,a4
    8000271c:	10d47c63          	bgeu	s0,a3,80002834 <lfs_cache_read+0x184>
    80002720:	4087073b          	subw	a4,a4,s0
    80002724:	00070b93          	mv	s7,a4
    80002728:	0007071b          	sext.w	a4,a4
    8000272c:	00eb7463          	bgeu	s6,a4,80002734 <lfs_cache_read+0x84>
    80002730:	000b0b93          	mv	s7,s6
    80002734:	020b9c13          	slli	s8,s7,0x20
    80002738:	020c5c13          	srli	s8,s8,0x20
    8000273c:	40f407bb          	subw	a5,s0,a5
    80002740:	02079793          	slli	a5,a5,0x20
    80002744:	0207d793          	srli	a5,a5,0x20
    80002748:	008a3583          	ld	a1,8(s4)
    8000274c:	000c0613          	mv	a2,s8
    80002750:	00f585b3          	add	a1,a1,a5
    80002754:	000a8513          	mv	a0,s5
    80002758:	4fc040ef          	jal	ra,80006c54 <memcpy>
    8000275c:	018a8ab3          	add	s5,s5,s8
    80002760:	008b843b          	addw	s0,s7,s0
    80002764:	417b0b3b          	subw	s6,s6,s7
    80002768:	0bc0006f          	j	80002824 <lfs_cache_read+0x174>
    8000276c:	0044a783          	lw	a5,4(s1)
    80002770:	0cf46663          	bltu	s0,a5,8000283c <lfs_cache_read+0x18c>
    80002774:	0009b703          	ld	a4,0(s3)
    80002778:	02872703          	lw	a4,40(a4)
    8000277c:	00f7073b          	addw	a4,a4,a5
    80002780:	0007069b          	sext.w	a3,a4
    80002784:	0ad47c63          	bgeu	s0,a3,8000283c <lfs_cache_read+0x18c>
    80002788:	4087073b          	subw	a4,a4,s0
    8000278c:	00070b93          	mv	s7,a4
    80002790:	0007071b          	sext.w	a4,a4
    80002794:	00eb7463          	bgeu	s6,a4,8000279c <lfs_cache_read+0xec>
    80002798:	000b0b93          	mv	s7,s6
    8000279c:	020b9c13          	slli	s8,s7,0x20
    800027a0:	020c5c13          	srli	s8,s8,0x20
    800027a4:	40f407bb          	subw	a5,s0,a5
    800027a8:	02079793          	slli	a5,a5,0x20
    800027ac:	0207d793          	srli	a5,a5,0x20
    800027b0:	0084b583          	ld	a1,8(s1)
    800027b4:	000c0613          	mv	a2,s8
    800027b8:	00f585b3          	add	a1,a1,a5
    800027bc:	000a8513          	mv	a0,s5
    800027c0:	494040ef          	jal	ra,80006c54 <memcpy>
    800027c4:	018a8ab3          	add	s5,s5,s8
    800027c8:	008b843b          	addw	s0,s7,s0
    800027cc:	417b0b3b          	subw	s6,s6,s7
    800027d0:	0540006f          	j	80002824 <lfs_cache_read+0x174>
    800027d4:	020b1793          	slli	a5,s6,0x20
    800027d8:	0207d793          	srli	a5,a5,0x20
    800027dc:	00fa8ab3          	add	s5,s5,a5
    800027e0:	008b043b          	addw	s0,s6,s0
    800027e4:	000b8b13          	mv	s6,s7
    800027e8:	03c0006f          	j	80002824 <lfs_cache_read+0x174>
    800027ec:	0124a023          	sw	s2,0(s1)
    800027f0:	0009b783          	ld	a5,0(s3)
    800027f4:	0287a603          	lw	a2,40(a5)
    800027f8:	02c4763b          	remuw	a2,s0,a2
    800027fc:	40c4063b          	subw	a2,s0,a2
    80002800:	00c4a223          	sw	a2,4(s1)
    80002804:	0009b503          	ld	a0,0(s3)
    80002808:	00853783          	ld	a5,8(a0)
    8000280c:	02852703          	lw	a4,40(a0)
    80002810:	0084b683          	ld	a3,8(s1)
    80002814:	0006061b          	sext.w	a2,a2
    80002818:	00090593          	mv	a1,s2
    8000281c:	000780e7          	jalr	a5
    80002820:	04051c63          	bnez	a0,80002878 <lfs_cache_read+0x1c8>
    80002824:	080b0263          	beqz	s6,800028a8 <lfs_cache_read+0x1f8>
    80002828:	000a0663          	beqz	s4,80002834 <lfs_cache_read+0x184>
    8000282c:	000a2783          	lw	a5,0(s4)
    80002830:	ed278ae3          	beq	a5,s2,80002704 <lfs_cache_read+0x54>
    80002834:	0004a783          	lw	a5,0(s1)
    80002838:	f3278ae3          	beq	a5,s2,8000276c <lfs_cache_read+0xbc>
    8000283c:	0009b503          	ld	a0,0(s3)
    80002840:	02852783          	lw	a5,40(a0)
    80002844:	02f4773b          	remuw	a4,s0,a5
    80002848:	fa0712e3          	bnez	a4,800027ec <lfs_cache_read+0x13c>
    8000284c:	fafb60e3          	bltu	s6,a5,800027ec <lfs_cache_read+0x13c>
    80002850:	02fb77bb          	remuw	a5,s6,a5
    80002854:	00078b9b          	sext.w	s7,a5
    80002858:	40fb0b3b          	subw	s6,s6,a5
    8000285c:	00853783          	ld	a5,8(a0)
    80002860:	000b071b          	sext.w	a4,s6
    80002864:	000a8693          	mv	a3,s5
    80002868:	00040613          	mv	a2,s0
    8000286c:	00090593          	mv	a1,s2
    80002870:	000780e7          	jalr	a5
    80002874:	f60500e3          	beqz	a0,800027d4 <lfs_cache_read+0x124>
    80002878:	04813083          	ld	ra,72(sp)
    8000287c:	04013403          	ld	s0,64(sp)
    80002880:	03813483          	ld	s1,56(sp)
    80002884:	03013903          	ld	s2,48(sp)
    80002888:	02813983          	ld	s3,40(sp)
    8000288c:	02013a03          	ld	s4,32(sp)
    80002890:	01813a83          	ld	s5,24(sp)
    80002894:	01013b03          	ld	s6,16(sp)
    80002898:	00813b83          	ld	s7,8(sp)
    8000289c:	00013c03          	ld	s8,0(sp)
    800028a0:	05010113          	addi	sp,sp,80
    800028a4:	00008067          	ret
    800028a8:	00000513          	li	a0,0
    800028ac:	fcdff06f          	j	80002878 <lfs_cache_read+0x1c8>

00000000800028b0 <lfs_bd_read>:
    800028b0:	ff010113          	addi	sp,sp,-16
    800028b4:	00113423          	sd	ra,8(sp)
    800028b8:	00068793          	mv	a5,a3
    800028bc:	00070813          	mv	a6,a4
    800028c0:	00060713          	mv	a4,a2
    800028c4:	00058693          	mv	a3,a1
    800028c8:	00000613          	li	a2,0
    800028cc:	02050593          	addi	a1,a0,32
    800028d0:	de1ff0ef          	jal	ra,800026b0 <lfs_cache_read>
    800028d4:	00813083          	ld	ra,8(sp)
    800028d8:	01010113          	addi	sp,sp,16
    800028dc:	00008067          	ret

00000000800028e0 <lfs_dir_fetch>:
    800028e0:	f6010113          	addi	sp,sp,-160
    800028e4:	08113c23          	sd	ra,152(sp)
    800028e8:	08813823          	sd	s0,144(sp)
    800028ec:	08913423          	sd	s1,136(sp)
    800028f0:	09213023          	sd	s2,128(sp)
    800028f4:	07313c23          	sd	s3,120(sp)
    800028f8:	07413823          	sd	s4,112(sp)
    800028fc:	07513423          	sd	s5,104(sp)
    80002900:	07613023          	sd	s6,96(sp)
    80002904:	05713c23          	sd	s7,88(sp)
    80002908:	05813823          	sd	s8,80(sp)
    8000290c:	05913423          	sd	s9,72(sp)
    80002910:	05a13023          	sd	s10,64(sp)
    80002914:	03b13c23          	sd	s11,56(sp)
    80002918:	00050493          	mv	s1,a0
    8000291c:	00b13423          	sd	a1,8(sp)
    80002920:	00062783          	lw	a5,0(a2)
    80002924:	02f12423          	sw	a5,40(sp)
    80002928:	00462783          	lw	a5,4(a2)
    8000292c:	02f12623          	sw	a5,44(sp)
    80002930:	02810a93          	addi	s5,sp,40
    80002934:	00000b13          	li	s6,0
    80002938:	00000c13          	li	s8,0
    8000293c:	80000a37          	lui	s4,0x80000
    80002940:	fffa4a13          	not	s4,s4
    80002944:	01300d13          	li	s10,19
    80002948:	fff00d93          	li	s11,-1
    8000294c:	02050b93          	addi	s7,a0,32
    80002950:	000aa983          	lw	s3,0(s5)
    80002954:	01000713          	li	a4,16
    80002958:	01810693          	addi	a3,sp,24
    8000295c:	00000613          	li	a2,0
    80002960:	00098593          	mv	a1,s3
    80002964:	00048513          	mv	a0,s1
    80002968:	f49ff0ef          	jal	ra,800028b0 <lfs_bd_read>
    8000296c:	00050413          	mv	s0,a0
    80002970:	01810513          	addi	a0,sp,24
    80002974:	9a9ff0ef          	jal	ra,8000231c <lfs_dir_fromle32>
    80002978:	06040263          	beqz	s0,800029dc <lfs_dir_fetch+0xfc>
    8000297c:	fcc00793          	li	a5,-52
    80002980:	00f41e63          	bne	s0,a5,8000299c <lfs_dir_fetch+0xbc>
    80002984:	001b0b1b          	addiw	s6,s6,1
    80002988:	004a8a93          	addi	s5,s5,4
    8000298c:	00200793          	li	a5,2
    80002990:	fcfb10e3          	bne	s6,a5,80002950 <lfs_dir_fetch+0x70>
    80002994:	00000413          	li	s0,0
    80002998:	160c0863          	beqz	s8,80002b08 <lfs_dir_fetch+0x228>
    8000299c:	00040513          	mv	a0,s0
    800029a0:	09813083          	ld	ra,152(sp)
    800029a4:	09013403          	ld	s0,144(sp)
    800029a8:	08813483          	ld	s1,136(sp)
    800029ac:	08013903          	ld	s2,128(sp)
    800029b0:	07813983          	ld	s3,120(sp)
    800029b4:	07013a03          	ld	s4,112(sp)
    800029b8:	06813a83          	ld	s5,104(sp)
    800029bc:	06013b03          	ld	s6,96(sp)
    800029c0:	05813b83          	ld	s7,88(sp)
    800029c4:	05013c03          	ld	s8,80(sp)
    800029c8:	04813c83          	ld	s9,72(sp)
    800029cc:	04013d03          	ld	s10,64(sp)
    800029d0:	03813d83          	ld	s11,56(sp)
    800029d4:	0a010113          	addi	sp,sp,160
    800029d8:	00008067          	ret
    800029dc:	000c0c63          	beqz	s8,800029f4 <lfs_dir_fetch+0x114>
    800029e0:	00813783          	ld	a5,8(sp)
    800029e4:	0207a703          	lw	a4,32(a5)
    800029e8:	01812783          	lw	a5,24(sp)
    800029ec:	40e787bb          	subw	a5,a5,a4
    800029f0:	f807cae3          	bltz	a5,80002984 <lfs_dir_fetch+0xa4>
    800029f4:	01c12783          	lw	a5,28(sp)
    800029f8:	00fa77b3          	and	a5,s4,a5
    800029fc:	f8fd74e3          	bgeu	s10,a5,80002984 <lfs_dir_fetch+0xa4>
    80002a00:	0004b703          	ld	a4,0(s1)
    80002a04:	03072703          	lw	a4,48(a4)
    80002a08:	f6f76ee3          	bltu	a4,a5,80002984 <lfs_dir_fetch+0xa4>
    80002a0c:	01b12a23          	sw	s11,20(sp)
    80002a10:	01810513          	addi	a0,sp,24
    80002a14:	9edff0ef          	jal	ra,80002400 <lfs_dir_tole32>
    80002a18:	01000613          	li	a2,16
    80002a1c:	01810593          	addi	a1,sp,24
    80002a20:	01410513          	addi	a0,sp,20
    80002a24:	795030ef          	jal	ra,800069b8 <lfs_crc>
    80002a28:	01810513          	addi	a0,sp,24
    80002a2c:	8f1ff0ef          	jal	ra,8000231c <lfs_dir_fromle32>
    80002a30:	01c12c83          	lw	s9,28(sp)
    80002a34:	019a7cb3          	and	s9,s4,s9
    80002a38:	01000793          	li	a5,16
    80002a3c:	04fc8463          	beq	s9,a5,80002a84 <lfs_dir_fetch+0x1a4>
    80002a40:	01000913          	li	s2,16
    80002a44:	00100813          	li	a6,1
    80002a48:	01310793          	addi	a5,sp,19
    80002a4c:	00090713          	mv	a4,s2
    80002a50:	00098693          	mv	a3,s3
    80002a54:	00000613          	li	a2,0
    80002a58:	000b8593          	mv	a1,s7
    80002a5c:	00048513          	mv	a0,s1
    80002a60:	c51ff0ef          	jal	ra,800026b0 <lfs_cache_read>
    80002a64:	00050413          	mv	s0,a0
    80002a68:	08051a63          	bnez	a0,80002afc <lfs_dir_fetch+0x21c>
    80002a6c:	00100613          	li	a2,1
    80002a70:	01310593          	addi	a1,sp,19
    80002a74:	01410513          	addi	a0,sp,20
    80002a78:	741030ef          	jal	ra,800069b8 <lfs_crc>
    80002a7c:	0019091b          	addiw	s2,s2,1
    80002a80:	fd2c92e3          	bne	s9,s2,80002a44 <lfs_dir_fetch+0x164>
    80002a84:	01412783          	lw	a5,20(sp)
    80002a88:	ee079ee3          	bnez	a5,80002984 <lfs_dir_fetch+0xa4>
    80002a8c:	01fb571b          	srliw	a4,s6,0x1f
    80002a90:	016707bb          	addw	a5,a4,s6
    80002a94:	0017f793          	andi	a5,a5,1
    80002a98:	40e787bb          	subw	a5,a5,a4
    80002a9c:	00279793          	slli	a5,a5,0x2
    80002aa0:	03010713          	addi	a4,sp,48
    80002aa4:	00f707b3          	add	a5,a4,a5
    80002aa8:	ff87a783          	lw	a5,-8(a5)
    80002aac:	00813683          	ld	a3,8(sp)
    80002ab0:	00f6a423          	sw	a5,8(a3)
    80002ab4:	001b079b          	addiw	a5,s6,1
    80002ab8:	01f7d71b          	srliw	a4,a5,0x1f
    80002abc:	00e787bb          	addw	a5,a5,a4
    80002ac0:	0017f793          	andi	a5,a5,1
    80002ac4:	40e787bb          	subw	a5,a5,a4
    80002ac8:	00279793          	slli	a5,a5,0x2
    80002acc:	03010713          	addi	a4,sp,48
    80002ad0:	00f707b3          	add	a5,a4,a5
    80002ad4:	ff87a783          	lw	a5,-8(a5)
    80002ad8:	00f6a623          	sw	a5,12(a3)
    80002adc:	01000793          	li	a5,16
    80002ae0:	00f6a823          	sw	a5,16(a3)
    80002ae4:	01813783          	ld	a5,24(sp)
    80002ae8:	02f6b023          	sd	a5,32(a3)
    80002aec:	02013783          	ld	a5,32(sp)
    80002af0:	02f6b423          	sd	a5,40(a3)
    80002af4:	00100c13          	li	s8,1
    80002af8:	e8dff06f          	j	80002984 <lfs_dir_fetch+0xa4>
    80002afc:	fcc00793          	li	a5,-52
    80002b00:	e8f51ee3          	bne	a0,a5,8000299c <lfs_dir_fetch+0xbc>
    80002b04:	e81ff06f          	j	80002984 <lfs_dir_fetch+0xa4>
    80002b08:	fcc00413          	li	s0,-52
    80002b0c:	e91ff06f          	j	8000299c <lfs_dir_fetch+0xbc>

0000000080002b10 <lfs_dir_next>:
    80002b10:	fb010113          	addi	sp,sp,-80
    80002b14:	04113423          	sd	ra,72(sp)
    80002b18:	04813023          	sd	s0,64(sp)
    80002b1c:	02913c23          	sd	s1,56(sp)
    80002b20:	03213823          	sd	s2,48(sp)
    80002b24:	03313423          	sd	s3,40(sp)
    80002b28:	03413023          	sd	s4,32(sp)
    80002b2c:	01513c23          	sd	s5,24(sp)
    80002b30:	01613823          	sd	s6,16(sp)
    80002b34:	01713423          	sd	s7,8(sp)
    80002b38:	00050993          	mv	s3,a0
    80002b3c:	00058413          	mv	s0,a1
    80002b40:	00060b93          	mv	s7,a2
    80002b44:	0105a603          	lw	a2,16(a1)
    80002b48:	0245a703          	lw	a4,36(a1)
    80002b4c:	02061693          	slli	a3,a2,0x20
    80002b50:	0206d693          	srli	a3,a3,0x20
    80002b54:	00c68693          	addi	a3,a3,12
    80002b58:	02171793          	slli	a5,a4,0x21
    80002b5c:	0217d793          	srli	a5,a5,0x21
    80002b60:	ffc7879b          	addiw	a5,a5,-4
    80002b64:	02079793          	slli	a5,a5,0x20
    80002b68:	0207d793          	srli	a5,a5,0x20
    80002b6c:	04d7fe63          	bgeu	a5,a3,80002bc8 <lfs_dir_next+0xb8>
    80002b70:	02858a93          	addi	s5,a1,40
    80002b74:	01000913          	li	s2,16
    80002b78:	80000a37          	lui	s4,0x80000
    80002b7c:	fffa4a13          	not	s4,s4
    80002b80:	01b00b13          	li	s6,27
    80002b84:	0a075e63          	bgez	a4,80002c40 <lfs_dir_next+0x130>
    80002b88:	000a8613          	mv	a2,s5
    80002b8c:	00040593          	mv	a1,s0
    80002b90:	00098513          	mv	a0,s3
    80002b94:	d4dff0ef          	jal	ra,800028e0 <lfs_dir_fetch>
    80002b98:	00050493          	mv	s1,a0
    80002b9c:	0a051663          	bnez	a0,80002c48 <lfs_dir_next+0x138>
    80002ba0:	01242823          	sw	s2,16(s0)
    80002ba4:	01c42783          	lw	a5,28(s0)
    80002ba8:	0147879b          	addiw	a5,a5,20
    80002bac:	00f42e23          	sw	a5,28(s0)
    80002bb0:	02442703          	lw	a4,36(s0)
    80002bb4:	00090613          	mv	a2,s2
    80002bb8:	014777b3          	and	a5,a4,s4
    80002bbc:	ffc7879b          	addiw	a5,a5,-4
    80002bc0:	fcfb72e3          	bgeu	s6,a5,80002b84 <lfs_dir_next+0x74>
    80002bc4:	01000613          	li	a2,16
    80002bc8:	004b8913          	addi	s2,s7,4
    80002bcc:	00c00713          	li	a4,12
    80002bd0:	00090693          	mv	a3,s2
    80002bd4:	00842583          	lw	a1,8(s0)
    80002bd8:	00098513          	mv	a0,s3
    80002bdc:	cd5ff0ef          	jal	ra,800028b0 <lfs_bd_read>
    80002be0:	00050493          	mv	s1,a0
    80002be4:	00090513          	mv	a0,s2
    80002be8:	8fdff0ef          	jal	ra,800024e4 <lfs_entry_fromle32>
    80002bec:	04049e63          	bnez	s1,80002c48 <lfs_dir_next+0x138>
    80002bf0:	01042703          	lw	a4,16(s0)
    80002bf4:	00eba023          	sw	a4,0(s7)
    80002bf8:	005bc783          	lbu	a5,5(s7)
    80002bfc:	0047879b          	addiw	a5,a5,4
    80002c00:	006bc683          	lbu	a3,6(s7)
    80002c04:	00d787bb          	addw	a5,a5,a3
    80002c08:	007bc683          	lbu	a3,7(s7)
    80002c0c:	00d787bb          	addw	a5,a5,a3
    80002c10:	00e787bb          	addw	a5,a5,a4
    80002c14:	00f42823          	sw	a5,16(s0)
    80002c18:	005bc783          	lbu	a5,5(s7)
    80002c1c:	0047879b          	addiw	a5,a5,4
    80002c20:	006bc703          	lbu	a4,6(s7)
    80002c24:	00e787bb          	addw	a5,a5,a4
    80002c28:	007bc703          	lbu	a4,7(s7)
    80002c2c:	00e787bb          	addw	a5,a5,a4
    80002c30:	01c42703          	lw	a4,28(s0)
    80002c34:	00f707bb          	addw	a5,a4,a5
    80002c38:	00f42e23          	sw	a5,28(s0)
    80002c3c:	00c0006f          	j	80002c48 <lfs_dir_next+0x138>
    80002c40:	00cba023          	sw	a2,0(s7)
    80002c44:	ffe00493          	li	s1,-2
    80002c48:	00048513          	mv	a0,s1
    80002c4c:	04813083          	ld	ra,72(sp)
    80002c50:	04013403          	ld	s0,64(sp)
    80002c54:	03813483          	ld	s1,56(sp)
    80002c58:	03013903          	ld	s2,48(sp)
    80002c5c:	02813983          	ld	s3,40(sp)
    80002c60:	02013a03          	ld	s4,32(sp)
    80002c64:	01813a83          	ld	s5,24(sp)
    80002c68:	01013b03          	ld	s6,16(sp)
    80002c6c:	00813b83          	ld	s7,8(sp)
    80002c70:	05010113          	addi	sp,sp,80
    80002c74:	00008067          	ret

0000000080002c78 <lfs_moved>:
    80002c78:	f8010113          	addi	sp,sp,-128
    80002c7c:	06113c23          	sd	ra,120(sp)
    80002c80:	06813823          	sd	s0,112(sp)
    80002c84:	06913423          	sd	s1,104(sp)
    80002c88:	07213023          	sd	s2,96(sp)
    80002c8c:	05313c23          	sd	s3,88(sp)
    80002c90:	05413823          	sd	s4,80(sp)
    80002c94:	00852703          	lw	a4,8(a0)
    80002c98:	fff00793          	li	a5,-1
    80002c9c:	00000913          	li	s2,0
    80002ca0:	0af70863          	beq	a4,a5,80002d50 <lfs_moved+0xd8>
    80002ca4:	00050413          	mv	s0,a0
    80002ca8:	00058493          	mv	s1,a1
    80002cac:	00c52703          	lw	a4,12(a0)
    80002cb0:	00000913          	li	s2,0
    80002cb4:	08f70e63          	beq	a4,a5,80002d50 <lfs_moved+0xd8>
    80002cb8:	04012423          	sw	zero,72(sp)
    80002cbc:	00100793          	li	a5,1
    80002cc0:	04f12623          	sw	a5,76(sp)
    80002cc4:	04810613          	addi	a2,sp,72
    80002cc8:	01810593          	addi	a1,sp,24
    80002ccc:	c15ff0ef          	jal	ra,800028e0 <lfs_dir_fetch>
    80002cd0:	00050913          	mv	s2,a0
    80002cd4:	06051e63          	bnez	a0,80002d50 <lfs_moved+0xd8>
    80002cd8:	fff00a13          	li	s4,-1
    80002cdc:	ffe00993          	li	s3,-2
    80002ce0:	0380006f          	j	80002d18 <lfs_moved+0xa0>
    80002ce4:	00c10783          	lb	a5,12(sp)
    80002ce8:	0007cc63          	bltz	a5,80002d00 <lfs_moved+0x88>
    80002cec:	00800613          	li	a2,8
    80002cf0:	00048593          	mv	a1,s1
    80002cf4:	01010513          	addi	a0,sp,16
    80002cf8:	6e5030ef          	jal	ra,80006bdc <memcmp>
    80002cfc:	04050863          	beqz	a0,80002d4c <lfs_moved+0xd4>
    80002d00:	00810613          	addi	a2,sp,8
    80002d04:	01810593          	addi	a1,sp,24
    80002d08:	00040513          	mv	a0,s0
    80002d0c:	e05ff0ef          	jal	ra,80002b10 <lfs_dir_next>
    80002d10:	fc050ae3          	beqz	a0,80002ce4 <lfs_moved+0x6c>
    80002d14:	03351863          	bne	a0,s3,80002d44 <lfs_moved+0xcc>
    80002d18:	04012783          	lw	a5,64(sp)
    80002d1c:	03478a63          	beq	a5,s4,80002d50 <lfs_moved+0xd8>
    80002d20:	04412783          	lw	a5,68(sp)
    80002d24:	03478663          	beq	a5,s4,80002d50 <lfs_moved+0xd8>
    80002d28:	04010613          	addi	a2,sp,64
    80002d2c:	01810593          	addi	a1,sp,24
    80002d30:	00040513          	mv	a0,s0
    80002d34:	badff0ef          	jal	ra,800028e0 <lfs_dir_fetch>
    80002d38:	fc0504e3          	beqz	a0,80002d00 <lfs_moved+0x88>
    80002d3c:	00050913          	mv	s2,a0
    80002d40:	0100006f          	j	80002d50 <lfs_moved+0xd8>
    80002d44:	00050913          	mv	s2,a0
    80002d48:	0080006f          	j	80002d50 <lfs_moved+0xd8>
    80002d4c:	00100913          	li	s2,1
    80002d50:	00090513          	mv	a0,s2
    80002d54:	07813083          	ld	ra,120(sp)
    80002d58:	07013403          	ld	s0,112(sp)
    80002d5c:	06813483          	ld	s1,104(sp)
    80002d60:	06013903          	ld	s2,96(sp)
    80002d64:	05813983          	ld	s3,88(sp)
    80002d68:	05013a03          	ld	s4,80(sp)
    80002d6c:	08010113          	addi	sp,sp,128
    80002d70:	00008067          	ret

0000000080002d74 <lfs_parent>:
    80002d74:	00852703          	lw	a4,8(a0)
    80002d78:	fff00793          	li	a5,-1
    80002d7c:	0ef70063          	beq	a4,a5,80002e5c <lfs_parent+0xe8>
    80002d80:	fb010113          	addi	sp,sp,-80
    80002d84:	04113423          	sd	ra,72(sp)
    80002d88:	04813023          	sd	s0,64(sp)
    80002d8c:	02913c23          	sd	s1,56(sp)
    80002d90:	03213823          	sd	s2,48(sp)
    80002d94:	03313423          	sd	s3,40(sp)
    80002d98:	03413023          	sd	s4,32(sp)
    80002d9c:	01513c23          	sd	s5,24(sp)
    80002da0:	01613823          	sd	s6,16(sp)
    80002da4:	01713423          	sd	s7,8(sp)
    80002da8:	00050913          	mv	s2,a0
    80002dac:	00058993          	mv	s3,a1
    80002db0:	00060413          	mv	s0,a2
    80002db4:	00068493          	mv	s1,a3
    80002db8:	00c52703          	lw	a4,12(a0)
    80002dbc:	0af70463          	beq	a4,a5,80002e64 <lfs_parent+0xf0>
    80002dc0:	02062423          	sw	zero,40(a2)
    80002dc4:	00100793          	li	a5,1
    80002dc8:	02f62623          	sw	a5,44(a2)
    80002dcc:	fff00a93          	li	s5,-1
    80002dd0:	02860b93          	addi	s7,a2,40
    80002dd4:	02000a13          	li	s4,32
    80002dd8:	ffe00b13          	li	s6,-2
    80002ddc:	0280006f          	j	80002e04 <lfs_parent+0x90>
    80002de0:	0044c783          	lbu	a5,4(s1)
    80002de4:	0707f793          	andi	a5,a5,112
    80002de8:	05478263          	beq	a5,s4,80002e2c <lfs_parent+0xb8>
    80002dec:	00048613          	mv	a2,s1
    80002df0:	00040593          	mv	a1,s0
    80002df4:	00090513          	mv	a0,s2
    80002df8:	d19ff0ef          	jal	ra,80002b10 <lfs_dir_next>
    80002dfc:	fe0502e3          	beqz	a0,80002de0 <lfs_parent+0x6c>
    80002e00:	07651863          	bne	a0,s6,80002e70 <lfs_parent+0xfc>
    80002e04:	02842783          	lw	a5,40(s0)
    80002e08:	0b578263          	beq	a5,s5,80002eac <lfs_parent+0x138>
    80002e0c:	02c42783          	lw	a5,44(s0)
    80002e10:	05578263          	beq	a5,s5,80002e54 <lfs_parent+0xe0>
    80002e14:	000b8613          	mv	a2,s7
    80002e18:	00040593          	mv	a1,s0
    80002e1c:	00090513          	mv	a0,s2
    80002e20:	ac1ff0ef          	jal	ra,800028e0 <lfs_dir_fetch>
    80002e24:	fc0504e3          	beqz	a0,80002dec <lfs_parent+0x78>
    80002e28:	0480006f          	j	80002e70 <lfs_parent+0xfc>
    80002e2c:	0084a783          	lw	a5,8(s1)
    80002e30:	0009a703          	lw	a4,0(s3)
    80002e34:	02e78c63          	beq	a5,a4,80002e6c <lfs_parent+0xf8>
    80002e38:	00c4a603          	lw	a2,12(s1)
    80002e3c:	0049a683          	lw	a3,4(s3)
    80002e40:	04d60e63          	beq	a2,a3,80002e9c <lfs_parent+0x128>
    80002e44:	06d78063          	beq	a5,a3,80002ea4 <lfs_parent+0x130>
    80002e48:	fac712e3          	bne	a4,a2,80002dec <lfs_parent+0x78>
    80002e4c:	00100513          	li	a0,1
    80002e50:	0200006f          	j	80002e70 <lfs_parent+0xfc>
    80002e54:	00000513          	li	a0,0
    80002e58:	0180006f          	j	80002e70 <lfs_parent+0xfc>
    80002e5c:	00000513          	li	a0,0
    80002e60:	00008067          	ret
    80002e64:	00000513          	li	a0,0
    80002e68:	0080006f          	j	80002e70 <lfs_parent+0xfc>
    80002e6c:	00100513          	li	a0,1
    80002e70:	04813083          	ld	ra,72(sp)
    80002e74:	04013403          	ld	s0,64(sp)
    80002e78:	03813483          	ld	s1,56(sp)
    80002e7c:	03013903          	ld	s2,48(sp)
    80002e80:	02813983          	ld	s3,40(sp)
    80002e84:	02013a03          	ld	s4,32(sp)
    80002e88:	01813a83          	ld	s5,24(sp)
    80002e8c:	01013b03          	ld	s6,16(sp)
    80002e90:	00813b83          	ld	s7,8(sp)
    80002e94:	05010113          	addi	sp,sp,80
    80002e98:	00008067          	ret
    80002e9c:	00100513          	li	a0,1
    80002ea0:	fd1ff06f          	j	80002e70 <lfs_parent+0xfc>
    80002ea4:	00100513          	li	a0,1
    80002ea8:	fc9ff06f          	j	80002e70 <lfs_parent+0xfc>
    80002eac:	00000513          	li	a0,0
    80002eb0:	fc1ff06f          	j	80002e70 <lfs_parent+0xfc>

0000000080002eb4 <lfs_pred>:
    80002eb4:	fb010113          	addi	sp,sp,-80
    80002eb8:	04113423          	sd	ra,72(sp)
    80002ebc:	04813023          	sd	s0,64(sp)
    80002ec0:	02913c23          	sd	s1,56(sp)
    80002ec4:	03213823          	sd	s2,48(sp)
    80002ec8:	03313423          	sd	s3,40(sp)
    80002ecc:	03413023          	sd	s4,32(sp)
    80002ed0:	01513c23          	sd	s5,24(sp)
    80002ed4:	00852703          	lw	a4,8(a0)
    80002ed8:	fff00793          	li	a5,-1
    80002edc:	00000913          	li	s2,0
    80002ee0:	08f70663          	beq	a4,a5,80002f6c <lfs_pred+0xb8>
    80002ee4:	00050413          	mv	s0,a0
    80002ee8:	00058993          	mv	s3,a1
    80002eec:	00060493          	mv	s1,a2
    80002ef0:	00c52703          	lw	a4,12(a0)
    80002ef4:	00000913          	li	s2,0
    80002ef8:	06f70a63          	beq	a4,a5,80002f6c <lfs_pred+0xb8>
    80002efc:	00012423          	sw	zero,8(sp)
    80002f00:	00100793          	li	a5,1
    80002f04:	00f12623          	sw	a5,12(sp)
    80002f08:	00810613          	addi	a2,sp,8
    80002f0c:	00048593          	mv	a1,s1
    80002f10:	9d1ff0ef          	jal	ra,800028e0 <lfs_dir_fetch>
    80002f14:	00050913          	mv	s2,a0
    80002f18:	04051a63          	bnez	a0,80002f6c <lfs_pred+0xb8>
    80002f1c:	fff00a13          	li	s4,-1
    80002f20:	02848a93          	addi	s5,s1,40
    80002f24:	0284a783          	lw	a5,40(s1)
    80002f28:	05478263          	beq	a5,s4,80002f6c <lfs_pred+0xb8>
    80002f2c:	02c4a703          	lw	a4,44(s1)
    80002f30:	03470e63          	beq	a4,s4,80002f6c <lfs_pred+0xb8>
    80002f34:	0009a683          	lw	a3,0(s3)
    80002f38:	02f68863          	beq	a3,a5,80002f68 <lfs_pred+0xb4>
    80002f3c:	0049a603          	lw	a2,4(s3)
    80002f40:	04e60a63          	beq	a2,a4,80002f94 <lfs_pred+0xe0>
    80002f44:	04f60c63          	beq	a2,a5,80002f9c <lfs_pred+0xe8>
    80002f48:	04e68e63          	beq	a3,a4,80002fa4 <lfs_pred+0xf0>
    80002f4c:	000a8613          	mv	a2,s5
    80002f50:	00048593          	mv	a1,s1
    80002f54:	00040513          	mv	a0,s0
    80002f58:	989ff0ef          	jal	ra,800028e0 <lfs_dir_fetch>
    80002f5c:	fc0504e3          	beqz	a0,80002f24 <lfs_pred+0x70>
    80002f60:	00050913          	mv	s2,a0
    80002f64:	0080006f          	j	80002f6c <lfs_pred+0xb8>
    80002f68:	00100913          	li	s2,1
    80002f6c:	00090513          	mv	a0,s2
    80002f70:	04813083          	ld	ra,72(sp)
    80002f74:	04013403          	ld	s0,64(sp)
    80002f78:	03813483          	ld	s1,56(sp)
    80002f7c:	03013903          	ld	s2,48(sp)
    80002f80:	02813983          	ld	s3,40(sp)
    80002f84:	02013a03          	ld	s4,32(sp)
    80002f88:	01813a83          	ld	s5,24(sp)
    80002f8c:	05010113          	addi	sp,sp,80
    80002f90:	00008067          	ret
    80002f94:	00100913          	li	s2,1
    80002f98:	fd5ff06f          	j	80002f6c <lfs_pred+0xb8>
    80002f9c:	00100913          	li	s2,1
    80002fa0:	fcdff06f          	j	80002f6c <lfs_pred+0xb8>
    80002fa4:	00100913          	li	s2,1
    80002fa8:	fc5ff06f          	j	80002f6c <lfs_pred+0xb8>

0000000080002fac <lfs_cache_cmp>:
    80002fac:	0a080c63          	beqz	a6,80003064 <lfs_cache_cmp+0xb8>
    80002fb0:	fb010113          	addi	sp,sp,-80
    80002fb4:	04113423          	sd	ra,72(sp)
    80002fb8:	04813023          	sd	s0,64(sp)
    80002fbc:	02913c23          	sd	s1,56(sp)
    80002fc0:	03213823          	sd	s2,48(sp)
    80002fc4:	03313423          	sd	s3,40(sp)
    80002fc8:	03413023          	sd	s4,32(sp)
    80002fcc:	01513c23          	sd	s5,24(sp)
    80002fd0:	01613823          	sd	s6,16(sp)
    80002fd4:	00050993          	mv	s3,a0
    80002fd8:	00058a13          	mv	s4,a1
    80002fdc:	00060a93          	mv	s5,a2
    80002fe0:	00068b13          	mv	s6,a3
    80002fe4:	fff8049b          	addiw	s1,a6,-1
    80002fe8:	02049493          	slli	s1,s1,0x20
    80002fec:	0204d493          	srli	s1,s1,0x20
    80002ff0:	00148493          	addi	s1,s1,1
    80002ff4:	009784b3          	add	s1,a5,s1
    80002ff8:	00078413          	mv	s0,a5
    80002ffc:	40f7093b          	subw	s2,a4,a5
    80003000:	00100813          	li	a6,1
    80003004:	00f10793          	addi	a5,sp,15
    80003008:	0089073b          	addw	a4,s2,s0
    8000300c:	000b0693          	mv	a3,s6
    80003010:	000a8613          	mv	a2,s5
    80003014:	000a0593          	mv	a1,s4
    80003018:	00098513          	mv	a0,s3
    8000301c:	e94ff0ef          	jal	ra,800026b0 <lfs_cache_read>
    80003020:	00051e63          	bnez	a0,8000303c <lfs_cache_cmp+0x90>
    80003024:	00044703          	lbu	a4,0(s0)
    80003028:	00f14783          	lbu	a5,15(sp)
    8000302c:	00f71863          	bne	a4,a5,8000303c <lfs_cache_cmp+0x90>
    80003030:	00140413          	addi	s0,s0,1
    80003034:	fc9416e3          	bne	s0,s1,80003000 <lfs_cache_cmp+0x54>
    80003038:	00100513          	li	a0,1
    8000303c:	04813083          	ld	ra,72(sp)
    80003040:	04013403          	ld	s0,64(sp)
    80003044:	03813483          	ld	s1,56(sp)
    80003048:	03013903          	ld	s2,48(sp)
    8000304c:	02813983          	ld	s3,40(sp)
    80003050:	02013a03          	ld	s4,32(sp)
    80003054:	01813a83          	ld	s5,24(sp)
    80003058:	01013b03          	ld	s6,16(sp)
    8000305c:	05010113          	addi	sp,sp,80
    80003060:	00008067          	ret
    80003064:	00100513          	li	a0,1
    80003068:	00008067          	ret

000000008000306c <lfs_dir_find>:
    8000306c:	f7010113          	addi	sp,sp,-144
    80003070:	08113423          	sd	ra,136(sp)
    80003074:	08813023          	sd	s0,128(sp)
    80003078:	06913c23          	sd	s1,120(sp)
    8000307c:	07213823          	sd	s2,112(sp)
    80003080:	07313423          	sd	s3,104(sp)
    80003084:	07413023          	sd	s4,96(sp)
    80003088:	05513c23          	sd	s5,88(sp)
    8000308c:	05613823          	sd	s6,80(sp)
    80003090:	05713423          	sd	s7,72(sp)
    80003094:	05813023          	sd	s8,64(sp)
    80003098:	03913c23          	sd	s9,56(sp)
    8000309c:	03a13823          	sd	s10,48(sp)
    800030a0:	03b13423          	sd	s11,40(sp)
    800030a4:	00050a93          	mv	s5,a0
    800030a8:	00058b13          	mv	s6,a1
    800030ac:	00060913          	mv	s2,a2
    800030b0:	00d13823          	sd	a3,16(sp)
    800030b4:	0006bd83          	ld	s11,0(a3)
    800030b8:	02200793          	li	a5,34
    800030bc:	00f60223          	sb	a5,4(a2)
    800030c0:	00800793          	li	a5,8
    800030c4:	00f602a3          	sb	a5,5(a2)
    800030c8:	00060323          	sb	zero,6(a2)
    800030cc:	000603a3          	sb	zero,7(a2)
    800030d0:	00852783          	lw	a5,8(a0)
    800030d4:	00f62423          	sw	a5,8(a2)
    800030d8:	00c52783          	lw	a5,12(a0)
    800030dc:	00f62623          	sw	a5,12(a2)
    800030e0:	00004997          	auipc	s3,0x4
    800030e4:	18898993          	addi	s3,s3,392 # 80007268 <rtable.1941+0x40>
    800030e8:	00860793          	addi	a5,a2,8
    800030ec:	00f13c23          	sd	a5,24(sp)
    800030f0:	01100c93          	li	s9,17
    800030f4:	02050793          	addi	a5,a0,32
    800030f8:	00f13423          	sd	a5,8(sp)
    800030fc:	00098593          	mv	a1,s3
    80003100:	000d8513          	mv	a0,s11
    80003104:	6c1030ef          	jal	ra,80006fc4 <strspn>
    80003108:	00ad8d33          	add	s10,s11,a0
    8000310c:	00098593          	mv	a1,s3
    80003110:	000d0513          	mv	a0,s10
    80003114:	591030ef          	jal	ra,80006ea4 <strcspn>
    80003118:	00050c13          	mv	s8,a0
    8000311c:	00100793          	li	a5,1
    80003120:	02f50063          	beq	a0,a5,80003140 <lfs_dir_find+0xd4>
    80003124:	00200793          	li	a5,2
    80003128:	02f50463          	beq	a0,a5,80003150 <lfs_dir_find+0xe4>
    8000312c:	018d0db3          	add	s11,s10,s8
    80003130:	000d8493          	mv	s1,s11
    80003134:	00100a13          	li	s4,1
    80003138:	00200b93          	li	s7,2
    8000313c:	03c0006f          	j	80003178 <lfs_dir_find+0x10c>
    80003140:	000d4703          	lbu	a4,0(s10)
    80003144:	02e00793          	li	a5,46
    80003148:	fef712e3          	bne	a4,a5,8000312c <lfs_dir_find+0xc0>
    8000314c:	01c0006f          	j	80003168 <lfs_dir_find+0xfc>
    80003150:	00200613          	li	a2,2
    80003154:	00004597          	auipc	a1,0x4
    80003158:	11c58593          	addi	a1,a1,284 # 80007270 <rtable.1941+0x48>
    8000315c:	000d0513          	mv	a0,s10
    80003160:	27d030ef          	jal	ra,80006bdc <memcmp>
    80003164:	fc0514e3          	bnez	a0,8000312c <lfs_dir_find+0xc0>
    80003168:	018d0db3          	add	s11,s10,s8
    8000316c:	f91ff06f          	j	800030fc <lfs_dir_find+0x90>
    80003170:	001a0a1b          	addiw	s4,s4,1
    80003174:	008484b3          	add	s1,s1,s0
    80003178:	00098593          	mv	a1,s3
    8000317c:	00048513          	mv	a0,s1
    80003180:	645030ef          	jal	ra,80006fc4 <strspn>
    80003184:	00a484b3          	add	s1,s1,a0
    80003188:	00098593          	mv	a1,s3
    8000318c:	00048513          	mv	a0,s1
    80003190:	515030ef          	jal	ra,80006ea4 <strcspn>
    80003194:	00050413          	mv	s0,a0
    80003198:	02050863          	beqz	a0,800031c8 <lfs_dir_find+0x15c>
    8000319c:	fd751ae3          	bne	a0,s7,80003170 <lfs_dir_find+0x104>
    800031a0:	000b8613          	mv	a2,s7
    800031a4:	00004597          	auipc	a1,0x4
    800031a8:	0cc58593          	addi	a1,a1,204 # 80007270 <rtable.1941+0x48>
    800031ac:	00048513          	mv	a0,s1
    800031b0:	22d030ef          	jal	ra,80006bdc <memcmp>
    800031b4:	fa051ee3          	bnez	a0,80003170 <lfs_dir_find+0x104>
    800031b8:	fffa0a1b          	addiw	s4,s4,-1
    800031bc:	fa0a1ce3          	bnez	s4,80003174 <lfs_dir_find+0x108>
    800031c0:	00248d93          	addi	s11,s1,2
    800031c4:	f39ff06f          	j	800030fc <lfs_dir_find+0x90>
    800031c8:	000d4783          	lbu	a5,0(s10)
    800031cc:	0e078063          	beqz	a5,800032ac <lfs_dir_find+0x240>
    800031d0:	01013783          	ld	a5,16(sp)
    800031d4:	01a7b023          	sd	s10,0(a5)
    800031d8:	00494703          	lbu	a4,4(s2)
    800031dc:	02200793          	li	a5,34
    800031e0:	10f71663          	bne	a4,a5,800032ec <lfs_dir_find+0x280>
    800031e4:	01813603          	ld	a2,24(sp)
    800031e8:	000b0593          	mv	a1,s6
    800031ec:	000a8513          	mv	a0,s5
    800031f0:	ef0ff0ef          	jal	ra,800028e0 <lfs_dir_fetch>
    800031f4:	0a051e63          	bnez	a0,800032b0 <lfs_dir_find+0x244>
    800031f8:	000c049b          	sext.w	s1,s8
    800031fc:	02200413          	li	s0,34
    80003200:	00c0006f          	j	8000320c <lfs_dir_find+0x1a0>
    80003204:	00794783          	lbu	a5,7(s2)
    80003208:	03878663          	beq	a5,s8,80003234 <lfs_dir_find+0x1c8>
    8000320c:	00090613          	mv	a2,s2
    80003210:	000b0593          	mv	a1,s6
    80003214:	000a8513          	mv	a0,s5
    80003218:	8f9ff0ef          	jal	ra,80002b10 <lfs_dir_next>
    8000321c:	08051a63          	bnez	a0,800032b0 <lfs_dir_find+0x244>
    80003220:	00494783          	lbu	a5,4(s2)
    80003224:	07f7f793          	andi	a5,a5,127
    80003228:	fd978ee3          	beq	a5,s9,80003204 <lfs_dir_find+0x198>
    8000322c:	fc878ce3          	beq	a5,s0,80003204 <lfs_dir_find+0x198>
    80003230:	fddff06f          	j	8000320c <lfs_dir_find+0x1a0>
    80003234:	00092703          	lw	a4,0(s2)
    80003238:	0047071b          	addiw	a4,a4,4
    8000323c:	00594783          	lbu	a5,5(s2)
    80003240:	00f7073b          	addw	a4,a4,a5
    80003244:	00694683          	lbu	a3,6(s2)
    80003248:	00048813          	mv	a6,s1
    8000324c:	000d0793          	mv	a5,s10
    80003250:	00d7073b          	addw	a4,a4,a3
    80003254:	008b2683          	lw	a3,8(s6)
    80003258:	00000613          	li	a2,0
    8000325c:	00813583          	ld	a1,8(sp)
    80003260:	000a8513          	mv	a0,s5
    80003264:	d49ff0ef          	jal	ra,80002fac <lfs_cache_cmp>
    80003268:	04054463          	bltz	a0,800032b0 <lfs_dir_find+0x244>
    8000326c:	fa0500e3          	beqz	a0,8000320c <lfs_dir_find+0x1a0>
    80003270:	059ac783          	lbu	a5,89(s5)
    80003274:	e80794e3          	bnez	a5,800030fc <lfs_dir_find+0x90>
    80003278:	00490783          	lb	a5,4(s2)
    8000327c:	e807d0e3          	bgez	a5,800030fc <lfs_dir_find+0x90>
    80003280:	01813583          	ld	a1,24(sp)
    80003284:	000a8513          	mv	a0,s5
    80003288:	9f1ff0ef          	jal	ra,80002c78 <lfs_moved>
    8000328c:	00051a63          	bnez	a0,800032a0 <lfs_dir_find+0x234>
    80003290:	00494783          	lbu	a5,4(s2)
    80003294:	07f7f793          	andi	a5,a5,127
    80003298:	00f90223          	sb	a5,4(s2)
    8000329c:	e61ff06f          	j	800030fc <lfs_dir_find+0x90>
    800032a0:	00054863          	bltz	a0,800032b0 <lfs_dir_find+0x244>
    800032a4:	ffe00513          	li	a0,-2
    800032a8:	0080006f          	j	800032b0 <lfs_dir_find+0x244>
    800032ac:	00000513          	li	a0,0
    800032b0:	08813083          	ld	ra,136(sp)
    800032b4:	08013403          	ld	s0,128(sp)
    800032b8:	07813483          	ld	s1,120(sp)
    800032bc:	07013903          	ld	s2,112(sp)
    800032c0:	06813983          	ld	s3,104(sp)
    800032c4:	06013a03          	ld	s4,96(sp)
    800032c8:	05813a83          	ld	s5,88(sp)
    800032cc:	05013b03          	ld	s6,80(sp)
    800032d0:	04813b83          	ld	s7,72(sp)
    800032d4:	04013c03          	ld	s8,64(sp)
    800032d8:	03813c83          	ld	s9,56(sp)
    800032dc:	03013d03          	ld	s10,48(sp)
    800032e0:	02813d83          	ld	s11,40(sp)
    800032e4:	09010113          	addi	sp,sp,144
    800032e8:	00008067          	ret
    800032ec:	fec00513          	li	a0,-20
    800032f0:	fc1ff06f          	j	800032b0 <lfs_dir_find+0x244>

00000000800032f4 <lfs_ctz_traverse>:
    800032f4:	00071663          	bnez	a4,80003300 <lfs_ctz_traverse+0xc>
    800032f8:	00000513          	li	a0,0
    800032fc:	00008067          	ret
    80003300:	f9010113          	addi	sp,sp,-112
    80003304:	06113423          	sd	ra,104(sp)
    80003308:	06813023          	sd	s0,96(sp)
    8000330c:	04913c23          	sd	s1,88(sp)
    80003310:	05213823          	sd	s2,80(sp)
    80003314:	05313423          	sd	s3,72(sp)
    80003318:	05413023          	sd	s4,64(sp)
    8000331c:	03513c23          	sd	s5,56(sp)
    80003320:	03613823          	sd	s6,48(sp)
    80003324:	03713423          	sd	s7,40(sp)
    80003328:	03813023          	sd	s8,32(sp)
    8000332c:	01913c23          	sd	s9,24(sp)
    80003330:	01a13823          	sd	s10,16(sp)
    80003334:	00050a93          	mv	s5,a0
    80003338:	00058b93          	mv	s7,a1
    8000333c:	00060c13          	mv	s8,a2
    80003340:	00068413          	mv	s0,a3
    80003344:	00078913          	mv	s2,a5
    80003348:	00080993          	mv	s3,a6
    8000334c:	fff7071b          	addiw	a4,a4,-1
    80003350:	00e12623          	sw	a4,12(sp)
    80003354:	00c10593          	addi	a1,sp,12
    80003358:	a74ff0ef          	jal	ra,800025cc <lfs_ctz_index>
    8000335c:	00050b1b          	sext.w	s6,a0
    80003360:	00200d13          	li	s10,2
    80003364:	00040593          	mv	a1,s0
    80003368:	00098513          	mv	a0,s3
    8000336c:	000900e7          	jalr	s2
    80003370:	0e051663          	bnez	a0,8000345c <lfs_ctz_traverse+0x168>
    80003374:	0e0b0463          	beqz	s6,8000345c <lfs_ctz_traverse+0x168>
    80003378:	001b7c93          	andi	s9,s6,1
    8000337c:	419d0a3b          	subw	s4,s10,s9
    80003380:	002a181b          	slliw	a6,s4,0x2
    80003384:	00010793          	mv	a5,sp
    80003388:	00000713          	li	a4,0
    8000338c:	00040693          	mv	a3,s0
    80003390:	000c0613          	mv	a2,s8
    80003394:	000b8593          	mv	a1,s7
    80003398:	000a8513          	mv	a0,s5
    8000339c:	b14ff0ef          	jal	ra,800026b0 <lfs_cache_read>
    800033a0:	00050413          	mv	s0,a0
    800033a4:	00012703          	lw	a4,0(sp)
    800033a8:	00875793          	srli	a5,a4,0x8
    800033ac:	0ff7f793          	andi	a5,a5,255
    800033b0:	0087979b          	slliw	a5,a5,0x8
    800033b4:	01075693          	srli	a3,a4,0x10
    800033b8:	0ff6f693          	andi	a3,a3,255
    800033bc:	0106969b          	slliw	a3,a3,0x10
    800033c0:	00d7e7b3          	or	a5,a5,a3
    800033c4:	0ff77693          	andi	a3,a4,255
    800033c8:	00d7e7b3          	or	a5,a5,a3
    800033cc:	0187571b          	srliw	a4,a4,0x18
    800033d0:	0187171b          	slliw	a4,a4,0x18
    800033d4:	00e7e7b3          	or	a5,a5,a4
    800033d8:	00f12023          	sw	a5,0(sp)
    800033dc:	00412703          	lw	a4,4(sp)
    800033e0:	00875793          	srli	a5,a4,0x8
    800033e4:	0ff7f793          	andi	a5,a5,255
    800033e8:	0087979b          	slliw	a5,a5,0x8
    800033ec:	01075693          	srli	a3,a4,0x10
    800033f0:	0ff6f693          	andi	a3,a3,255
    800033f4:	0106969b          	slliw	a3,a3,0x10
    800033f8:	00d7e7b3          	or	a5,a5,a3
    800033fc:	0ff77693          	andi	a3,a4,255
    80003400:	00d7e7b3          	or	a5,a5,a3
    80003404:	0187571b          	srliw	a4,a4,0x18
    80003408:	0187171b          	slliw	a4,a4,0x18
    8000340c:	00e7e7b3          	or	a5,a5,a4
    80003410:	00f12223          	sw	a5,4(sp)
    80003414:	04051463          	bnez	a0,8000345c <lfs_ctz_traverse+0x168>
    80003418:	fffa0a1b          	addiw	s4,s4,-1
    8000341c:	03405263          	blez	s4,80003440 <lfs_ctz_traverse+0x14c>
    80003420:	00010493          	mv	s1,sp
    80003424:	0004a583          	lw	a1,0(s1)
    80003428:	00098513          	mv	a0,s3
    8000342c:	000900e7          	jalr	s2
    80003430:	02051663          	bnez	a0,8000345c <lfs_ctz_traverse+0x168>
    80003434:	0014041b          	addiw	s0,s0,1
    80003438:	00448493          	addi	s1,s1,4
    8000343c:	fe8054e3          	blez	s0,80003424 <lfs_ctz_traverse+0x130>
    80003440:	002a1a13          	slli	s4,s4,0x2
    80003444:	01010793          	addi	a5,sp,16
    80003448:	01478a33          	add	s4,a5,s4
    8000344c:	ff0a2403          	lw	s0,-16(s4) # ffffffff7ffffff0 <_sp+0xfffffffef0fffff0>
    80003450:	ffec8c9b          	addiw	s9,s9,-2
    80003454:	016c8b3b          	addw	s6,s9,s6
    80003458:	f0dff06f          	j	80003364 <lfs_ctz_traverse+0x70>
    8000345c:	06813083          	ld	ra,104(sp)
    80003460:	06013403          	ld	s0,96(sp)
    80003464:	05813483          	ld	s1,88(sp)
    80003468:	05013903          	ld	s2,80(sp)
    8000346c:	04813983          	ld	s3,72(sp)
    80003470:	04013a03          	ld	s4,64(sp)
    80003474:	03813a83          	ld	s5,56(sp)
    80003478:	03013b03          	ld	s6,48(sp)
    8000347c:	02813b83          	ld	s7,40(sp)
    80003480:	02013c03          	ld	s8,32(sp)
    80003484:	01813c83          	ld	s9,24(sp)
    80003488:	01013d03          	ld	s10,16(sp)
    8000348c:	07010113          	addi	sp,sp,112
    80003490:	00008067          	ret

0000000080003494 <lfs_cache_flush>:
    80003494:	fd010113          	addi	sp,sp,-48
    80003498:	02113423          	sd	ra,40(sp)
    8000349c:	02813023          	sd	s0,32(sp)
    800034a0:	00913c23          	sd	s1,24(sp)
    800034a4:	01213823          	sd	s2,16(sp)
    800034a8:	01313423          	sd	s3,8(sp)
    800034ac:	00058413          	mv	s0,a1
    800034b0:	0005a583          	lw	a1,0(a1)
    800034b4:	fff00793          	li	a5,-1
    800034b8:	00000493          	li	s1,0
    800034bc:	06f58c63          	beq	a1,a5,80003534 <lfs_cache_flush+0xa0>
    800034c0:	00050993          	mv	s3,a0
    800034c4:	00060913          	mv	s2,a2
    800034c8:	00053503          	ld	a0,0(a0)
    800034cc:	01053783          	ld	a5,16(a0)
    800034d0:	02c52703          	lw	a4,44(a0)
    800034d4:	00843683          	ld	a3,8(s0)
    800034d8:	00442603          	lw	a2,4(s0)
    800034dc:	000780e7          	jalr	a5
    800034e0:	00050493          	mv	s1,a0
    800034e4:	04051863          	bnez	a0,80003534 <lfs_cache_flush+0xa0>
    800034e8:	02090863          	beqz	s2,80003518 <lfs_cache_flush+0x84>
    800034ec:	0009b783          	ld	a5,0(s3)
    800034f0:	02c7a803          	lw	a6,44(a5)
    800034f4:	00843783          	ld	a5,8(s0)
    800034f8:	00442703          	lw	a4,4(s0)
    800034fc:	00042683          	lw	a3,0(s0)
    80003500:	00000613          	li	a2,0
    80003504:	00090593          	mv	a1,s2
    80003508:	00098513          	mv	a0,s3
    8000350c:	aa1ff0ef          	jal	ra,80002fac <lfs_cache_cmp>
    80003510:	04054263          	bltz	a0,80003554 <lfs_cache_flush+0xc0>
    80003514:	04050463          	beqz	a0,8000355c <lfs_cache_flush+0xc8>
    80003518:	0009b783          	ld	a5,0(s3)
    8000351c:	02c7e603          	lwu	a2,44(a5)
    80003520:	0ff00593          	li	a1,255
    80003524:	00843503          	ld	a0,8(s0)
    80003528:	951fd0ef          	jal	ra,80000e78 <memset>
    8000352c:	fff00793          	li	a5,-1
    80003530:	00f42023          	sw	a5,0(s0)
    80003534:	00048513          	mv	a0,s1
    80003538:	02813083          	ld	ra,40(sp)
    8000353c:	02013403          	ld	s0,32(sp)
    80003540:	01813483          	ld	s1,24(sp)
    80003544:	01013903          	ld	s2,16(sp)
    80003548:	00813983          	ld	s3,8(sp)
    8000354c:	03010113          	addi	sp,sp,48
    80003550:	00008067          	ret
    80003554:	00050493          	mv	s1,a0
    80003558:	fddff06f          	j	80003534 <lfs_cache_flush+0xa0>
    8000355c:	fcc00493          	li	s1,-52
    80003560:	fd5ff06f          	j	80003534 <lfs_cache_flush+0xa0>

0000000080003564 <lfs_cache_prog>:
    80003564:	fb010113          	addi	sp,sp,-80
    80003568:	04113423          	sd	ra,72(sp)
    8000356c:	04813023          	sd	s0,64(sp)
    80003570:	02913c23          	sd	s1,56(sp)
    80003574:	03213823          	sd	s2,48(sp)
    80003578:	03313423          	sd	s3,40(sp)
    8000357c:	03413023          	sd	s4,32(sp)
    80003580:	01513c23          	sd	s5,24(sp)
    80003584:	01613823          	sd	s6,16(sp)
    80003588:	01713423          	sd	s7,8(sp)
    8000358c:	01813023          	sd	s8,0(sp)
    80003590:	00050a13          	mv	s4,a0
    80003594:	00058913          	mv	s2,a1
    80003598:	00060b13          	mv	s6,a2
    8000359c:	00068993          	mv	s3,a3
    800035a0:	00070493          	mv	s1,a4
    800035a4:	00078a93          	mv	s5,a5
    800035a8:	00080413          	mv	s0,a6
    800035ac:	0a081c63          	bnez	a6,80003664 <lfs_cache_prog+0x100>
    800035b0:	00000513          	li	a0,0
    800035b4:	1400006f          	j	800036f4 <lfs_cache_prog+0x190>
    800035b8:	00492783          	lw	a5,4(s2)
    800035bc:	0af4e863          	bltu	s1,a5,8000366c <lfs_cache_prog+0x108>
    800035c0:	000a3703          	ld	a4,0(s4)
    800035c4:	02c72703          	lw	a4,44(a4)
    800035c8:	00f7073b          	addw	a4,a4,a5
    800035cc:	0007069b          	sext.w	a3,a4
    800035d0:	08d4fe63          	bgeu	s1,a3,8000366c <lfs_cache_prog+0x108>
    800035d4:	4097073b          	subw	a4,a4,s1
    800035d8:	00070b93          	mv	s7,a4
    800035dc:	0007071b          	sext.w	a4,a4
    800035e0:	00e47463          	bgeu	s0,a4,800035e8 <lfs_cache_prog+0x84>
    800035e4:	00040b93          	mv	s7,s0
    800035e8:	020b9c13          	slli	s8,s7,0x20
    800035ec:	020c5c13          	srli	s8,s8,0x20
    800035f0:	40f487bb          	subw	a5,s1,a5
    800035f4:	02079793          	slli	a5,a5,0x20
    800035f8:	0207d793          	srli	a5,a5,0x20
    800035fc:	00893503          	ld	a0,8(s2)
    80003600:	000c0613          	mv	a2,s8
    80003604:	000a8593          	mv	a1,s5
    80003608:	00f50533          	add	a0,a0,a5
    8000360c:	648030ef          	jal	ra,80006c54 <memcpy>
    80003610:	018a8ab3          	add	s5,s5,s8
    80003614:	009b87bb          	addw	a5,s7,s1
    80003618:	0007849b          	sext.w	s1,a5
    8000361c:	4174043b          	subw	s0,s0,s7
    80003620:	000a3703          	ld	a4,0(s4)
    80003624:	02c72703          	lw	a4,44(a4)
    80003628:	02e7f7bb          	remuw	a5,a5,a4
    8000362c:	02079a63          	bnez	a5,80003660 <lfs_cache_prog+0xfc>
    80003630:	000b0613          	mv	a2,s6
    80003634:	00090593          	mv	a1,s2
    80003638:	000a0513          	mv	a0,s4
    8000363c:	e59ff0ef          	jal	ra,80003494 <lfs_cache_flush>
    80003640:	0a051a63          	bnez	a0,800036f4 <lfs_cache_prog+0x190>
    80003644:	01c0006f          	j	80003660 <lfs_cache_prog+0xfc>
    80003648:	01392023          	sw	s3,0(s2)
    8000364c:	000a3783          	ld	a5,0(s4)
    80003650:	02c7a883          	lw	a7,44(a5)
    80003654:	0314f8bb          	remuw	a7,s1,a7
    80003658:	411488bb          	subw	a7,s1,a7
    8000365c:	01192223          	sw	a7,4(s2)
    80003660:	08040863          	beqz	s0,800036f0 <lfs_cache_prog+0x18c>
    80003664:	00092783          	lw	a5,0(s2)
    80003668:	f53788e3          	beq	a5,s3,800035b8 <lfs_cache_prog+0x54>
    8000366c:	000a3503          	ld	a0,0(s4)
    80003670:	02c52883          	lw	a7,44(a0)
    80003674:	0314f7bb          	remuw	a5,s1,a7
    80003678:	fc0798e3          	bnez	a5,80003648 <lfs_cache_prog+0xe4>
    8000367c:	fd1466e3          	bltu	s0,a7,80003648 <lfs_cache_prog+0xe4>
    80003680:	031478bb          	remuw	a7,s0,a7
    80003684:	00088b9b          	sext.w	s7,a7
    80003688:	4114043b          	subw	s0,s0,a7
    8000368c:	00040c1b          	sext.w	s8,s0
    80003690:	01053783          	ld	a5,16(a0)
    80003694:	000c0713          	mv	a4,s8
    80003698:	000a8693          	mv	a3,s5
    8000369c:	00048613          	mv	a2,s1
    800036a0:	00098593          	mv	a1,s3
    800036a4:	000780e7          	jalr	a5
    800036a8:	04051663          	bnez	a0,800036f4 <lfs_cache_prog+0x190>
    800036ac:	020b0663          	beqz	s6,800036d8 <lfs_cache_prog+0x174>
    800036b0:	000c0813          	mv	a6,s8
    800036b4:	000a8793          	mv	a5,s5
    800036b8:	00048713          	mv	a4,s1
    800036bc:	00098693          	mv	a3,s3
    800036c0:	00000613          	li	a2,0
    800036c4:	000b0593          	mv	a1,s6
    800036c8:	000a0513          	mv	a0,s4
    800036cc:	8e1ff0ef          	jal	ra,80002fac <lfs_cache_cmp>
    800036d0:	02054263          	bltz	a0,800036f4 <lfs_cache_prog+0x190>
    800036d4:	04050863          	beqz	a0,80003724 <lfs_cache_prog+0x1c0>
    800036d8:	02041793          	slli	a5,s0,0x20
    800036dc:	0207d793          	srli	a5,a5,0x20
    800036e0:	00fa8ab3          	add	s5,s5,a5
    800036e4:	009404bb          	addw	s1,s0,s1
    800036e8:	000b8413          	mv	s0,s7
    800036ec:	f75ff06f          	j	80003660 <lfs_cache_prog+0xfc>
    800036f0:	00000513          	li	a0,0
    800036f4:	04813083          	ld	ra,72(sp)
    800036f8:	04013403          	ld	s0,64(sp)
    800036fc:	03813483          	ld	s1,56(sp)
    80003700:	03013903          	ld	s2,48(sp)
    80003704:	02813983          	ld	s3,40(sp)
    80003708:	02013a03          	ld	s4,32(sp)
    8000370c:	01813a83          	ld	s5,24(sp)
    80003710:	01013b03          	ld	s6,16(sp)
    80003714:	00813b83          	ld	s7,8(sp)
    80003718:	00013c03          	ld	s8,0(sp)
    8000371c:	05010113          	addi	sp,sp,80
    80003720:	00008067          	ret
    80003724:	fcc00513          	li	a0,-52
    80003728:	fcdff06f          	j	800036f4 <lfs_cache_prog+0x190>

000000008000372c <lfs_deinit>:
    8000372c:	ff010113          	addi	sp,sp,-16
    80003730:	00113423          	sd	ra,8(sp)
    80003734:	00813023          	sd	s0,0(sp)
    80003738:	00050413          	mv	s0,a0
    8000373c:	00053783          	ld	a5,0(a0)
    80003740:	0407b783          	ld	a5,64(a5)
    80003744:	02078663          	beqz	a5,80003770 <lfs_deinit+0x44>
    80003748:	00043783          	ld	a5,0(s0)
    8000374c:	0487b783          	ld	a5,72(a5)
    80003750:	02078663          	beqz	a5,8000377c <lfs_deinit+0x50>
    80003754:	00043783          	ld	a5,0(s0)
    80003758:	0507b783          	ld	a5,80(a5)
    8000375c:	02078663          	beqz	a5,80003788 <lfs_deinit+0x5c>
    80003760:	00813083          	ld	ra,8(sp)
    80003764:	00013403          	ld	s0,0(sp)
    80003768:	01010113          	addi	sp,sp,16
    8000376c:	00008067          	ret
    80003770:	02853503          	ld	a0,40(a0)
    80003774:	458030ef          	jal	ra,80006bcc <free>
    80003778:	fd1ff06f          	j	80003748 <lfs_deinit+0x1c>
    8000377c:	03843503          	ld	a0,56(s0)
    80003780:	44c030ef          	jal	ra,80006bcc <free>
    80003784:	fd1ff06f          	j	80003754 <lfs_deinit+0x28>
    80003788:	05043503          	ld	a0,80(s0)
    8000378c:	440030ef          	jal	ra,80006bcc <free>
    80003790:	fd1ff06f          	j	80003760 <lfs_deinit+0x34>

0000000080003794 <lfs_init>:
    80003794:	fe010113          	addi	sp,sp,-32
    80003798:	00113c23          	sd	ra,24(sp)
    8000379c:	00813823          	sd	s0,16(sp)
    800037a0:	00913423          	sd	s1,8(sp)
    800037a4:	00050413          	mv	s0,a0
    800037a8:	00058493          	mv	s1,a1
    800037ac:	00b53023          	sd	a1,0(a0)
    800037b0:	0405b783          	ld	a5,64(a1)
    800037b4:	06078a63          	beqz	a5,80003828 <lfs_init+0x94>
    800037b8:	02f53423          	sd	a5,40(a0)
    800037bc:	0484b783          	ld	a5,72(s1)
    800037c0:	08078463          	beqz	a5,80003848 <lfs_init+0xb4>
    800037c4:	02f43c23          	sd	a5,56(s0)
    800037c8:	02c4e603          	lwu	a2,44(s1)
    800037cc:	0ff00593          	li	a1,255
    800037d0:	03843503          	ld	a0,56(s0)
    800037d4:	ea4fd0ef          	jal	ra,80000e78 <memset>
    800037d8:	fff00793          	li	a5,-1
    800037dc:	02f42823          	sw	a5,48(s0)
    800037e0:	02f42023          	sw	a5,32(s0)
    800037e4:	00043703          	ld	a4,0(s0)
    800037e8:	05073783          	ld	a5,80(a4)
    800037ec:	06078863          	beqz	a5,8000385c <lfs_init+0xc8>
    800037f0:	04f43823          	sd	a5,80(s0)
    800037f4:	fff00793          	li	a5,-1
    800037f8:	00f42423          	sw	a5,8(s0)
    800037fc:	00f42623          	sw	a5,12(s0)
    80003800:	00043823          	sd	zero,16(s0)
    80003804:	00043c23          	sd	zero,24(s0)
    80003808:	04040c23          	sb	zero,88(s0)
    8000380c:	04040ca3          	sb	zero,89(s0)
    80003810:	00000513          	li	a0,0
    80003814:	01813083          	ld	ra,24(sp)
    80003818:	01013403          	ld	s0,16(sp)
    8000381c:	00813483          	ld	s1,8(sp)
    80003820:	02010113          	addi	sp,sp,32
    80003824:	00008067          	ret
    80003828:	0285e503          	lwu	a0,40(a1)
    8000382c:	390030ef          	jal	ra,80006bbc <malloc>
    80003830:	02a43423          	sd	a0,40(s0)
    80003834:	f80514e3          	bnez	a0,800037bc <lfs_init+0x28>
    80003838:	00040513          	mv	a0,s0
    8000383c:	ef1ff0ef          	jal	ra,8000372c <lfs_deinit>
    80003840:	ff400513          	li	a0,-12
    80003844:	fd1ff06f          	j	80003814 <lfs_init+0x80>
    80003848:	02c4e503          	lwu	a0,44(s1)
    8000384c:	370030ef          	jal	ra,80006bbc <malloc>
    80003850:	02a43c23          	sd	a0,56(s0)
    80003854:	f6051ae3          	bnez	a0,800037c8 <lfs_init+0x34>
    80003858:	fe1ff06f          	j	80003838 <lfs_init+0xa4>
    8000385c:	03872503          	lw	a0,56(a4)
    80003860:	0035551b          	srliw	a0,a0,0x3
    80003864:	358030ef          	jal	ra,80006bbc <malloc>
    80003868:	04a43823          	sd	a0,80(s0)
    8000386c:	f80514e3          	bnez	a0,800037f4 <lfs_init+0x60>
    80003870:	fc9ff06f          	j	80003838 <lfs_init+0xa4>

0000000080003874 <lfs_ctz_find>:
    80003874:	f7010113          	addi	sp,sp,-144
    80003878:	08113423          	sd	ra,136(sp)
    8000387c:	08813023          	sd	s0,128(sp)
    80003880:	06913c23          	sd	s1,120(sp)
    80003884:	07213823          	sd	s2,112(sp)
    80003888:	07313423          	sd	s3,104(sp)
    8000388c:	07413023          	sd	s4,96(sp)
    80003890:	05513c23          	sd	s5,88(sp)
    80003894:	05613823          	sd	s6,80(sp)
    80003898:	05713423          	sd	s7,72(sp)
    8000389c:	05813023          	sd	s8,64(sp)
    800038a0:	03913c23          	sd	s9,56(sp)
    800038a4:	03a13823          	sd	s10,48(sp)
    800038a8:	03b13423          	sd	s11,40(sp)
    800038ac:	00080d93          	mv	s11,a6
    800038b0:	01113023          	sd	a7,0(sp)
    800038b4:	00d12623          	sw	a3,12(sp)
    800038b8:	00f12423          	sw	a5,8(sp)
    800038bc:	04071863          	bnez	a4,8000390c <lfs_ctz_find+0x98>
    800038c0:	fff00793          	li	a5,-1
    800038c4:	00f82023          	sw	a5,0(a6)
    800038c8:	0008a023          	sw	zero,0(a7)
    800038cc:	00000513          	li	a0,0
    800038d0:	08813083          	ld	ra,136(sp)
    800038d4:	08013403          	ld	s0,128(sp)
    800038d8:	07813483          	ld	s1,120(sp)
    800038dc:	07013903          	ld	s2,112(sp)
    800038e0:	06813983          	ld	s3,104(sp)
    800038e4:	06013a03          	ld	s4,96(sp)
    800038e8:	05813a83          	ld	s5,88(sp)
    800038ec:	05013b03          	ld	s6,80(sp)
    800038f0:	04813b83          	ld	s7,72(sp)
    800038f4:	04013c03          	ld	s8,64(sp)
    800038f8:	03813c83          	ld	s9,56(sp)
    800038fc:	03013d03          	ld	s10,48(sp)
    80003900:	02813d83          	ld	s11,40(sp)
    80003904:	09010113          	addi	sp,sp,144
    80003908:	00008067          	ret
    8000390c:	00050b93          	mv	s7,a0
    80003910:	00058c13          	mv	s8,a1
    80003914:	00060c93          	mv	s9,a2
    80003918:	fff7071b          	addiw	a4,a4,-1
    8000391c:	00e12e23          	sw	a4,28(sp)
    80003920:	01c10593          	addi	a1,sp,28
    80003924:	ca9fe0ef          	jal	ra,800025cc <lfs_ctz_index>
    80003928:	0005041b          	sext.w	s0,a0
    8000392c:	00810593          	addi	a1,sp,8
    80003930:	000b8513          	mv	a0,s7
    80003934:	c99fe0ef          	jal	ra,800025cc <lfs_ctz_index>
    80003938:	0005091b          	sext.w	s2,a0
    8000393c:	16897663          	bgeu	s2,s0,80003aa8 <lfs_ctz_find+0x234>
    80003940:	00010b37          	lui	s6,0x10
    80003944:	0ff00a93          	li	s5,255
    80003948:	00f00a13          	li	s4,15
    8000394c:	00300993          	li	s3,3
    80003950:	00100d13          	li	s10,1
    80003954:	0700006f          	j	800039c4 <lfs_ctz_find+0x150>
    80003958:	0007049b          	sext.w	s1,a4
    8000395c:	00400813          	li	a6,4
    80003960:	00c10793          	addi	a5,sp,12
    80003964:	0027171b          	slliw	a4,a4,0x2
    80003968:	00c12683          	lw	a3,12(sp)
    8000396c:	000c8613          	mv	a2,s9
    80003970:	000c0593          	mv	a1,s8
    80003974:	000b8513          	mv	a0,s7
    80003978:	d39fe0ef          	jal	ra,800026b0 <lfs_cache_read>
    8000397c:	00c12703          	lw	a4,12(sp)
    80003980:	00875793          	srli	a5,a4,0x8
    80003984:	0ff7f793          	andi	a5,a5,255
    80003988:	0087979b          	slliw	a5,a5,0x8
    8000398c:	01075693          	srli	a3,a4,0x10
    80003990:	0ff6f693          	andi	a3,a3,255
    80003994:	0106969b          	slliw	a3,a3,0x10
    80003998:	00d7e7b3          	or	a5,a5,a3
    8000399c:	0ff77693          	andi	a3,a4,255
    800039a0:	00d7e7b3          	or	a5,a5,a3
    800039a4:	0187571b          	srliw	a4,a4,0x18
    800039a8:	0187171b          	slliw	a4,a4,0x18
    800039ac:	00e7e7b3          	or	a5,a5,a4
    800039b0:	00f12623          	sw	a5,12(sp)
    800039b4:	f0051ee3          	bnez	a0,800038d0 <lfs_ctz_find+0x5c>
    800039b8:	009d14bb          	sllw	s1,s10,s1
    800039bc:	4094043b          	subw	s0,s0,s1
    800039c0:	0e897463          	bgeu	s2,s0,80003aa8 <lfs_ctz_find+0x234>
    800039c4:	4124073b          	subw	a4,s0,s2
    800039c8:	0007079b          	sext.w	a5,a4
    800039cc:	0167b7b3          	sltu	a5,a5,s6
    800039d0:	0017c793          	xori	a5,a5,1
    800039d4:	02079793          	slli	a5,a5,0x20
    800039d8:	0207d793          	srli	a5,a5,0x20
    800039dc:	00479793          	slli	a5,a5,0x4
    800039e0:	00f7573b          	srlw	a4,a4,a5
    800039e4:	0007069b          	sext.w	a3,a4
    800039e8:	00dab6b3          	sltu	a3,s5,a3
    800039ec:	00369693          	slli	a3,a3,0x3
    800039f0:	00d7573b          	srlw	a4,a4,a3
    800039f4:	0007061b          	sext.w	a2,a4
    800039f8:	00d7e7b3          	or	a5,a5,a3
    800039fc:	00ca3633          	sltu	a2,s4,a2
    80003a00:	00261613          	slli	a2,a2,0x2
    80003a04:	00c7573b          	srlw	a4,a4,a2
    80003a08:	0007069b          	sext.w	a3,a4
    80003a0c:	00c7e7b3          	or	a5,a5,a2
    80003a10:	00d9b6b3          	sltu	a3,s3,a3
    80003a14:	00169693          	slli	a3,a3,0x1
    80003a18:	00d7573b          	srlw	a4,a4,a3
    80003a1c:	0017571b          	srliw	a4,a4,0x1
    80003a20:	00d7e7b3          	or	a5,a5,a3
    80003a24:	00e7e7b3          	or	a5,a5,a4
    80003a28:	0007879b          	sext.w	a5,a5
    80003a2c:	4080063b          	negw	a2,s0
    80003a30:	00c47633          	and	a2,s0,a2
    80003a34:	0006061b          	sext.w	a2,a2
    80003a38:	01663733          	sltu	a4,a2,s6
    80003a3c:	00174713          	xori	a4,a4,1
    80003a40:	02071713          	slli	a4,a4,0x20
    80003a44:	02075713          	srli	a4,a4,0x20
    80003a48:	00471713          	slli	a4,a4,0x4
    80003a4c:	00e6563b          	srlw	a2,a2,a4
    80003a50:	0006059b          	sext.w	a1,a2
    80003a54:	00bab5b3          	sltu	a1,s5,a1
    80003a58:	00359593          	slli	a1,a1,0x3
    80003a5c:	00b6563b          	srlw	a2,a2,a1
    80003a60:	0006069b          	sext.w	a3,a2
    80003a64:	00b76733          	or	a4,a4,a1
    80003a68:	00da36b3          	sltu	a3,s4,a3
    80003a6c:	00269693          	slli	a3,a3,0x2
    80003a70:	00d6563b          	srlw	a2,a2,a3
    80003a74:	0006059b          	sext.w	a1,a2
    80003a78:	00d766b3          	or	a3,a4,a3
    80003a7c:	00b9b733          	sltu	a4,s3,a1
    80003a80:	00171713          	slli	a4,a4,0x1
    80003a84:	00e6563b          	srlw	a2,a2,a4
    80003a88:	0016561b          	srliw	a2,a2,0x1
    80003a8c:	00e6e6b3          	or	a3,a3,a4
    80003a90:	00c6e6b3          	or	a3,a3,a2
    80003a94:	00068713          	mv	a4,a3
    80003a98:	0006869b          	sext.w	a3,a3
    80003a9c:	ead7fee3          	bgeu	a5,a3,80003958 <lfs_ctz_find+0xe4>
    80003aa0:	00078713          	mv	a4,a5
    80003aa4:	eb5ff06f          	j	80003958 <lfs_ctz_find+0xe4>
    80003aa8:	00c12783          	lw	a5,12(sp)
    80003aac:	00fda023          	sw	a5,0(s11)
    80003ab0:	00812783          	lw	a5,8(sp)
    80003ab4:	00013703          	ld	a4,0(sp)
    80003ab8:	00f72023          	sw	a5,0(a4)
    80003abc:	00000513          	li	a0,0
    80003ac0:	e11ff06f          	j	800038d0 <lfs_ctz_find+0x5c>

0000000080003ac4 <lfs_dir_open>:
    80003ac4:	fc010113          	addi	sp,sp,-64
    80003ac8:	02113c23          	sd	ra,56(sp)
    80003acc:	02813823          	sd	s0,48(sp)
    80003ad0:	02913423          	sd	s1,40(sp)
    80003ad4:	00050493          	mv	s1,a0
    80003ad8:	00058413          	mv	s0,a1
    80003adc:	00c13423          	sd	a2,8(sp)
    80003ae0:	00852783          	lw	a5,8(a0)
    80003ae4:	00f5a423          	sw	a5,8(a1)
    80003ae8:	00c52783          	lw	a5,12(a0)
    80003aec:	00f5a623          	sw	a5,12(a1)
    80003af0:	00810693          	addi	a3,sp,8
    80003af4:	01010613          	addi	a2,sp,16
    80003af8:	d74ff0ef          	jal	ra,8000306c <lfs_dir_find>
    80003afc:	04051863          	bnez	a0,80003b4c <lfs_dir_open+0x88>
    80003b00:	01414703          	lbu	a4,20(sp)
    80003b04:	02200793          	li	a5,34
    80003b08:	04f71c63          	bne	a4,a5,80003b60 <lfs_dir_open+0x9c>
    80003b0c:	01810613          	addi	a2,sp,24
    80003b10:	00040593          	mv	a1,s0
    80003b14:	00048513          	mv	a0,s1
    80003b18:	dc9fe0ef          	jal	ra,800028e0 <lfs_dir_fetch>
    80003b1c:	02051863          	bnez	a0,80003b4c <lfs_dir_open+0x88>
    80003b20:	00842783          	lw	a5,8(s0)
    80003b24:	00f42a23          	sw	a5,20(s0)
    80003b28:	00c42783          	lw	a5,12(s0)
    80003b2c:	00f42c23          	sw	a5,24(s0)
    80003b30:	00e00793          	li	a5,14
    80003b34:	00f42e23          	sw	a5,28(s0)
    80003b38:	01000793          	li	a5,16
    80003b3c:	00f42823          	sw	a5,16(s0)
    80003b40:	0184b783          	ld	a5,24(s1)
    80003b44:	00f43023          	sd	a5,0(s0)
    80003b48:	0084bc23          	sd	s0,24(s1)
    80003b4c:	03813083          	ld	ra,56(sp)
    80003b50:	03013403          	ld	s0,48(sp)
    80003b54:	02813483          	ld	s1,40(sp)
    80003b58:	04010113          	addi	sp,sp,64
    80003b5c:	00008067          	ret
    80003b60:	fec00513          	li	a0,-20
    80003b64:	fe9ff06f          	j	80003b4c <lfs_dir_open+0x88>

0000000080003b68 <lfs_dir_close>:
    80003b68:	01853783          	ld	a5,24(a0)
    80003b6c:	02078063          	beqz	a5,80003b8c <lfs_dir_close+0x24>
    80003b70:	02f58263          	beq	a1,a5,80003b94 <lfs_dir_close+0x2c>
    80003b74:	00078713          	mv	a4,a5
    80003b78:	0007b783          	ld	a5,0(a5)
    80003b7c:	00078863          	beqz	a5,80003b8c <lfs_dir_close+0x24>
    80003b80:	fef59ae3          	bne	a1,a5,80003b74 <lfs_dir_close+0xc>
    80003b84:	0005b783          	ld	a5,0(a1)
    80003b88:	00f73023          	sd	a5,0(a4)
    80003b8c:	00000513          	li	a0,0
    80003b90:	00008067          	ret
    80003b94:	01850713          	addi	a4,a0,24
    80003b98:	fedff06f          	j	80003b84 <lfs_dir_close+0x1c>

0000000080003b9c <lfs_dir_read>:
    80003b9c:	fc010113          	addi	sp,sp,-64
    80003ba0:	02113c23          	sd	ra,56(sp)
    80003ba4:	02813823          	sd	s0,48(sp)
    80003ba8:	02913423          	sd	s1,40(sp)
    80003bac:	03213023          	sd	s2,32(sp)
    80003bb0:	01313c23          	sd	s3,24(sp)
    80003bb4:	01413823          	sd	s4,16(sp)
    80003bb8:	00050493          	mv	s1,a0
    80003bbc:	00058413          	mv	s0,a1
    80003bc0:	00060913          	mv	s2,a2
    80003bc4:	10800613          	li	a2,264
    80003bc8:	00000593          	li	a1,0
    80003bcc:	00090513          	mv	a0,s2
    80003bd0:	aa8fd0ef          	jal	ra,80000e78 <memset>
    80003bd4:	01c42783          	lw	a5,28(s0)
    80003bd8:	00e00713          	li	a4,14
    80003bdc:	0ce78463          	beq	a5,a4,80003ca4 <lfs_dir_read+0x108>
    80003be0:	00f00713          	li	a4,15
    80003be4:	0ee78463          	beq	a5,a4,80003ccc <lfs_dir_read+0x130>
    80003be8:	01100993          	li	s3,17
    80003bec:	02200a13          	li	s4,34
    80003bf0:	00010613          	mv	a2,sp
    80003bf4:	00040593          	mv	a1,s0
    80003bf8:	00048513          	mv	a0,s1
    80003bfc:	f15fe0ef          	jal	ra,80002b10 <lfs_dir_next>
    80003c00:	0e051c63          	bnez	a0,80003cf8 <lfs_dir_read+0x15c>
    80003c04:	00414783          	lbu	a5,4(sp)
    80003c08:	07f7f713          	andi	a4,a5,127
    80003c0c:	01370463          	beq	a4,s3,80003c14 <lfs_dir_read+0x78>
    80003c10:	ff4710e3          	bne	a4,s4,80003bf0 <lfs_dir_read+0x54>
    80003c14:	0187979b          	slliw	a5,a5,0x18
    80003c18:	4187d79b          	sraiw	a5,a5,0x18
    80003c1c:	0207d263          	bgez	a5,80003c40 <lfs_dir_read+0xa4>
    80003c20:	00810593          	addi	a1,sp,8
    80003c24:	00048513          	mv	a0,s1
    80003c28:	850ff0ef          	jal	ra,80002c78 <lfs_moved>
    80003c2c:	04054c63          	bltz	a0,80003c84 <lfs_dir_read+0xe8>
    80003c30:	fc0510e3          	bnez	a0,80003bf0 <lfs_dir_read+0x54>
    80003c34:	00414783          	lbu	a5,4(sp)
    80003c38:	07f7f793          	andi	a5,a5,127
    80003c3c:	00f10223          	sb	a5,4(sp)
    80003c40:	00414783          	lbu	a5,4(sp)
    80003c44:	00f90023          	sb	a5,0(s2)
    80003c48:	01100713          	li	a4,17
    80003c4c:	0ae78e63          	beq	a5,a4,80003d08 <lfs_dir_read+0x16c>
    80003c50:	00012783          	lw	a5,0(sp)
    80003c54:	0047879b          	addiw	a5,a5,4
    80003c58:	00514603          	lbu	a2,5(sp)
    80003c5c:	00c787bb          	addw	a5,a5,a2
    80003c60:	00614603          	lbu	a2,6(sp)
    80003c64:	00714703          	lbu	a4,7(sp)
    80003c68:	00890693          	addi	a3,s2,8
    80003c6c:	00c7863b          	addw	a2,a5,a2
    80003c70:	00842583          	lw	a1,8(s0)
    80003c74:	00048513          	mv	a0,s1
    80003c78:	c39fe0ef          	jal	ra,800028b0 <lfs_bd_read>
    80003c7c:	00051463          	bnez	a0,80003c84 <lfs_dir_read+0xe8>
    80003c80:	00100513          	li	a0,1
    80003c84:	03813083          	ld	ra,56(sp)
    80003c88:	03013403          	ld	s0,48(sp)
    80003c8c:	02813483          	ld	s1,40(sp)
    80003c90:	02013903          	ld	s2,32(sp)
    80003c94:	01813983          	ld	s3,24(sp)
    80003c98:	01013a03          	ld	s4,16(sp)
    80003c9c:	04010113          	addi	sp,sp,64
    80003ca0:	00008067          	ret
    80003ca4:	02200793          	li	a5,34
    80003ca8:	00f90023          	sb	a5,0(s2)
    80003cac:	02e00793          	li	a5,46
    80003cb0:	00f90423          	sb	a5,8(s2)
    80003cb4:	000904a3          	sb	zero,9(s2)
    80003cb8:	01c42783          	lw	a5,28(s0)
    80003cbc:	0017879b          	addiw	a5,a5,1
    80003cc0:	00f42e23          	sw	a5,28(s0)
    80003cc4:	00100513          	li	a0,1
    80003cc8:	fbdff06f          	j	80003c84 <lfs_dir_read+0xe8>
    80003ccc:	02200793          	li	a5,34
    80003cd0:	00f90023          	sb	a5,0(s2)
    80003cd4:	02e00713          	li	a4,46
    80003cd8:	00e90423          	sb	a4,8(s2)
    80003cdc:	00e904a3          	sb	a4,9(s2)
    80003ce0:	00090523          	sb	zero,10(s2)
    80003ce4:	01c42783          	lw	a5,28(s0)
    80003ce8:	0017879b          	addiw	a5,a5,1
    80003cec:	00f42e23          	sw	a5,28(s0)
    80003cf0:	00100513          	li	a0,1
    80003cf4:	f91ff06f          	j	80003c84 <lfs_dir_read+0xe8>
    80003cf8:	ffe00793          	li	a5,-2
    80003cfc:	f8f514e3          	bne	a0,a5,80003c84 <lfs_dir_read+0xe8>
    80003d00:	00000513          	li	a0,0
    80003d04:	f81ff06f          	j	80003c84 <lfs_dir_read+0xe8>
    80003d08:	00c12783          	lw	a5,12(sp)
    80003d0c:	00f92223          	sw	a5,4(s2)
    80003d10:	f41ff06f          	j	80003c50 <lfs_dir_read+0xb4>

0000000080003d14 <lfs_dir_tell>:
    80003d14:	01c5a503          	lw	a0,28(a1)
    80003d18:	00008067          	ret

0000000080003d1c <lfs_dir_rewind>:
    80003d1c:	ff010113          	addi	sp,sp,-16
    80003d20:	00113423          	sd	ra,8(sp)
    80003d24:	00813023          	sd	s0,0(sp)
    80003d28:	00058413          	mv	s0,a1
    80003d2c:	01458613          	addi	a2,a1,20
    80003d30:	bb1fe0ef          	jal	ra,800028e0 <lfs_dir_fetch>
    80003d34:	02051263          	bnez	a0,80003d58 <lfs_dir_rewind+0x3c>
    80003d38:	01442783          	lw	a5,20(s0)
    80003d3c:	00f42423          	sw	a5,8(s0)
    80003d40:	01842783          	lw	a5,24(s0)
    80003d44:	00f42623          	sw	a5,12(s0)
    80003d48:	00e00793          	li	a5,14
    80003d4c:	00f42e23          	sw	a5,28(s0)
    80003d50:	01000793          	li	a5,16
    80003d54:	00f42823          	sw	a5,16(s0)
    80003d58:	00813083          	ld	ra,8(sp)
    80003d5c:	00013403          	ld	s0,0(sp)
    80003d60:	01010113          	addi	sp,sp,16
    80003d64:	00008067          	ret

0000000080003d68 <lfs_dir_seek>:
    80003d68:	fc010113          	addi	sp,sp,-64
    80003d6c:	02113c23          	sd	ra,56(sp)
    80003d70:	02813823          	sd	s0,48(sp)
    80003d74:	02913423          	sd	s1,40(sp)
    80003d78:	03213023          	sd	s2,32(sp)
    80003d7c:	01313c23          	sd	s3,24(sp)
    80003d80:	01413823          	sd	s4,16(sp)
    80003d84:	01513423          	sd	s5,8(sp)
    80003d88:	00050913          	mv	s2,a0
    80003d8c:	00058493          	mv	s1,a1
    80003d90:	00060413          	mv	s0,a2
    80003d94:	f89ff0ef          	jal	ra,80003d1c <lfs_dir_rewind>
    80003d98:	00050a93          	mv	s5,a0
    80003d9c:	04051463          	bnez	a0,80003de4 <lfs_dir_seek+0x7c>
    80003da0:	0084ae23          	sw	s0,28(s1)
    80003da4:	800009b7          	lui	s3,0x80000
    80003da8:	fff9c993          	not	s3,s3
    80003dac:	02848a13          	addi	s4,s1,40
    80003db0:	0244a703          	lw	a4,36(s1)
    80003db4:	013777b3          	and	a5,a4,s3
    80003db8:	0287f463          	bgeu	a5,s0,80003de0 <lfs_dir_seek+0x78>
    80003dbc:	40f4043b          	subw	s0,s0,a5
    80003dc0:	04075663          	bgez	a4,80003e0c <lfs_dir_seek+0xa4>
    80003dc4:	000a0613          	mv	a2,s4
    80003dc8:	00048593          	mv	a1,s1
    80003dcc:	00090513          	mv	a0,s2
    80003dd0:	b11fe0ef          	jal	ra,800028e0 <lfs_dir_fetch>
    80003dd4:	fc050ee3          	beqz	a0,80003db0 <lfs_dir_seek+0x48>
    80003dd8:	00050a93          	mv	s5,a0
    80003ddc:	0080006f          	j	80003de4 <lfs_dir_seek+0x7c>
    80003de0:	0084a823          	sw	s0,16(s1)
    80003de4:	000a8513          	mv	a0,s5
    80003de8:	03813083          	ld	ra,56(sp)
    80003dec:	03013403          	ld	s0,48(sp)
    80003df0:	02813483          	ld	s1,40(sp)
    80003df4:	02013903          	ld	s2,32(sp)
    80003df8:	01813983          	ld	s3,24(sp)
    80003dfc:	01013a03          	ld	s4,16(sp)
    80003e00:	00813a83          	ld	s5,8(sp)
    80003e04:	04010113          	addi	sp,sp,64
    80003e08:	00008067          	ret
    80003e0c:	fea00a93          	li	s5,-22
    80003e10:	fd5ff06f          	j	80003de4 <lfs_dir_seek+0x7c>

0000000080003e14 <lfs_file_tell>:
    80003e14:	02c5a503          	lw	a0,44(a1)
    80003e18:	00008067          	ret

0000000080003e1c <lfs_file_size>:
    80003e1c:	0285a783          	lw	a5,40(a1)
    80003e20:	02e79713          	slli	a4,a5,0x2e
    80003e24:	02075263          	bgez	a4,80003e48 <lfs_file_size+0x2c>
    80003e28:	0185a783          	lw	a5,24(a1)
    80003e2c:	02c5a503          	lw	a0,44(a1)
    80003e30:	0005069b          	sext.w	a3,a0
    80003e34:	0007871b          	sext.w	a4,a5
    80003e38:	00e6f463          	bgeu	a3,a4,80003e40 <lfs_file_size+0x24>
    80003e3c:	00078513          	mv	a0,a5
    80003e40:	0005051b          	sext.w	a0,a0
    80003e44:	00008067          	ret
    80003e48:	0185a503          	lw	a0,24(a1)
    80003e4c:	00008067          	ret

0000000080003e50 <lfs_stat>:
    80003e50:	f9010113          	addi	sp,sp,-112
    80003e54:	06113423          	sd	ra,104(sp)
    80003e58:	06813023          	sd	s0,96(sp)
    80003e5c:	04913c23          	sd	s1,88(sp)
    80003e60:	05213823          	sd	s2,80(sp)
    80003e64:	00050913          	mv	s2,a0
    80003e68:	00b13423          	sd	a1,8(sp)
    80003e6c:	00060493          	mv	s1,a2
    80003e70:	00810693          	addi	a3,sp,8
    80003e74:	01010613          	addi	a2,sp,16
    80003e78:	02010593          	addi	a1,sp,32
    80003e7c:	9f0ff0ef          	jal	ra,8000306c <lfs_dir_find>
    80003e80:	00050413          	mv	s0,a0
    80003e84:	02050063          	beqz	a0,80003ea4 <lfs_stat+0x54>
    80003e88:	00040513          	mv	a0,s0
    80003e8c:	06813083          	ld	ra,104(sp)
    80003e90:	06013403          	ld	s0,96(sp)
    80003e94:	05813483          	ld	s1,88(sp)
    80003e98:	05013903          	ld	s2,80(sp)
    80003e9c:	07010113          	addi	sp,sp,112
    80003ea0:	00008067          	ret
    80003ea4:	10800613          	li	a2,264
    80003ea8:	00000593          	li	a1,0
    80003eac:	00048513          	mv	a0,s1
    80003eb0:	fc9fc0ef          	jal	ra,80000e78 <memset>
    80003eb4:	01414783          	lbu	a5,20(sp)
    80003eb8:	00f48023          	sb	a5,0(s1)
    80003ebc:	01100713          	li	a4,17
    80003ec0:	04e78c63          	beq	a5,a4,80003f18 <lfs_stat+0xc8>
    80003ec4:	01812783          	lw	a5,24(sp)
    80003ec8:	00892703          	lw	a4,8(s2)
    80003ecc:	04e78c63          	beq	a5,a4,80003f24 <lfs_stat+0xd4>
    80003ed0:	01c12603          	lw	a2,28(sp)
    80003ed4:	00c92683          	lw	a3,12(s2)
    80003ed8:	04d60663          	beq	a2,a3,80003f24 <lfs_stat+0xd4>
    80003edc:	04d78463          	beq	a5,a3,80003f24 <lfs_stat+0xd4>
    80003ee0:	04c70263          	beq	a4,a2,80003f24 <lfs_stat+0xd4>
    80003ee4:	01012783          	lw	a5,16(sp)
    80003ee8:	0047879b          	addiw	a5,a5,4
    80003eec:	01514603          	lbu	a2,21(sp)
    80003ef0:	00c787bb          	addw	a5,a5,a2
    80003ef4:	01614603          	lbu	a2,22(sp)
    80003ef8:	01714703          	lbu	a4,23(sp)
    80003efc:	00848693          	addi	a3,s1,8
    80003f00:	00c7863b          	addw	a2,a5,a2
    80003f04:	02812583          	lw	a1,40(sp)
    80003f08:	00090513          	mv	a0,s2
    80003f0c:	9a5fe0ef          	jal	ra,800028b0 <lfs_bd_read>
    80003f10:	00050413          	mv	s0,a0
    80003f14:	f75ff06f          	j	80003e88 <lfs_stat+0x38>
    80003f18:	01c12783          	lw	a5,28(sp)
    80003f1c:	00f4a223          	sw	a5,4(s1)
    80003f20:	fa5ff06f          	j	80003ec4 <lfs_stat+0x74>
    80003f24:	02f00793          	li	a5,47
    80003f28:	00f48423          	sb	a5,8(s1)
    80003f2c:	000484a3          	sb	zero,9(s1)
    80003f30:	f59ff06f          	j	80003e88 <lfs_stat+0x38>

0000000080003f34 <lfs_mount>:
    80003f34:	f7010113          	addi	sp,sp,-144
    80003f38:	08113423          	sd	ra,136(sp)
    80003f3c:	08813023          	sd	s0,128(sp)
    80003f40:	06913c23          	sd	s1,120(sp)
    80003f44:	07213823          	sd	s2,112(sp)
    80003f48:	07313423          	sd	s3,104(sp)
    80003f4c:	00050913          	mv	s2,a0
    80003f50:	845ff0ef          	jal	ra,80003794 <lfs_init>
    80003f54:	00050413          	mv	s0,a0
    80003f58:	02050263          	beqz	a0,80003f7c <lfs_mount+0x48>
    80003f5c:	00040513          	mv	a0,s0
    80003f60:	08813083          	ld	ra,136(sp)
    80003f64:	08013403          	ld	s0,128(sp)
    80003f68:	07813483          	ld	s1,120(sp)
    80003f6c:	07013903          	ld	s2,112(sp)
    80003f70:	06813983          	ld	s3,104(sp)
    80003f74:	09010113          	addi	sp,sp,144
    80003f78:	00008067          	ret
    80003f7c:	04092023          	sw	zero,64(s2)
    80003f80:	04092223          	sw	zero,68(s2)
    80003f84:	04092423          	sw	zero,72(s2)
    80003f88:	00093783          	ld	a5,0(s2)
    80003f8c:	0347a783          	lw	a5,52(a5)
    80003f90:	04f92623          	sw	a5,76(s2)
    80003f94:	04012c23          	sw	zero,88(sp)
    80003f98:	00100793          	li	a5,1
    80003f9c:	04f12e23          	sw	a5,92(sp)
    80003fa0:	05810613          	addi	a2,sp,88
    80003fa4:	02810593          	addi	a1,sp,40
    80003fa8:	00090513          	mv	a0,s2
    80003fac:	935fe0ef          	jal	ra,800028e0 <lfs_dir_fetch>
    80003fb0:	00050413          	mv	s0,a0
    80003fb4:	18051863          	bnez	a0,80004144 <lfs_mount+0x210>
    80003fb8:	02000713          	li	a4,32
    80003fbc:	00410693          	addi	a3,sp,4
    80003fc0:	01000613          	li	a2,16
    80003fc4:	03012583          	lw	a1,48(sp)
    80003fc8:	00090513          	mv	a0,s2
    80003fcc:	8e5fe0ef          	jal	ra,800028b0 <lfs_bd_read>
    80003fd0:	00050413          	mv	s0,a0
    80003fd4:	00812783          	lw	a5,8(sp)
    80003fd8:	0087d693          	srli	a3,a5,0x8
    80003fdc:	0ff6f693          	andi	a3,a3,255
    80003fe0:	0086969b          	slliw	a3,a3,0x8
    80003fe4:	0107d713          	srli	a4,a5,0x10
    80003fe8:	0ff77713          	andi	a4,a4,255
    80003fec:	0107171b          	slliw	a4,a4,0x10
    80003ff0:	00e6e6b3          	or	a3,a3,a4
    80003ff4:	0ff7f713          	andi	a4,a5,255
    80003ff8:	00e6e6b3          	or	a3,a3,a4
    80003ffc:	0187d79b          	srliw	a5,a5,0x18
    80004000:	0187979b          	slliw	a5,a5,0x18
    80004004:	00f6e6b3          	or	a3,a3,a5
    80004008:	0006869b          	sext.w	a3,a3
    8000400c:	00d12423          	sw	a3,8(sp)
    80004010:	00c12703          	lw	a4,12(sp)
    80004014:	00875793          	srli	a5,a4,0x8
    80004018:	0ff7f793          	andi	a5,a5,255
    8000401c:	0087979b          	slliw	a5,a5,0x8
    80004020:	01075613          	srli	a2,a4,0x10
    80004024:	0ff67613          	andi	a2,a2,255
    80004028:	0106161b          	slliw	a2,a2,0x10
    8000402c:	00c7e7b3          	or	a5,a5,a2
    80004030:	0ff77613          	andi	a2,a4,255
    80004034:	00c7e7b3          	or	a5,a5,a2
    80004038:	0187571b          	srliw	a4,a4,0x18
    8000403c:	0187171b          	slliw	a4,a4,0x18
    80004040:	00e7e7b3          	or	a5,a5,a4
    80004044:	0007879b          	sext.w	a5,a5
    80004048:	00f12623          	sw	a5,12(sp)
    8000404c:	01012603          	lw	a2,16(sp)
    80004050:	00865713          	srli	a4,a2,0x8
    80004054:	0ff77713          	andi	a4,a4,255
    80004058:	0087171b          	slliw	a4,a4,0x8
    8000405c:	01065593          	srli	a1,a2,0x10
    80004060:	0ff5f593          	andi	a1,a1,255
    80004064:	0105959b          	slliw	a1,a1,0x10
    80004068:	00b76733          	or	a4,a4,a1
    8000406c:	0ff67593          	andi	a1,a2,255
    80004070:	00b76733          	or	a4,a4,a1
    80004074:	0186561b          	srliw	a2,a2,0x18
    80004078:	0186161b          	slliw	a2,a2,0x18
    8000407c:	00c76733          	or	a4,a4,a2
    80004080:	00e12823          	sw	a4,16(sp)
    80004084:	01412603          	lw	a2,20(sp)
    80004088:	00865713          	srli	a4,a2,0x8
    8000408c:	0ff77713          	andi	a4,a4,255
    80004090:	0087171b          	slliw	a4,a4,0x8
    80004094:	01065593          	srli	a1,a2,0x10
    80004098:	0ff5f593          	andi	a1,a1,255
    8000409c:	0105959b          	slliw	a1,a1,0x10
    800040a0:	00b76733          	or	a4,a4,a1
    800040a4:	0ff67593          	andi	a1,a2,255
    800040a8:	00b76733          	or	a4,a4,a1
    800040ac:	0186561b          	srliw	a2,a2,0x18
    800040b0:	0186161b          	slliw	a2,a2,0x18
    800040b4:	00c76733          	or	a4,a4,a2
    800040b8:	00e12a23          	sw	a4,20(sp)
    800040bc:	01812703          	lw	a4,24(sp)
    800040c0:	00875493          	srli	s1,a4,0x8
    800040c4:	0ff4f493          	andi	s1,s1,255
    800040c8:	0084949b          	slliw	s1,s1,0x8
    800040cc:	01075613          	srli	a2,a4,0x10
    800040d0:	0ff67613          	andi	a2,a2,255
    800040d4:	0106161b          	slliw	a2,a2,0x10
    800040d8:	00c4e4b3          	or	s1,s1,a2
    800040dc:	0ff77613          	andi	a2,a4,255
    800040e0:	00c4e4b3          	or	s1,s1,a2
    800040e4:	0187571b          	srliw	a4,a4,0x18
    800040e8:	0187171b          	slliw	a4,a4,0x18
    800040ec:	00e4e4b3          	or	s1,s1,a4
    800040f0:	0004899b          	sext.w	s3,s1
    800040f4:	01312c23          	sw	s3,24(sp)
    800040f8:	04051663          	bnez	a0,80004144 <lfs_mount+0x210>
    800040fc:	00d92423          	sw	a3,8(s2)
    80004100:	00f92623          	sw	a5,12(s2)
    80004104:	00800613          	li	a2,8
    80004108:	00003597          	auipc	a1,0x3
    8000410c:	17058593          	addi	a1,a1,368 # 80007278 <rtable.1941+0x50>
    80004110:	01c10513          	addi	a0,sp,28
    80004114:	2c9020ef          	jal	ra,80006bdc <memcmp>
    80004118:	00050413          	mv	s0,a0
    8000411c:	02051263          	bnez	a0,80004140 <lfs_mount+0x20c>
    80004120:	0109d49b          	srliw	s1,s3,0x10
    80004124:	00100793          	li	a5,1
    80004128:	02f49463          	bne	s1,a5,80004150 <lfs_mount+0x21c>
    8000412c:	03099993          	slli	s3,s3,0x30
    80004130:	0309d993          	srli	s3,s3,0x30
    80004134:	e337f4e3          	bgeu	a5,s3,80003f5c <lfs_mount+0x28>
    80004138:	fea00413          	li	s0,-22
    8000413c:	0080006f          	j	80004144 <lfs_mount+0x210>
    80004140:	fcc00413          	li	s0,-52
    80004144:	00090513          	mv	a0,s2
    80004148:	de4ff0ef          	jal	ra,8000372c <lfs_deinit>
    8000414c:	e11ff06f          	j	80003f5c <lfs_mount+0x28>
    80004150:	fea00413          	li	s0,-22
    80004154:	ff1ff06f          	j	80004144 <lfs_mount+0x210>

0000000080004158 <lfs_unmount>:
    80004158:	ff010113          	addi	sp,sp,-16
    8000415c:	00113423          	sd	ra,8(sp)
    80004160:	dccff0ef          	jal	ra,8000372c <lfs_deinit>
    80004164:	00000513          	li	a0,0
    80004168:	00813083          	ld	ra,8(sp)
    8000416c:	01010113          	addi	sp,sp,16
    80004170:	00008067          	ret

0000000080004174 <lfs_traverse>:
    80004174:	f6010113          	addi	sp,sp,-160
    80004178:	08113c23          	sd	ra,152(sp)
    8000417c:	08813823          	sd	s0,144(sp)
    80004180:	08913423          	sd	s1,136(sp)
    80004184:	09213023          	sd	s2,128(sp)
    80004188:	07313c23          	sd	s3,120(sp)
    8000418c:	07413823          	sd	s4,112(sp)
    80004190:	07513423          	sd	s5,104(sp)
    80004194:	07613023          	sd	s6,96(sp)
    80004198:	05713c23          	sd	s7,88(sp)
    8000419c:	05813823          	sd	s8,80(sp)
    800041a0:	00852703          	lw	a4,8(a0)
    800041a4:	fff00793          	li	a5,-1
    800041a8:	00000b93          	li	s7,0
    800041ac:	1ef70463          	beq	a4,a5,80004394 <lfs_traverse+0x220>
    800041b0:	00050413          	mv	s0,a0
    800041b4:	00058993          	mv	s3,a1
    800041b8:	00060a13          	mv	s4,a2
    800041bc:	00c52703          	lw	a4,12(a0)
    800041c0:	1cf70463          	beq	a4,a5,80004388 <lfs_traverse+0x214>
    800041c4:	00012423          	sw	zero,8(sp)
    800041c8:	00100793          	li	a5,1
    800041cc:	00f12623          	sw	a5,12(sp)
    800041d0:	800004b7          	lui	s1,0x80000
    800041d4:	fff4c493          	not	s1,s1
    800041d8:	01000913          	li	s2,16
    800041dc:	00812583          	lw	a1,8(sp)
    800041e0:	000a0513          	mv	a0,s4
    800041e4:	000980e7          	jalr	s3 # ffffffff80000000 <_sp+0xfffffffef1000000>
    800041e8:	00050b93          	mv	s7,a0
    800041ec:	1a051463          	bnez	a0,80004394 <lfs_traverse+0x220>
    800041f0:	00c12583          	lw	a1,12(sp)
    800041f4:	000a0513          	mv	a0,s4
    800041f8:	000980e7          	jalr	s3
    800041fc:	00050b93          	mv	s7,a0
    80004200:	18051a63          	bnez	a0,80004394 <lfs_traverse+0x220>
    80004204:	00810613          	addi	a2,sp,8
    80004208:	02010593          	addi	a1,sp,32
    8000420c:	00040513          	mv	a0,s0
    80004210:	ed0fe0ef          	jal	ra,800028e0 <lfs_dir_fetch>
    80004214:	00050a93          	mv	s5,a0
    80004218:	16051c63          	bnez	a0,80004390 <lfs_traverse+0x21c>
    8000421c:	02040b13          	addi	s6,s0,32
    80004220:	03012603          	lw	a2,48(sp)
    80004224:	02061713          	slli	a4,a2,0x20
    80004228:	02075713          	srli	a4,a4,0x20
    8000422c:	00c70713          	addi	a4,a4,12
    80004230:	04412783          	lw	a5,68(sp)
    80004234:	0097f7b3          	and	a5,a5,s1
    80004238:	ffc7879b          	addiw	a5,a5,-4
    8000423c:	02079793          	slli	a5,a5,0x20
    80004240:	0207d793          	srli	a5,a5,0x20
    80004244:	08e7e263          	bltu	a5,a4,800042c8 <lfs_traverse+0x154>
    80004248:	00c00713          	li	a4,12
    8000424c:	01410693          	addi	a3,sp,20
    80004250:	02812583          	lw	a1,40(sp)
    80004254:	00040513          	mv	a0,s0
    80004258:	e58fe0ef          	jal	ra,800028b0 <lfs_bd_read>
    8000425c:	00050b93          	mv	s7,a0
    80004260:	01410513          	addi	a0,sp,20
    80004264:	a80fe0ef          	jal	ra,800024e4 <lfs_entry_fromle32>
    80004268:	120b9663          	bnez	s7,80004394 <lfs_traverse+0x220>
    8000426c:	01514783          	lbu	a5,21(sp)
    80004270:	0047879b          	addiw	a5,a5,4
    80004274:	01614703          	lbu	a4,22(sp)
    80004278:	00e787bb          	addw	a5,a5,a4
    8000427c:	01714703          	lbu	a4,23(sp)
    80004280:	00e787bb          	addw	a5,a5,a4
    80004284:	03012703          	lw	a4,48(sp)
    80004288:	00f707bb          	addw	a5,a4,a5
    8000428c:	02f12823          	sw	a5,48(sp)
    80004290:	01414783          	lbu	a5,20(sp)
    80004294:	0707f793          	andi	a5,a5,112
    80004298:	f92794e3          	bne	a5,s2,80004220 <lfs_traverse+0xac>
    8000429c:	000a0813          	mv	a6,s4
    800042a0:	00098793          	mv	a5,s3
    800042a4:	01c12703          	lw	a4,28(sp)
    800042a8:	01812683          	lw	a3,24(sp)
    800042ac:	00000613          	li	a2,0
    800042b0:	000b0593          	mv	a1,s6
    800042b4:	00040513          	mv	a0,s0
    800042b8:	83cff0ef          	jal	ra,800032f4 <lfs_ctz_traverse>
    800042bc:	00050b93          	mv	s7,a0
    800042c0:	f60500e3          	beqz	a0,80004220 <lfs_traverse+0xac>
    800042c4:	0d00006f          	j	80004394 <lfs_traverse+0x220>
    800042c8:	04812783          	lw	a5,72(sp)
    800042cc:	00f12423          	sw	a5,8(sp)
    800042d0:	04c12703          	lw	a4,76(sp)
    800042d4:	00e12623          	sw	a4,12(sp)
    800042d8:	fff00693          	li	a3,-1
    800042dc:	00d78663          	beq	a5,a3,800042e8 <lfs_traverse+0x174>
    800042e0:	fff00793          	li	a5,-1
    800042e4:	eef71ce3          	bne	a4,a5,800041dc <lfs_traverse+0x68>
    800042e8:	01043483          	ld	s1,16(s0)
    800042ec:	0c048e63          	beqz	s1,800043c8 <lfs_traverse+0x254>
    800042f0:	00010937          	lui	s2,0x10
    800042f4:	02040c13          	addi	s8,s0,32
    800042f8:	00020b37          	lui	s6,0x20
    800042fc:	0380006f          	j	80004334 <lfs_traverse+0x1c0>
    80004300:	000a0813          	mv	a6,s4
    80004304:	00098793          	mv	a5,s3
    80004308:	0184a703          	lw	a4,24(s1) # ffffffff80000018 <_sp+0xfffffffef1000018>
    8000430c:	0144a683          	lw	a3,20(s1)
    80004310:	03848613          	addi	a2,s1,56
    80004314:	000c0593          	mv	a1,s8
    80004318:	00040513          	mv	a0,s0
    8000431c:	fd9fe0ef          	jal	ra,800032f4 <lfs_ctz_traverse>
    80004320:	00050b93          	mv	s7,a0
    80004324:	02050063          	beqz	a0,80004344 <lfs_traverse+0x1d0>
    80004328:	06c0006f          	j	80004394 <lfs_traverse+0x220>
    8000432c:	0004b483          	ld	s1,0(s1)
    80004330:	04048863          	beqz	s1,80004380 <lfs_traverse+0x20c>
    80004334:	0284a783          	lw	a5,40(s1)
    80004338:	0127f7b3          	and	a5,a5,s2
    8000433c:	0007879b          	sext.w	a5,a5
    80004340:	fc0790e3          	bnez	a5,80004300 <lfs_traverse+0x18c>
    80004344:	0284a783          	lw	a5,40(s1)
    80004348:	0167f7b3          	and	a5,a5,s6
    8000434c:	0007879b          	sext.w	a5,a5
    80004350:	fc078ee3          	beqz	a5,8000432c <lfs_traverse+0x1b8>
    80004354:	000a0813          	mv	a6,s4
    80004358:	00098793          	mv	a5,s3
    8000435c:	02c4a703          	lw	a4,44(s1)
    80004360:	0304a683          	lw	a3,48(s1)
    80004364:	03848613          	addi	a2,s1,56
    80004368:	000c0593          	mv	a1,s8
    8000436c:	00040513          	mv	a0,s0
    80004370:	f85fe0ef          	jal	ra,800032f4 <lfs_ctz_traverse>
    80004374:	00050b93          	mv	s7,a0
    80004378:	fa050ae3          	beqz	a0,8000432c <lfs_traverse+0x1b8>
    8000437c:	0180006f          	j	80004394 <lfs_traverse+0x220>
    80004380:	000a8b93          	mv	s7,s5
    80004384:	0100006f          	j	80004394 <lfs_traverse+0x220>
    80004388:	00000b93          	li	s7,0
    8000438c:	0080006f          	j	80004394 <lfs_traverse+0x220>
    80004390:	00050b93          	mv	s7,a0
    80004394:	000b8513          	mv	a0,s7
    80004398:	09813083          	ld	ra,152(sp)
    8000439c:	09013403          	ld	s0,144(sp)
    800043a0:	08813483          	ld	s1,136(sp)
    800043a4:	08013903          	ld	s2,128(sp)
    800043a8:	07813983          	ld	s3,120(sp)
    800043ac:	07013a03          	ld	s4,112(sp)
    800043b0:	06813a83          	ld	s5,104(sp)
    800043b4:	06013b03          	ld	s6,96(sp)
    800043b8:	05813b83          	ld	s7,88(sp)
    800043bc:	05013c03          	ld	s8,80(sp)
    800043c0:	0a010113          	addi	sp,sp,160
    800043c4:	00008067          	ret
    800043c8:	000a8b93          	mv	s7,s5
    800043cc:	fc9ff06f          	j	80004394 <lfs_traverse+0x220>

00000000800043d0 <lfs_alloc>:
    800043d0:	fd010113          	addi	sp,sp,-48
    800043d4:	02113423          	sd	ra,40(sp)
    800043d8:	02813023          	sd	s0,32(sp)
    800043dc:	00913c23          	sd	s1,24(sp)
    800043e0:	01213823          	sd	s2,16(sp)
    800043e4:	01313423          	sd	s3,8(sp)
    800043e8:	00050413          	mv	s0,a0
    800043ec:	00058913          	mv	s2,a1
    800043f0:	00100493          	li	s1,1
    800043f4:	ffffe997          	auipc	s3,0xffffe
    800043f8:	ed898993          	addi	s3,s3,-296 # 800022cc <lfs_alloc_lookahead>
    800043fc:	04442603          	lw	a2,68(s0)
    80004400:	04842683          	lw	a3,72(s0)
    80004404:	0cc68663          	beq	a3,a2,800044d0 <lfs_alloc+0x100>
    80004408:	0016879b          	addiw	a5,a3,1
    8000440c:	04f42423          	sw	a5,72(s0)
    80004410:	04c42783          	lw	a5,76(s0)
    80004414:	fff7879b          	addiw	a5,a5,-1
    80004418:	04f42623          	sw	a5,76(s0)
    8000441c:	0056d79b          	srliw	a5,a3,0x5
    80004420:	05043703          	ld	a4,80(s0)
    80004424:	00279793          	slli	a5,a5,0x2
    80004428:	00f70733          	add	a4,a4,a5
    8000442c:	00d497bb          	sllw	a5,s1,a3
    80004430:	00072703          	lw	a4,0(a4)
    80004434:	00f777b3          	and	a5,a4,a5
    80004438:	0007879b          	sext.w	a5,a5
    8000443c:	fc0792e3          	bnez	a5,80004400 <lfs_alloc+0x30>
    80004440:	04042783          	lw	a5,64(s0)
    80004444:	00d786bb          	addw	a3,a5,a3
    80004448:	00043783          	ld	a5,0(s0)
    8000444c:	0347a783          	lw	a5,52(a5)
    80004450:	02f6f6bb          	remuw	a3,a3,a5
    80004454:	00d92023          	sw	a3,0(s2) # 10000 <_start-0x7fff0000>
    80004458:	04842683          	lw	a3,72(s0)
    8000445c:	04442603          	lw	a2,68(s0)
    80004460:	0cc68a63          	beq	a3,a2,80004534 <lfs_alloc+0x164>
    80004464:	05043503          	ld	a0,80(s0)
    80004468:	00100593          	li	a1,1
    8000446c:	0056d71b          	srliw	a4,a3,0x5
    80004470:	00271713          	slli	a4,a4,0x2
    80004474:	00e50733          	add	a4,a0,a4
    80004478:	00d597bb          	sllw	a5,a1,a3
    8000447c:	00072703          	lw	a4,0(a4)
    80004480:	00f777b3          	and	a5,a4,a5
    80004484:	0007879b          	sext.w	a5,a5
    80004488:	02078463          	beqz	a5,800044b0 <lfs_alloc+0xe0>
    8000448c:	0016879b          	addiw	a5,a3,1
    80004490:	0007869b          	sext.w	a3,a5
    80004494:	04f42423          	sw	a5,72(s0)
    80004498:	04c42783          	lw	a5,76(s0)
    8000449c:	fff7879b          	addiw	a5,a5,-1
    800044a0:	04f42623          	sw	a5,76(s0)
    800044a4:	fcc694e3          	bne	a3,a2,8000446c <lfs_alloc+0x9c>
    800044a8:	00000513          	li	a0,0
    800044ac:	0080006f          	j	800044b4 <lfs_alloc+0xe4>
    800044b0:	00000513          	li	a0,0
    800044b4:	02813083          	ld	ra,40(sp)
    800044b8:	02013403          	ld	s0,32(sp)
    800044bc:	01813483          	ld	s1,24(sp)
    800044c0:	01013903          	ld	s2,16(sp)
    800044c4:	00813983          	ld	s3,8(sp)
    800044c8:	03010113          	addi	sp,sp,48
    800044cc:	00008067          	ret
    800044d0:	04c42683          	lw	a3,76(s0)
    800044d4:	06068463          	beqz	a3,8000453c <lfs_alloc+0x16c>
    800044d8:	00043703          	ld	a4,0(s0)
    800044dc:	04042783          	lw	a5,64(s0)
    800044e0:	00c7863b          	addw	a2,a5,a2
    800044e4:	03472783          	lw	a5,52(a4)
    800044e8:	02f6763b          	remuw	a2,a2,a5
    800044ec:	04c42023          	sw	a2,64(s0)
    800044f0:	03872783          	lw	a5,56(a4)
    800044f4:	0007861b          	sext.w	a2,a5
    800044f8:	00c6f463          	bgeu	a3,a2,80004500 <lfs_alloc+0x130>
    800044fc:	00068793          	mv	a5,a3
    80004500:	04f42223          	sw	a5,68(s0)
    80004504:	04042423          	sw	zero,72(s0)
    80004508:	03872603          	lw	a2,56(a4)
    8000450c:	0036561b          	srliw	a2,a2,0x3
    80004510:	00000593          	li	a1,0
    80004514:	05043503          	ld	a0,80(s0)
    80004518:	961fc0ef          	jal	ra,80000e78 <memset>
    8000451c:	00040613          	mv	a2,s0
    80004520:	00098593          	mv	a1,s3
    80004524:	00040513          	mv	a0,s0
    80004528:	c4dff0ef          	jal	ra,80004174 <lfs_traverse>
    8000452c:	ec0508e3          	beqz	a0,800043fc <lfs_alloc+0x2c>
    80004530:	f85ff06f          	j	800044b4 <lfs_alloc+0xe4>
    80004534:	00000513          	li	a0,0
    80004538:	f7dff06f          	j	800044b4 <lfs_alloc+0xe4>
    8000453c:	fe400513          	li	a0,-28
    80004540:	f75ff06f          	j	800044b4 <lfs_alloc+0xe4>

0000000080004544 <lfs_dir_alloc>:
    80004544:	fe010113          	addi	sp,sp,-32
    80004548:	00113c23          	sd	ra,24(sp)
    8000454c:	00813823          	sd	s0,16(sp)
    80004550:	00913423          	sd	s1,8(sp)
    80004554:	01213023          	sd	s2,0(sp)
    80004558:	00050913          	mv	s2,a0
    8000455c:	00058413          	mv	s0,a1
    80004560:	00858593          	addi	a1,a1,8
    80004564:	e6dff0ef          	jal	ra,800043d0 <lfs_alloc>
    80004568:	00050493          	mv	s1,a0
    8000456c:	0a051263          	bnez	a0,80004610 <lfs_dir_alloc+0xcc>
    80004570:	00c40593          	addi	a1,s0,12
    80004574:	00090513          	mv	a0,s2
    80004578:	e59ff0ef          	jal	ra,800043d0 <lfs_alloc>
    8000457c:	00050493          	mv	s1,a0
    80004580:	08051863          	bnez	a0,80004610 <lfs_dir_alloc+0xcc>
    80004584:	00400713          	li	a4,4
    80004588:	02040693          	addi	a3,s0,32
    8000458c:	00000613          	li	a2,0
    80004590:	00842583          	lw	a1,8(s0)
    80004594:	00090513          	mv	a0,s2
    80004598:	b18fe0ef          	jal	ra,800028b0 <lfs_bd_read>
    8000459c:	00050a63          	beqz	a0,800045b0 <lfs_dir_alloc+0x6c>
    800045a0:	fcc00793          	li	a5,-52
    800045a4:	04f50263          	beq	a0,a5,800045e8 <lfs_dir_alloc+0xa4>
    800045a8:	00050493          	mv	s1,a0
    800045ac:	0640006f          	j	80004610 <lfs_dir_alloc+0xcc>
    800045b0:	02042703          	lw	a4,32(s0)
    800045b4:	00875793          	srli	a5,a4,0x8
    800045b8:	0ff7f793          	andi	a5,a5,255
    800045bc:	0087979b          	slliw	a5,a5,0x8
    800045c0:	01075693          	srli	a3,a4,0x10
    800045c4:	0ff6f693          	andi	a3,a3,255
    800045c8:	0106969b          	slliw	a3,a3,0x10
    800045cc:	00d7e7b3          	or	a5,a5,a3
    800045d0:	0ff77693          	andi	a3,a4,255
    800045d4:	00d7e7b3          	or	a5,a5,a3
    800045d8:	0187571b          	srliw	a4,a4,0x18
    800045dc:	0187171b          	slliw	a4,a4,0x18
    800045e0:	00e7e7b3          	or	a5,a5,a4
    800045e4:	02f42023          	sw	a5,32(s0)
    800045e8:	02042783          	lw	a5,32(s0)
    800045ec:	0017879b          	addiw	a5,a5,1
    800045f0:	02f42023          	sw	a5,32(s0)
    800045f4:	01400793          	li	a5,20
    800045f8:	02f42223          	sw	a5,36(s0)
    800045fc:	fff00793          	li	a5,-1
    80004600:	02f42423          	sw	a5,40(s0)
    80004604:	02f42623          	sw	a5,44(s0)
    80004608:	01000793          	li	a5,16
    8000460c:	00f42823          	sw	a5,16(s0)
    80004610:	00048513          	mv	a0,s1
    80004614:	01813083          	ld	ra,24(sp)
    80004618:	01013403          	ld	s0,16(sp)
    8000461c:	00813483          	ld	s1,8(sp)
    80004620:	00013903          	ld	s2,0(sp)
    80004624:	02010113          	addi	sp,sp,32
    80004628:	00008067          	ret

000000008000462c <lfs_file_relocate>:
    8000462c:	fa010113          	addi	sp,sp,-96
    80004630:	04113c23          	sd	ra,88(sp)
    80004634:	04813823          	sd	s0,80(sp)
    80004638:	04913423          	sd	s1,72(sp)
    8000463c:	05213023          	sd	s2,64(sp)
    80004640:	03313c23          	sd	s3,56(sp)
    80004644:	03413823          	sd	s4,48(sp)
    80004648:	03513423          	sd	s5,40(sp)
    8000464c:	03613023          	sd	s6,32(sp)
    80004650:	01713c23          	sd	s7,24(sp)
    80004654:	01813823          	sd	s8,16(sp)
    80004658:	00050913          	mv	s2,a0
    8000465c:	00058993          	mv	s3,a1
    80004660:	00000c13          	li	s8,0
    80004664:	02050a13          	addi	s4,a0,32
    80004668:	03858a93          	addi	s5,a1,56
    8000466c:	03050b13          	addi	s6,a0,48
    80004670:	fcc00b93          	li	s7,-52
    80004674:	00c10593          	addi	a1,sp,12
    80004678:	00090513          	mv	a0,s2
    8000467c:	d55ff0ef          	jal	ra,800043d0 <lfs_alloc>
    80004680:	00050493          	mv	s1,a0
    80004684:	0c051a63          	bnez	a0,80004758 <lfs_file_relocate+0x12c>
    80004688:	00c12583          	lw	a1,12(sp)
    8000468c:	00090513          	mv	a0,s2
    80004690:	c1dfd0ef          	jal	ra,800022ac <lfs_bd_erase>
    80004694:	00050493          	mv	s1,a0
    80004698:	00050c63          	beqz	a0,800046b0 <lfs_file_relocate+0x84>
    8000469c:	fd750ce3          	beq	a0,s7,80004674 <lfs_file_relocate+0x48>
    800046a0:	0b80006f          	j	80004758 <lfs_file_relocate+0x12c>
    800046a4:	fd7508e3          	beq	a0,s7,80004674 <lfs_file_relocate+0x48>
    800046a8:	00050493          	mv	s1,a0
    800046ac:	0ac0006f          	j	80004758 <lfs_file_relocate+0x12c>
    800046b0:	0349a783          	lw	a5,52(s3)
    800046b4:	04078e63          	beqz	a5,80004710 <lfs_file_relocate+0xe4>
    800046b8:	000c0413          	mv	s0,s8
    800046bc:	00100813          	li	a6,1
    800046c0:	00b10793          	addi	a5,sp,11
    800046c4:	00040713          	mv	a4,s0
    800046c8:	0309a683          	lw	a3,48(s3)
    800046cc:	000a8613          	mv	a2,s5
    800046d0:	000a0593          	mv	a1,s4
    800046d4:	00090513          	mv	a0,s2
    800046d8:	fd9fd0ef          	jal	ra,800026b0 <lfs_cache_read>
    800046dc:	fc0516e3          	bnez	a0,800046a8 <lfs_file_relocate+0x7c>
    800046e0:	00100813          	li	a6,1
    800046e4:	00b10793          	addi	a5,sp,11
    800046e8:	00040713          	mv	a4,s0
    800046ec:	00c12683          	lw	a3,12(sp)
    800046f0:	000a0613          	mv	a2,s4
    800046f4:	000b0593          	mv	a1,s6
    800046f8:	00090513          	mv	a0,s2
    800046fc:	e69fe0ef          	jal	ra,80003564 <lfs_cache_prog>
    80004700:	fa0512e3          	bnez	a0,800046a4 <lfs_file_relocate+0x78>
    80004704:	0014041b          	addiw	s0,s0,1
    80004708:	0349a783          	lw	a5,52(s3)
    8000470c:	faf468e3          	bltu	s0,a5,800046bc <lfs_file_relocate+0x90>
    80004710:	00093783          	ld	a5,0(s2)
    80004714:	02c7e603          	lwu	a2,44(a5)
    80004718:	03893583          	ld	a1,56(s2)
    8000471c:	0409b503          	ld	a0,64(s3)
    80004720:	534020ef          	jal	ra,80006c54 <memcpy>
    80004724:	03092783          	lw	a5,48(s2)
    80004728:	02f9ac23          	sw	a5,56(s3)
    8000472c:	03492783          	lw	a5,52(s2)
    80004730:	02f9ae23          	sw	a5,60(s3)
    80004734:	00093783          	ld	a5,0(s2)
    80004738:	02c7e603          	lwu	a2,44(a5)
    8000473c:	0ff00593          	li	a1,255
    80004740:	03893503          	ld	a0,56(s2)
    80004744:	f34fc0ef          	jal	ra,80000e78 <memset>
    80004748:	fff00793          	li	a5,-1
    8000474c:	02f92823          	sw	a5,48(s2)
    80004750:	00c12783          	lw	a5,12(sp)
    80004754:	02f9a823          	sw	a5,48(s3)
    80004758:	00048513          	mv	a0,s1
    8000475c:	05813083          	ld	ra,88(sp)
    80004760:	05013403          	ld	s0,80(sp)
    80004764:	04813483          	ld	s1,72(sp)
    80004768:	04013903          	ld	s2,64(sp)
    8000476c:	03813983          	ld	s3,56(sp)
    80004770:	03013a03          	ld	s4,48(sp)
    80004774:	02813a83          	ld	s5,40(sp)
    80004778:	02013b03          	ld	s6,32(sp)
    8000477c:	01813b83          	ld	s7,24(sp)
    80004780:	01013c03          	ld	s8,16(sp)
    80004784:	06010113          	addi	sp,sp,96
    80004788:	00008067          	ret

000000008000478c <lfs_file_write>:
    8000478c:	f6010113          	addi	sp,sp,-160
    80004790:	08113c23          	sd	ra,152(sp)
    80004794:	08813823          	sd	s0,144(sp)
    80004798:	08913423          	sd	s1,136(sp)
    8000479c:	09213023          	sd	s2,128(sp)
    800047a0:	07313c23          	sd	s3,120(sp)
    800047a4:	07413823          	sd	s4,112(sp)
    800047a8:	07513423          	sd	s5,104(sp)
    800047ac:	07613023          	sd	s6,96(sp)
    800047b0:	05713c23          	sd	s7,88(sp)
    800047b4:	05813823          	sd	s8,80(sp)
    800047b8:	05913423          	sd	s9,72(sp)
    800047bc:	05a13023          	sd	s10,64(sp)
    800047c0:	03b13c23          	sd	s11,56(sp)
    800047c4:	00068c13          	mv	s8,a3
    800047c8:	0285a783          	lw	a5,40(a1)
    800047cc:	0037f693          	andi	a3,a5,3
    800047d0:	00100713          	li	a4,1
    800047d4:	50e68e63          	beq	a3,a4,80004cf0 <lfs_file_write+0x564>
    800047d8:	00050413          	mv	s0,a0
    800047dc:	00058493          	mv	s1,a1
    800047e0:	00060a93          	mv	s5,a2
    800047e4:	02d79713          	slli	a4,a5,0x2d
    800047e8:	06074663          	bltz	a4,80004854 <lfs_file_write+0xc8>
    800047ec:	0284a783          	lw	a5,40(s1)
    800047f0:	03479713          	slli	a4,a5,0x34
    800047f4:	00075a63          	bgez	a4,80004808 <lfs_file_write+0x7c>
    800047f8:	0184a703          	lw	a4,24(s1)
    800047fc:	02c4a683          	lw	a3,44(s1)
    80004800:	00e6f463          	bgeu	a3,a4,80004808 <lfs_file_write+0x7c>
    80004804:	02e4a623          	sw	a4,44(s1)
    80004808:	02c4a903          	lw	s2,44(s1)
    8000480c:	0189073b          	addw	a4,s2,s8
    80004810:	4e074463          	bltz	a4,80004cf8 <lfs_file_write+0x56c>
    80004814:	02e79713          	slli	a4,a5,0x2e
    80004818:	00074663          	bltz	a4,80004824 <lfs_file_write+0x98>
    8000481c:	0184a783          	lw	a5,24(s1)
    80004820:	0527e063          	bltu	a5,s2,80004860 <lfs_file_write+0xd4>
    80004824:	000c0c93          	mv	s9,s8
    80004828:	4a0c0663          	beqz	s8,80004cd4 <lfs_file_write+0x548>
    8000482c:	02040913          	addi	s2,s0,32
    80004830:	03848993          	addi	s3,s1,56
    80004834:	0284a783          	lw	a5,40(s1)
    80004838:	02e79713          	slli	a4,a5,0x2e
    8000483c:	04075863          	bgez	a4,8000488c <lfs_file_write+0x100>
    80004840:	00043783          	ld	a5,0(s0)
    80004844:	0344a703          	lw	a4,52(s1)
    80004848:	0307a783          	lw	a5,48(a5)
    8000484c:	16f71e63          	bne	a4,a5,800049c8 <lfs_file_write+0x23c>
    80004850:	0440006f          	j	80004894 <lfs_file_write+0x108>
    80004854:	4ac000ef          	jal	ra,80004d00 <lfs_file_flush>
    80004858:	f8050ae3          	beqz	a0,800047ec <lfs_file_write+0x60>
    8000485c:	4040006f          	j	80004c60 <lfs_file_write+0x4d4>
    80004860:	02f4a623          	sw	a5,44(s1)
    80004864:	020107a3          	sb	zero,47(sp)
    80004868:	00100693          	li	a3,1
    8000486c:	02f10613          	addi	a2,sp,47
    80004870:	00048593          	mv	a1,s1
    80004874:	00040513          	mv	a0,s0
    80004878:	f15ff0ef          	jal	ra,8000478c <lfs_file_write>
    8000487c:	3e054263          	bltz	a0,80004c60 <lfs_file_write+0x4d4>
    80004880:	02c4a783          	lw	a5,44(s1)
    80004884:	ff27e0e3          	bltu	a5,s2,80004864 <lfs_file_write+0xd8>
    80004888:	f9dff06f          	j	80004824 <lfs_file_write+0x98>
    8000488c:	02c4a783          	lw	a5,44(s1)
    80004890:	02079663          	bnez	a5,800048bc <lfs_file_write+0x130>
    80004894:	00043783          	ld	a5,0(s0)
    80004898:	0347a783          	lw	a5,52(a5)
    8000489c:	04f42623          	sw	a5,76(s0)
    800048a0:	02c4a783          	lw	a5,44(s1)
    800048a4:	0304a703          	lw	a4,48(s1)
    800048a8:	02e12023          	sw	a4,32(sp)
    800048ac:	02f12223          	sw	a5,36(sp)
    800048b0:	00010db7          	lui	s11,0x10
    800048b4:	0ff00d13          	li	s10,255
    800048b8:	1a40006f          	j	80004a5c <lfs_file_write+0x2d0>
    800048bc:	03448893          	addi	a7,s1,52
    800048c0:	03048813          	addi	a6,s1,48
    800048c4:	fff7879b          	addiw	a5,a5,-1
    800048c8:	0184a703          	lw	a4,24(s1)
    800048cc:	0144a683          	lw	a3,20(s1)
    800048d0:	00000613          	li	a2,0
    800048d4:	00098593          	mv	a1,s3
    800048d8:	00040513          	mv	a0,s0
    800048dc:	f99fe0ef          	jal	ra,80003874 <lfs_ctz_find>
    800048e0:	02051263          	bnez	a0,80004904 <lfs_file_write+0x178>
    800048e4:	00043783          	ld	a5,0(s0)
    800048e8:	02c7e603          	lwu	a2,44(a5)
    800048ec:	0ff00593          	li	a1,255
    800048f0:	0404b503          	ld	a0,64(s1)
    800048f4:	d84fc0ef          	jal	ra,80000e78 <memset>
    800048f8:	fff00793          	li	a5,-1
    800048fc:	02f4ac23          	sw	a5,56(s1)
    80004900:	f95ff06f          	j	80004894 <lfs_file_write+0x108>
    80004904:	0284a783          	lw	a5,40(s1)
    80004908:	00080737          	lui	a4,0x80
    8000490c:	00e7e7b3          	or	a5,a5,a4
    80004910:	02f4a423          	sw	a5,40(s1)
    80004914:	34c0006f          	j	80004c60 <lfs_file_write+0x4d4>
    80004918:	02412783          	lw	a5,36(sp)
    8000491c:	12078063          	beqz	a5,80004a3c <lfs_file_write+0x2b0>
    80004920:	fff7879b          	addiw	a5,a5,-1
    80004924:	02f12223          	sw	a5,36(sp)
    80004928:	02410593          	addi	a1,sp,36
    8000492c:	00040513          	mv	a0,s0
    80004930:	c9dfd0ef          	jal	ra,800025cc <lfs_ctz_index>
    80004934:	02412703          	lw	a4,36(sp)
    80004938:	0017071b          	addiw	a4,a4,1
    8000493c:	0007079b          	sext.w	a5,a4
    80004940:	02e12223          	sw	a4,36(sp)
    80004944:	00043703          	ld	a4,0(s0)
    80004948:	03072703          	lw	a4,48(a4) # 80030 <_start-0x7ff7ffd0>
    8000494c:	12f70e63          	beq	a4,a5,80004a88 <lfs_file_write+0x2fc>
    80004950:	04078e63          	beqz	a5,800049ac <lfs_file_write+0x220>
    80004954:	00000a13          	li	s4,0
    80004958:	00100813          	li	a6,1
    8000495c:	01f10793          	addi	a5,sp,31
    80004960:	000a0713          	mv	a4,s4
    80004964:	02012683          	lw	a3,32(sp)
    80004968:	00000613          	li	a2,0
    8000496c:	00090593          	mv	a1,s2
    80004970:	00040513          	mv	a0,s0
    80004974:	d3dfd0ef          	jal	ra,800026b0 <lfs_cache_read>
    80004978:	2a051663          	bnez	a0,80004c24 <lfs_file_write+0x498>
    8000497c:	00100813          	li	a6,1
    80004980:	01f10793          	addi	a5,sp,31
    80004984:	000a0713          	mv	a4,s4
    80004988:	02812683          	lw	a3,40(sp)
    8000498c:	00090613          	mv	a2,s2
    80004990:	00098593          	mv	a1,s3
    80004994:	00040513          	mv	a0,s0
    80004998:	bcdfe0ef          	jal	ra,80003564 <lfs_cache_prog>
    8000499c:	0a051863          	bnez	a0,80004a4c <lfs_file_write+0x2c0>
    800049a0:	001a0a1b          	addiw	s4,s4,1
    800049a4:	02412783          	lw	a5,36(sp)
    800049a8:	fafa68e3          	bltu	s4,a5,80004958 <lfs_file_write+0x1cc>
    800049ac:	02812703          	lw	a4,40(sp)
    800049b0:	02e4a823          	sw	a4,48(s1)
    800049b4:	02f4aa23          	sw	a5,52(s1)
    800049b8:	0284a783          	lw	a5,40(s1)
    800049bc:	00020737          	lui	a4,0x20
    800049c0:	00e7e7b3          	or	a5,a5,a4
    800049c4:	02f4a423          	sw	a5,40(s1)
    800049c8:	00043783          	ld	a5,0(s0)
    800049cc:	0307a783          	lw	a5,48(a5)
    800049d0:	0344a703          	lw	a4,52(s1)
    800049d4:	40e787bb          	subw	a5,a5,a4
    800049d8:	00078a13          	mv	s4,a5
    800049dc:	0007879b          	sext.w	a5,a5
    800049e0:	00fcf463          	bgeu	s9,a5,800049e8 <lfs_file_write+0x25c>
    800049e4:	000c8a13          	mv	s4,s9
    800049e8:	000a0a1b          	sext.w	s4,s4
    800049ec:	fcc00b13          	li	s6,-52
    800049f0:	000a0813          	mv	a6,s4
    800049f4:	000a8793          	mv	a5,s5
    800049f8:	0344a703          	lw	a4,52(s1)
    800049fc:	0304a683          	lw	a3,48(s1)
    80004a00:	00090613          	mv	a2,s2
    80004a04:	00098593          	mv	a1,s3
    80004a08:	00040513          	mv	a0,s0
    80004a0c:	b59fe0ef          	jal	ra,80003564 <lfs_cache_prog>
    80004a10:	28050663          	beqz	a0,80004c9c <lfs_file_write+0x510>
    80004a14:	23651e63          	bne	a0,s6,80004c50 <lfs_file_write+0x4c4>
    80004a18:	00048593          	mv	a1,s1
    80004a1c:	00040513          	mv	a0,s0
    80004a20:	c0dff0ef          	jal	ra,8000462c <lfs_file_relocate>
    80004a24:	fc0506e3          	beqz	a0,800049f0 <lfs_file_write+0x264>
    80004a28:	0284a783          	lw	a5,40(s1)
    80004a2c:	00080737          	lui	a4,0x80
    80004a30:	00e7e7b3          	or	a5,a5,a4
    80004a34:	02f4a423          	sw	a5,40(s1)
    80004a38:	2280006f          	j	80004c60 <lfs_file_write+0x4d4>
    80004a3c:	02812783          	lw	a5,40(sp)
    80004a40:	02f4a823          	sw	a5,48(s1)
    80004a44:	0204aa23          	sw	zero,52(s1)
    80004a48:	f71ff06f          	j	800049b8 <lfs_file_write+0x22c>
    80004a4c:	fcc00793          	li	a5,-52
    80004a50:	1cf51a63          	bne	a0,a5,80004c24 <lfs_file_write+0x498>
    80004a54:	fff00793          	li	a5,-1
    80004a58:	02f42823          	sw	a5,48(s0)
    80004a5c:	02810593          	addi	a1,sp,40
    80004a60:	00040513          	mv	a0,s0
    80004a64:	96dff0ef          	jal	ra,800043d0 <lfs_alloc>
    80004a68:	1a051e63          	bnez	a0,80004c24 <lfs_file_write+0x498>
    80004a6c:	02812583          	lw	a1,40(sp)
    80004a70:	00040513          	mv	a0,s0
    80004a74:	839fd0ef          	jal	ra,800022ac <lfs_bd_erase>
    80004a78:	ea0500e3          	beqz	a0,80004918 <lfs_file_write+0x18c>
    80004a7c:	fcc00793          	li	a5,-52
    80004a80:	fcf50ae3          	beq	a0,a5,80004a54 <lfs_file_write+0x2c8>
    80004a84:	1a00006f          	j	80004c24 <lfs_file_write+0x498>
    80004a88:	0005079b          	sext.w	a5,a0
    80004a8c:	0015051b          	addiw	a0,a0,1
    80004a90:	fff7c793          	not	a5,a5
    80004a94:	00a7f7b3          	and	a5,a5,a0
    80004a98:	0007879b          	sext.w	a5,a5
    80004a9c:	01b7b733          	sltu	a4,a5,s11
    80004aa0:	00174713          	xori	a4,a4,1
    80004aa4:	02071713          	slli	a4,a4,0x20
    80004aa8:	02075713          	srli	a4,a4,0x20
    80004aac:	00471713          	slli	a4,a4,0x4
    80004ab0:	00e7d7bb          	srlw	a5,a5,a4
    80004ab4:	0007869b          	sext.w	a3,a5
    80004ab8:	00dd36b3          	sltu	a3,s10,a3
    80004abc:	00369693          	slli	a3,a3,0x3
    80004ac0:	00d7d7bb          	srlw	a5,a5,a3
    80004ac4:	0007861b          	sext.w	a2,a5
    80004ac8:	00d76733          	or	a4,a4,a3
    80004acc:	00f00693          	li	a3,15
    80004ad0:	00c6b633          	sltu	a2,a3,a2
    80004ad4:	00261613          	slli	a2,a2,0x2
    80004ad8:	00c7d7bb          	srlw	a5,a5,a2
    80004adc:	0007869b          	sext.w	a3,a5
    80004ae0:	00c76733          	or	a4,a4,a2
    80004ae4:	00300613          	li	a2,3
    80004ae8:	00d636b3          	sltu	a3,a2,a3
    80004aec:	00169693          	slli	a3,a3,0x1
    80004af0:	00d7d7bb          	srlw	a5,a5,a3
    80004af4:	0017d79b          	srliw	a5,a5,0x1
    80004af8:	00d76733          	or	a4,a4,a3
    80004afc:	00f767b3          	or	a5,a4,a5
    80004b00:	00078b9b          	sext.w	s7,a5
    80004b04:	0017879b          	addiw	a5,a5,1
    80004b08:	00f13423          	sd	a5,8(sp)
    80004b0c:	00000a13          	li	s4,0
    80004b10:	01c0006f          	j	80004b2c <lfs_file_write+0x3a0>
    80004b14:	fcc00793          	li	a5,-52
    80004b18:	f2f50ee3          	beq	a0,a5,80004a54 <lfs_file_write+0x2c8>
    80004b1c:	1080006f          	j	80004c24 <lfs_file_write+0x498>
    80004b20:	001a079b          	addiw	a5,s4,1
    80004b24:	114b8a63          	beq	s7,s4,80004c38 <lfs_file_write+0x4ac>
    80004b28:	00078a13          	mv	s4,a5
    80004b2c:	02012703          	lw	a4,32(sp)
    80004b30:	00875793          	srli	a5,a4,0x8
    80004b34:	0ff7f793          	andi	a5,a5,255
    80004b38:	0087979b          	slliw	a5,a5,0x8
    80004b3c:	01075693          	srli	a3,a4,0x10
    80004b40:	0ff6f693          	andi	a3,a3,255
    80004b44:	0106969b          	slliw	a3,a3,0x10
    80004b48:	00d7e7b3          	or	a5,a5,a3
    80004b4c:	0ff77693          	andi	a3,a4,255
    80004b50:	00d7e7b3          	or	a5,a5,a3
    80004b54:	0187571b          	srliw	a4,a4,0x18
    80004b58:	0187171b          	slliw	a4,a4,0x18
    80004b5c:	00e7e7b3          	or	a5,a5,a4
    80004b60:	02f12023          	sw	a5,32(sp)
    80004b64:	002a1b1b          	slliw	s6,s4,0x2
    80004b68:	00400813          	li	a6,4
    80004b6c:	02010793          	addi	a5,sp,32
    80004b70:	000b0713          	mv	a4,s6
    80004b74:	02812683          	lw	a3,40(sp)
    80004b78:	00090613          	mv	a2,s2
    80004b7c:	00098593          	mv	a1,s3
    80004b80:	00040513          	mv	a0,s0
    80004b84:	9e1fe0ef          	jal	ra,80003564 <lfs_cache_prog>
    80004b88:	02012783          	lw	a5,32(sp)
    80004b8c:	0087d693          	srli	a3,a5,0x8
    80004b90:	0ff6f693          	andi	a3,a3,255
    80004b94:	0086969b          	slliw	a3,a3,0x8
    80004b98:	0107d713          	srli	a4,a5,0x10
    80004b9c:	0ff77713          	andi	a4,a4,255
    80004ba0:	0107171b          	slliw	a4,a4,0x10
    80004ba4:	00e6e6b3          	or	a3,a3,a4
    80004ba8:	0ff7f713          	andi	a4,a5,255
    80004bac:	00e6e6b3          	or	a3,a3,a4
    80004bb0:	0187d79b          	srliw	a5,a5,0x18
    80004bb4:	0187979b          	slliw	a5,a5,0x18
    80004bb8:	00f6e6b3          	or	a3,a3,a5
    80004bbc:	0006869b          	sext.w	a3,a3
    80004bc0:	02d12023          	sw	a3,32(sp)
    80004bc4:	f40518e3          	bnez	a0,80004b14 <lfs_file_write+0x388>
    80004bc8:	f54b8ce3          	beq	s7,s4,80004b20 <lfs_file_write+0x394>
    80004bcc:	00400813          	li	a6,4
    80004bd0:	02010793          	addi	a5,sp,32
    80004bd4:	000b0713          	mv	a4,s6
    80004bd8:	00000613          	li	a2,0
    80004bdc:	00090593          	mv	a1,s2
    80004be0:	00040513          	mv	a0,s0
    80004be4:	acdfd0ef          	jal	ra,800026b0 <lfs_cache_read>
    80004be8:	02012703          	lw	a4,32(sp)
    80004bec:	00875793          	srli	a5,a4,0x8
    80004bf0:	0ff7f793          	andi	a5,a5,255
    80004bf4:	0087979b          	slliw	a5,a5,0x8
    80004bf8:	01075693          	srli	a3,a4,0x10
    80004bfc:	0ff6f693          	andi	a3,a3,255
    80004c00:	0106969b          	slliw	a3,a3,0x10
    80004c04:	00d7e7b3          	or	a5,a5,a3
    80004c08:	0ff77693          	andi	a3,a4,255
    80004c0c:	00d7e7b3          	or	a5,a5,a3
    80004c10:	0187571b          	srliw	a4,a4,0x18
    80004c14:	0187171b          	slliw	a4,a4,0x18
    80004c18:	00e7e7b3          	or	a5,a5,a4
    80004c1c:	02f12023          	sw	a5,32(sp)
    80004c20:	f00500e3          	beqz	a0,80004b20 <lfs_file_write+0x394>
    80004c24:	0284a783          	lw	a5,40(s1)
    80004c28:	00080737          	lui	a4,0x80
    80004c2c:	00e7e7b3          	or	a5,a5,a4
    80004c30:	02f4a423          	sw	a5,40(s1)
    80004c34:	02c0006f          	j	80004c60 <lfs_file_write+0x4d4>
    80004c38:	02812783          	lw	a5,40(sp)
    80004c3c:	02f4a823          	sw	a5,48(s1)
    80004c40:	00813783          	ld	a5,8(sp)
    80004c44:	0027979b          	slliw	a5,a5,0x2
    80004c48:	02f4aa23          	sw	a5,52(s1)
    80004c4c:	d6dff06f          	j	800049b8 <lfs_file_write+0x22c>
    80004c50:	0284a783          	lw	a5,40(s1)
    80004c54:	00080737          	lui	a4,0x80
    80004c58:	00e7e7b3          	or	a5,a5,a4
    80004c5c:	02f4a423          	sw	a5,40(s1)
    80004c60:	09813083          	ld	ra,152(sp)
    80004c64:	09013403          	ld	s0,144(sp)
    80004c68:	08813483          	ld	s1,136(sp)
    80004c6c:	08013903          	ld	s2,128(sp)
    80004c70:	07813983          	ld	s3,120(sp)
    80004c74:	07013a03          	ld	s4,112(sp)
    80004c78:	06813a83          	ld	s5,104(sp)
    80004c7c:	06013b03          	ld	s6,96(sp)
    80004c80:	05813b83          	ld	s7,88(sp)
    80004c84:	05013c03          	ld	s8,80(sp)
    80004c88:	04813c83          	ld	s9,72(sp)
    80004c8c:	04013d03          	ld	s10,64(sp)
    80004c90:	03813d83          	ld	s11,56(sp)
    80004c94:	0a010113          	addi	sp,sp,160
    80004c98:	00008067          	ret
    80004c9c:	02c4a783          	lw	a5,44(s1)
    80004ca0:	014787bb          	addw	a5,a5,s4
    80004ca4:	02f4a623          	sw	a5,44(s1)
    80004ca8:	0344a783          	lw	a5,52(s1)
    80004cac:	014787bb          	addw	a5,a5,s4
    80004cb0:	02f4aa23          	sw	a5,52(s1)
    80004cb4:	020a1793          	slli	a5,s4,0x20
    80004cb8:	0207d793          	srli	a5,a5,0x20
    80004cbc:	00fa8ab3          	add	s5,s5,a5
    80004cc0:	414c8cbb          	subw	s9,s9,s4
    80004cc4:	00043783          	ld	a5,0(s0)
    80004cc8:	0347a783          	lw	a5,52(a5)
    80004ccc:	04f42623          	sw	a5,76(s0)
    80004cd0:	b60c92e3          	bnez	s9,80004834 <lfs_file_write+0xa8>
    80004cd4:	0284a783          	lw	a5,40(s1)
    80004cd8:	fff80737          	lui	a4,0xfff80
    80004cdc:	fff70713          	addi	a4,a4,-1 # fffffffffff7ffff <_sp+0xffffffff70f7ffff>
    80004ce0:	00e7f7b3          	and	a5,a5,a4
    80004ce4:	02f4a423          	sw	a5,40(s1)
    80004ce8:	000c051b          	sext.w	a0,s8
    80004cec:	f75ff06f          	j	80004c60 <lfs_file_write+0x4d4>
    80004cf0:	ff700513          	li	a0,-9
    80004cf4:	f6dff06f          	j	80004c60 <lfs_file_write+0x4d4>
    80004cf8:	fe500513          	li	a0,-27
    80004cfc:	f65ff06f          	j	80004c60 <lfs_file_write+0x4d4>

0000000080004d00 <lfs_file_flush>:
    80004d00:	f7010113          	addi	sp,sp,-144
    80004d04:	08113423          	sd	ra,136(sp)
    80004d08:	08813023          	sd	s0,128(sp)
    80004d0c:	06913c23          	sd	s1,120(sp)
    80004d10:	07213823          	sd	s2,112(sp)
    80004d14:	07313423          	sd	s3,104(sp)
    80004d18:	07413023          	sd	s4,96(sp)
    80004d1c:	05513c23          	sd	s5,88(sp)
    80004d20:	00050413          	mv	s0,a0
    80004d24:	00058493          	mv	s1,a1
    80004d28:	0285a783          	lw	a5,40(a1)
    80004d2c:	02d79713          	slli	a4,a5,0x2d
    80004d30:	00075e63          	bgez	a4,80004d4c <lfs_file_flush+0x4c>
    80004d34:	fff00713          	li	a4,-1
    80004d38:	02e5ac23          	sw	a4,56(a1)
    80004d3c:	fffc0737          	lui	a4,0xfffc0
    80004d40:	fff70713          	addi	a4,a4,-1 # fffffffffffbffff <_sp+0xffffffff70fbffff>
    80004d44:	00e7f7b3          	and	a5,a5,a4
    80004d48:	02f5a423          	sw	a5,40(a1)
    80004d4c:	0284a783          	lw	a5,40(s1)
    80004d50:	00000513          	li	a0,0
    80004d54:	02e79713          	slli	a4,a5,0x2e
    80004d58:	12075063          	bgez	a4,80004e78 <lfs_file_flush+0x178>
    80004d5c:	02c4a983          	lw	s3,44(s1)
    80004d60:	00013423          	sd	zero,8(sp)
    80004d64:	00013823          	sd	zero,16(sp)
    80004d68:	00013c23          	sd	zero,24(sp)
    80004d6c:	02013023          	sd	zero,32(sp)
    80004d70:	02013423          	sd	zero,40(sp)
    80004d74:	02013c23          	sd	zero,56(sp)
    80004d78:	0144a783          	lw	a5,20(s1)
    80004d7c:	00f12e23          	sw	a5,28(sp)
    80004d80:	0184a783          	lw	a5,24(s1)
    80004d84:	02f12023          	sw	a5,32(sp)
    80004d88:	00100793          	li	a5,1
    80004d8c:	02f12823          	sw	a5,48(sp)
    80004d90:	03312a23          	sw	s3,52(sp)
    80004d94:	02043783          	ld	a5,32(s0)
    80004d98:	04f13023          	sd	a5,64(sp)
    80004d9c:	02843783          	ld	a5,40(s0)
    80004da0:	04f13423          	sd	a5,72(sp)
    80004da4:	fff00793          	li	a5,-1
    80004da8:	02f42023          	sw	a5,32(s0)
    80004dac:	02c4a703          	lw	a4,44(s1)
    80004db0:	0184a783          	lw	a5,24(s1)
    80004db4:	04f77e63          	bgeu	a4,a5,80004e10 <lfs_file_flush+0x110>
    80004db8:	fff00913          	li	s2,-1
    80004dbc:	0180006f          	j	80004dd4 <lfs_file_flush+0xd4>
    80004dc0:	05212023          	sw	s2,64(sp)
    80004dc4:	03242023          	sw	s2,32(s0)
    80004dc8:	02c4a703          	lw	a4,44(s1)
    80004dcc:	0184a783          	lw	a5,24(s1)
    80004dd0:	04f77063          	bgeu	a4,a5,80004e10 <lfs_file_flush+0x110>
    80004dd4:	00100693          	li	a3,1
    80004dd8:	00710613          	addi	a2,sp,7
    80004ddc:	00810593          	addi	a1,sp,8
    80004de0:	00040513          	mv	a0,s0
    80004de4:	0b8000ef          	jal	ra,80004e9c <lfs_file_read>
    80004de8:	08054863          	bltz	a0,80004e78 <lfs_file_flush+0x178>
    80004dec:	00100693          	li	a3,1
    80004df0:	00710613          	addi	a2,sp,7
    80004df4:	00048593          	mv	a1,s1
    80004df8:	00040513          	mv	a0,s0
    80004dfc:	991ff0ef          	jal	ra,8000478c <lfs_file_write>
    80004e00:	06054c63          	bltz	a0,80004e78 <lfs_file_flush+0x178>
    80004e04:	02042783          	lw	a5,32(s0)
    80004e08:	fb279ce3          	bne	a5,s2,80004dc0 <lfs_file_flush+0xc0>
    80004e0c:	fbdff06f          	j	80004dc8 <lfs_file_flush+0xc8>
    80004e10:	02040a13          	addi	s4,s0,32
    80004e14:	03848913          	addi	s2,s1,56
    80004e18:	fcc00a93          	li	s5,-52
    80004e1c:	000a0613          	mv	a2,s4
    80004e20:	00090593          	mv	a1,s2
    80004e24:	00040513          	mv	a0,s0
    80004e28:	e6cfe0ef          	jal	ra,80003494 <lfs_cache_flush>
    80004e2c:	00050e63          	beqz	a0,80004e48 <lfs_file_flush+0x148>
    80004e30:	05551463          	bne	a0,s5,80004e78 <lfs_file_flush+0x178>
    80004e34:	00048593          	mv	a1,s1
    80004e38:	00040513          	mv	a0,s0
    80004e3c:	ff0ff0ef          	jal	ra,8000462c <lfs_file_relocate>
    80004e40:	fc050ee3          	beqz	a0,80004e1c <lfs_file_flush+0x11c>
    80004e44:	0340006f          	j	80004e78 <lfs_file_flush+0x178>
    80004e48:	0304a783          	lw	a5,48(s1)
    80004e4c:	00f4aa23          	sw	a5,20(s1)
    80004e50:	02c4a783          	lw	a5,44(s1)
    80004e54:	00f4ac23          	sw	a5,24(s1)
    80004e58:	0284a783          	lw	a5,40(s1)
    80004e5c:	fffe0737          	lui	a4,0xfffe0
    80004e60:	fff70713          	addi	a4,a4,-1 # fffffffffffdffff <_sp+0xffffffff70fdffff>
    80004e64:	00e7f7b3          	and	a5,a5,a4
    80004e68:	00010737          	lui	a4,0x10
    80004e6c:	00e7e7b3          	or	a5,a5,a4
    80004e70:	02f4a423          	sw	a5,40(s1)
    80004e74:	0334a623          	sw	s3,44(s1)
    80004e78:	08813083          	ld	ra,136(sp)
    80004e7c:	08013403          	ld	s0,128(sp)
    80004e80:	07813483          	ld	s1,120(sp)
    80004e84:	07013903          	ld	s2,112(sp)
    80004e88:	06813983          	ld	s3,104(sp)
    80004e8c:	06013a03          	ld	s4,96(sp)
    80004e90:	05813a83          	ld	s5,88(sp)
    80004e94:	09010113          	addi	sp,sp,144
    80004e98:	00008067          	ret

0000000080004e9c <lfs_file_read>:
    80004e9c:	fa010113          	addi	sp,sp,-96
    80004ea0:	04113c23          	sd	ra,88(sp)
    80004ea4:	04813823          	sd	s0,80(sp)
    80004ea8:	04913423          	sd	s1,72(sp)
    80004eac:	05213023          	sd	s2,64(sp)
    80004eb0:	03313c23          	sd	s3,56(sp)
    80004eb4:	03413823          	sd	s4,48(sp)
    80004eb8:	03513423          	sd	s5,40(sp)
    80004ebc:	03613023          	sd	s6,32(sp)
    80004ec0:	01713c23          	sd	s7,24(sp)
    80004ec4:	01813823          	sd	s8,16(sp)
    80004ec8:	01913423          	sd	s9,8(sp)
    80004ecc:	00068493          	mv	s1,a3
    80004ed0:	0285a783          	lw	a5,40(a1)
    80004ed4:	0037f693          	andi	a3,a5,3
    80004ed8:	00200713          	li	a4,2
    80004edc:	16e68263          	beq	a3,a4,80005040 <lfs_file_read+0x1a4>
    80004ee0:	00050913          	mv	s2,a0
    80004ee4:	00058413          	mv	s0,a1
    80004ee8:	00060993          	mv	s3,a2
    80004eec:	02e79713          	slli	a4,a5,0x2e
    80004ef0:	04074463          	bltz	a4,80004f38 <lfs_file_read+0x9c>
    80004ef4:	02c42703          	lw	a4,44(s0)
    80004ef8:	01842783          	lw	a5,24(s0)
    80004efc:	00000513          	li	a0,0
    80004f00:	10f77663          	bgeu	a4,a5,8000500c <lfs_file_read+0x170>
    80004f04:	40e787bb          	subw	a5,a5,a4
    80004f08:	00078c13          	mv	s8,a5
    80004f0c:	0007879b          	sext.w	a5,a5
    80004f10:	00f4f463          	bgeu	s1,a5,80004f18 <lfs_file_read+0x7c>
    80004f14:	00048c13          	mv	s8,s1
    80004f18:	000c0c1b          	sext.w	s8,s8
    80004f1c:	0e0c0663          	beqz	s8,80005008 <lfs_file_read+0x16c>
    80004f20:	000c0493          	mv	s1,s8
    80004f24:	00040ab7          	lui	s5,0x40
    80004f28:	03440b93          	addi	s7,s0,52
    80004f2c:	03040b13          	addi	s6,s0,48
    80004f30:	03840a13          	addi	s4,s0,56
    80004f34:	0b00006f          	j	80004fe4 <lfs_file_read+0x148>
    80004f38:	dc9ff0ef          	jal	ra,80004d00 <lfs_file_flush>
    80004f3c:	fa050ce3          	beqz	a0,80004ef4 <lfs_file_read+0x58>
    80004f40:	0cc0006f          	j	8000500c <lfs_file_read+0x170>
    80004f44:	000b8893          	mv	a7,s7
    80004f48:	000b0813          	mv	a6,s6
    80004f4c:	02c42783          	lw	a5,44(s0)
    80004f50:	01842703          	lw	a4,24(s0)
    80004f54:	01442683          	lw	a3,20(s0)
    80004f58:	00000613          	li	a2,0
    80004f5c:	000a0593          	mv	a1,s4
    80004f60:	00090513          	mv	a0,s2
    80004f64:	911fe0ef          	jal	ra,80003874 <lfs_ctz_find>
    80004f68:	0a051263          	bnez	a0,8000500c <lfs_file_read+0x170>
    80004f6c:	02842783          	lw	a5,40(s0)
    80004f70:	0157e7b3          	or	a5,a5,s5
    80004f74:	02f42423          	sw	a5,40(s0)
    80004f78:	03442703          	lw	a4,52(s0)
    80004f7c:	00093783          	ld	a5,0(s2)
    80004f80:	0307a783          	lw	a5,48(a5)
    80004f84:	40e787bb          	subw	a5,a5,a4
    80004f88:	00078c93          	mv	s9,a5
    80004f8c:	0007879b          	sext.w	a5,a5
    80004f90:	00f4f463          	bgeu	s1,a5,80004f98 <lfs_file_read+0xfc>
    80004f94:	00048c93          	mv	s9,s1
    80004f98:	000c881b          	sext.w	a6,s9
    80004f9c:	00098793          	mv	a5,s3
    80004fa0:	03042683          	lw	a3,48(s0)
    80004fa4:	00000613          	li	a2,0
    80004fa8:	000a0593          	mv	a1,s4
    80004fac:	00090513          	mv	a0,s2
    80004fb0:	f00fd0ef          	jal	ra,800026b0 <lfs_cache_read>
    80004fb4:	04051c63          	bnez	a0,8000500c <lfs_file_read+0x170>
    80004fb8:	02c42783          	lw	a5,44(s0)
    80004fbc:	019787bb          	addw	a5,a5,s9
    80004fc0:	02f42623          	sw	a5,44(s0)
    80004fc4:	03442783          	lw	a5,52(s0)
    80004fc8:	019787bb          	addw	a5,a5,s9
    80004fcc:	02f42a23          	sw	a5,52(s0)
    80004fd0:	020c9793          	slli	a5,s9,0x20
    80004fd4:	0207d793          	srli	a5,a5,0x20
    80004fd8:	00f989b3          	add	s3,s3,a5
    80004fdc:	419484bb          	subw	s1,s1,s9
    80004fe0:	02048463          	beqz	s1,80005008 <lfs_file_read+0x16c>
    80004fe4:	02842783          	lw	a5,40(s0)
    80004fe8:	0157f7b3          	and	a5,a5,s5
    80004fec:	0007879b          	sext.w	a5,a5
    80004ff0:	f4078ae3          	beqz	a5,80004f44 <lfs_file_read+0xa8>
    80004ff4:	00093783          	ld	a5,0(s2)
    80004ff8:	03442703          	lw	a4,52(s0)
    80004ffc:	0307a783          	lw	a5,48(a5)
    80005000:	f6f71ce3          	bne	a4,a5,80004f78 <lfs_file_read+0xdc>
    80005004:	f41ff06f          	j	80004f44 <lfs_file_read+0xa8>
    80005008:	000c051b          	sext.w	a0,s8
    8000500c:	05813083          	ld	ra,88(sp)
    80005010:	05013403          	ld	s0,80(sp)
    80005014:	04813483          	ld	s1,72(sp)
    80005018:	04013903          	ld	s2,64(sp)
    8000501c:	03813983          	ld	s3,56(sp)
    80005020:	03013a03          	ld	s4,48(sp)
    80005024:	02813a83          	ld	s5,40(sp)
    80005028:	02013b03          	ld	s6,32(sp)
    8000502c:	01813b83          	ld	s7,24(sp)
    80005030:	01013c03          	ld	s8,16(sp)
    80005034:	00813c83          	ld	s9,8(sp)
    80005038:	06010113          	addi	sp,sp,96
    8000503c:	00008067          	ret
    80005040:	ff700513          	li	a0,-9
    80005044:	fc9ff06f          	j	8000500c <lfs_file_read+0x170>

0000000080005048 <lfs_file_seek>:
    80005048:	fe010113          	addi	sp,sp,-32
    8000504c:	00113c23          	sd	ra,24(sp)
    80005050:	00813823          	sd	s0,16(sp)
    80005054:	00913423          	sd	s1,8(sp)
    80005058:	01213023          	sd	s2,0(sp)
    8000505c:	00058913          	mv	s2,a1
    80005060:	00060413          	mv	s0,a2
    80005064:	00068493          	mv	s1,a3
    80005068:	c99ff0ef          	jal	ra,80004d00 <lfs_file_flush>
    8000506c:	02051663          	bnez	a0,80005098 <lfs_file_seek+0x50>
    80005070:	00048e63          	beqz	s1,8000508c <lfs_file_seek+0x44>
    80005074:	02c92703          	lw	a4,44(s2)
    80005078:	00100793          	li	a5,1
    8000507c:	02f48a63          	beq	s1,a5,800050b0 <lfs_file_seek+0x68>
    80005080:	00200793          	li	a5,2
    80005084:	02f48a63          	beq	s1,a5,800050b8 <lfs_file_seek+0x70>
    80005088:	0007041b          	sext.w	s0,a4
    8000508c:	02044c63          	bltz	s0,800050c4 <lfs_file_seek+0x7c>
    80005090:	02892623          	sw	s0,44(s2)
    80005094:	00040513          	mv	a0,s0
    80005098:	01813083          	ld	ra,24(sp)
    8000509c:	01013403          	ld	s0,16(sp)
    800050a0:	00813483          	ld	s1,8(sp)
    800050a4:	00013903          	ld	s2,0(sp)
    800050a8:	02010113          	addi	sp,sp,32
    800050ac:	00008067          	ret
    800050b0:	00e4043b          	addw	s0,s0,a4
    800050b4:	fd9ff06f          	j	8000508c <lfs_file_seek+0x44>
    800050b8:	01892783          	lw	a5,24(s2)
    800050bc:	0087843b          	addw	s0,a5,s0
    800050c0:	fcdff06f          	j	8000508c <lfs_file_seek+0x44>
    800050c4:	fea00513          	li	a0,-22
    800050c8:	fd1ff06f          	j	80005098 <lfs_file_seek+0x50>

00000000800050cc <lfs_file_rewind>:
    800050cc:	ff010113          	addi	sp,sp,-16
    800050d0:	00113423          	sd	ra,8(sp)
    800050d4:	00000693          	li	a3,0
    800050d8:	00000613          	li	a2,0
    800050dc:	f6dff0ef          	jal	ra,80005048 <lfs_file_seek>
    800050e0:	00152793          	slti	a5,a0,1
    800050e4:	40f007bb          	negw	a5,a5
    800050e8:	00f57533          	and	a0,a0,a5
    800050ec:	0005051b          	sext.w	a0,a0
    800050f0:	00813083          	ld	ra,8(sp)
    800050f4:	01010113          	addi	sp,sp,16
    800050f8:	00008067          	ret

00000000800050fc <lfs_file_truncate>:
    800050fc:	0285a783          	lw	a5,40(a1)
    80005100:	0037f793          	andi	a5,a5,3
    80005104:	00100713          	li	a4,1
    80005108:	12e78263          	beq	a5,a4,8000522c <lfs_file_truncate+0x130>
    8000510c:	fc010113          	addi	sp,sp,-64
    80005110:	02113c23          	sd	ra,56(sp)
    80005114:	02813823          	sd	s0,48(sp)
    80005118:	02913423          	sd	s1,40(sp)
    8000511c:	03213023          	sd	s2,32(sp)
    80005120:	01313c23          	sd	s3,24(sp)
    80005124:	00050913          	mv	s2,a0
    80005128:	00058413          	mv	s0,a1
    8000512c:	00060493          	mv	s1,a2
    80005130:	cedfe0ef          	jal	ra,80003e1c <lfs_file_size>
    80005134:	0005079b          	sext.w	a5,a0
    80005138:	06f4e463          	bltu	s1,a5,800051a0 <lfs_file_truncate+0xa4>
    8000513c:	00000513          	li	a0,0
    80005140:	0697f863          	bgeu	a5,s1,800051b0 <lfs_file_truncate+0xb4>
    80005144:	02c42983          	lw	s3,44(s0)
    80005148:	0d379463          	bne	a5,s3,80005210 <lfs_file_truncate+0x114>
    8000514c:	02c42783          	lw	a5,44(s0)
    80005150:	0297f463          	bgeu	a5,s1,80005178 <lfs_file_truncate+0x7c>
    80005154:	000107a3          	sb	zero,15(sp)
    80005158:	00100693          	li	a3,1
    8000515c:	00f10613          	addi	a2,sp,15
    80005160:	00040593          	mv	a1,s0
    80005164:	00090513          	mv	a0,s2
    80005168:	e24ff0ef          	jal	ra,8000478c <lfs_file_write>
    8000516c:	04054263          	bltz	a0,800051b0 <lfs_file_truncate+0xb4>
    80005170:	02c42783          	lw	a5,44(s0)
    80005174:	fe97e0e3          	bltu	a5,s1,80005154 <lfs_file_truncate+0x58>
    80005178:	00000693          	li	a3,0
    8000517c:	00098613          	mv	a2,s3
    80005180:	00040593          	mv	a1,s0
    80005184:	00090513          	mv	a0,s2
    80005188:	ec1ff0ef          	jal	ra,80005048 <lfs_file_seek>
    8000518c:	00152793          	slti	a5,a0,1
    80005190:	40f007bb          	negw	a5,a5
    80005194:	00f57533          	and	a0,a0,a5
    80005198:	0005051b          	sext.w	a0,a0
    8000519c:	0140006f          	j	800051b0 <lfs_file_truncate+0xb4>
    800051a0:	00040593          	mv	a1,s0
    800051a4:	00090513          	mv	a0,s2
    800051a8:	b59ff0ef          	jal	ra,80004d00 <lfs_file_flush>
    800051ac:	02050063          	beqz	a0,800051cc <lfs_file_truncate+0xd0>
    800051b0:	03813083          	ld	ra,56(sp)
    800051b4:	03013403          	ld	s0,48(sp)
    800051b8:	02813483          	ld	s1,40(sp)
    800051bc:	02013903          	ld	s2,32(sp)
    800051c0:	01813983          	ld	s3,24(sp)
    800051c4:	04010113          	addi	sp,sp,64
    800051c8:	00008067          	ret
    800051cc:	00012423          	sw	zero,8(sp)
    800051d0:	00810893          	addi	a7,sp,8
    800051d4:	01440813          	addi	a6,s0,20
    800051d8:	00048793          	mv	a5,s1
    800051dc:	01842703          	lw	a4,24(s0)
    800051e0:	01442683          	lw	a3,20(s0)
    800051e4:	00000613          	li	a2,0
    800051e8:	03840593          	addi	a1,s0,56
    800051ec:	00090513          	mv	a0,s2
    800051f0:	e84fe0ef          	jal	ra,80003874 <lfs_ctz_find>
    800051f4:	fa051ee3          	bnez	a0,800051b0 <lfs_file_truncate+0xb4>
    800051f8:	00942c23          	sw	s1,24(s0)
    800051fc:	02842783          	lw	a5,40(s0)
    80005200:	00010737          	lui	a4,0x10
    80005204:	00e7e7b3          	or	a5,a5,a4
    80005208:	02f42423          	sw	a5,40(s0)
    8000520c:	fa5ff06f          	j	800051b0 <lfs_file_truncate+0xb4>
    80005210:	00200693          	li	a3,2
    80005214:	00000613          	li	a2,0
    80005218:	00040593          	mv	a1,s0
    8000521c:	00090513          	mv	a0,s2
    80005220:	e29ff0ef          	jal	ra,80005048 <lfs_file_seek>
    80005224:	f20554e3          	bgez	a0,8000514c <lfs_file_truncate+0x50>
    80005228:	f89ff06f          	j	800051b0 <lfs_file_truncate+0xb4>
    8000522c:	ff700513          	li	a0,-9
    80005230:	00008067          	ret

0000000080005234 <lfs_deorphan>:
    80005234:	00100793          	li	a5,1
    80005238:	04f50c23          	sb	a5,88(a0)
    8000523c:	00852703          	lw	a4,8(a0)
    80005240:	fff00793          	li	a5,-1
    80005244:	22f70263          	beq	a4,a5,80005468 <lfs_deorphan+0x234>
    80005248:	f4010113          	addi	sp,sp,-192
    8000524c:	0a113c23          	sd	ra,184(sp)
    80005250:	0a813823          	sd	s0,176(sp)
    80005254:	0a913423          	sd	s1,168(sp)
    80005258:	0b213023          	sd	s2,160(sp)
    8000525c:	00050413          	mv	s0,a0
    80005260:	00c52703          	lw	a4,12(a0)
    80005264:	20f70663          	beq	a4,a5,80005470 <lfs_deorphan+0x23c>
    80005268:	06013823          	sd	zero,112(sp)
    8000526c:	06013c23          	sd	zero,120(sp)
    80005270:	08013023          	sd	zero,128(sp)
    80005274:	08013423          	sd	zero,136(sp)
    80005278:	08013823          	sd	zero,144(sp)
    8000527c:	08013c23          	sd	zero,152(sp)
    80005280:	800007b7          	lui	a5,0x80000
    80005284:	08f12a23          	sw	a5,148(sp)
    80005288:	04013023          	sd	zero,64(sp)
    8000528c:	04013423          	sd	zero,72(sp)
    80005290:	04013823          	sd	zero,80(sp)
    80005294:	04013c23          	sd	zero,88(sp)
    80005298:	06013023          	sd	zero,96(sp)
    8000529c:	06012423          	sw	zero,104(sp)
    800052a0:	00100793          	li	a5,1
    800052a4:	06f12623          	sw	a5,108(sp)
    800052a8:	00053783          	ld	a5,0(a0)
    800052ac:	0347a783          	lw	a5,52(a5) # ffffffff80000034 <_sp+0xfffffffef1000034>
    800052b0:	1c078463          	beqz	a5,80005478 <lfs_deorphan+0x244>
    800052b4:	00000913          	li	s2,0
    800052b8:	fff00493          	li	s1,-1
    800052bc:	0ac0006f          	j	80005368 <lfs_deorphan+0x134>
    800052c0:	06812783          	lw	a5,104(sp)
    800052c4:	08f12c23          	sw	a5,152(sp)
    800052c8:	06c12783          	lw	a5,108(sp)
    800052cc:	08f12e23          	sw	a5,156(sp)
    800052d0:	00000693          	li	a3,0
    800052d4:	00000613          	li	a2,0
    800052d8:	07010593          	addi	a1,sp,112
    800052dc:	00040513          	mv	a0,s0
    800052e0:	1a0000ef          	jal	ra,80005480 <lfs_dir_commit>
    800052e4:	1640006f          	j	80005448 <lfs_deorphan+0x214>
    800052e8:	00c12603          	lw	a2,12(sp)
    800052ec:	09c12683          	lw	a3,156(sp)
    800052f0:	0cd61663          	bne	a2,a3,800053bc <lfs_deorphan+0x188>
    800052f4:	0180006f          	j	8000530c <lfs_deorphan+0xd8>
    800052f8:	00c12683          	lw	a3,12(sp)
    800052fc:	0ce69463          	bne	a3,a4,800053c4 <lfs_deorphan+0x190>
    80005300:	00c0006f          	j	8000530c <lfs_deorphan+0xd8>
    80005304:	01410783          	lb	a5,20(sp)
    80005308:	0e07c063          	bltz	a5,800053e8 <lfs_deorphan+0x1b4>
    8000530c:	01010613          	addi	a2,sp,16
    80005310:	04010593          	addi	a1,sp,64
    80005314:	00040513          	mv	a0,s0
    80005318:	ff8fd0ef          	jal	ra,80002b10 <lfs_dir_next>
    8000531c:	fe0504e3          	beqz	a0,80005304 <lfs_deorphan+0xd0>
    80005320:	ffe00793          	li	a5,-2
    80005324:	12f51263          	bne	a0,a5,80005448 <lfs_deorphan+0x214>
    80005328:	04013783          	ld	a5,64(sp)
    8000532c:	06f13823          	sd	a5,112(sp)
    80005330:	04813783          	ld	a5,72(sp)
    80005334:	06f13c23          	sd	a5,120(sp)
    80005338:	05013783          	ld	a5,80(sp)
    8000533c:	08f13023          	sd	a5,128(sp)
    80005340:	05813783          	ld	a5,88(sp)
    80005344:	08f13423          	sd	a5,136(sp)
    80005348:	06013783          	ld	a5,96(sp)
    8000534c:	08f13823          	sd	a5,144(sp)
    80005350:	06813783          	ld	a5,104(sp)
    80005354:	08f13c23          	sd	a5,152(sp)
    80005358:	0019091b          	addiw	s2,s2,1
    8000535c:	00043783          	ld	a5,0(s0)
    80005360:	0347a783          	lw	a5,52(a5)
    80005364:	0cf97c63          	bgeu	s2,a5,8000543c <lfs_deorphan+0x208>
    80005368:	06812783          	lw	a5,104(sp)
    8000536c:	0c978c63          	beq	a5,s1,80005444 <lfs_deorphan+0x210>
    80005370:	06c12783          	lw	a5,108(sp)
    80005374:	0e978663          	beq	a5,s1,80005460 <lfs_deorphan+0x22c>
    80005378:	06810613          	addi	a2,sp,104
    8000537c:	04010593          	addi	a1,sp,64
    80005380:	00040513          	mv	a0,s0
    80005384:	d5cfd0ef          	jal	ra,800028e0 <lfs_dir_fetch>
    80005388:	0c051063          	bnez	a0,80005448 <lfs_deorphan+0x214>
    8000538c:	09412783          	lw	a5,148(sp)
    80005390:	f607cee3          	bltz	a5,8000530c <lfs_deorphan+0xd8>
    80005394:	00010693          	mv	a3,sp
    80005398:	01010613          	addi	a2,sp,16
    8000539c:	09810593          	addi	a1,sp,152
    800053a0:	00040513          	mv	a0,s0
    800053a4:	9d1fd0ef          	jal	ra,80002d74 <lfs_parent>
    800053a8:	0a054063          	bltz	a0,80005448 <lfs_deorphan+0x214>
    800053ac:	f0050ae3          	beqz	a0,800052c0 <lfs_deorphan+0x8c>
    800053b0:	00812783          	lw	a5,8(sp)
    800053b4:	09812703          	lw	a4,152(sp)
    800053b8:	f2e788e3          	beq	a5,a4,800052e8 <lfs_deorphan+0xb4>
    800053bc:	09c12683          	lw	a3,156(sp)
    800053c0:	f2f68ce3          	beq	a3,a5,800052f8 <lfs_deorphan+0xc4>
    800053c4:	08f12c23          	sw	a5,152(sp)
    800053c8:	00c12783          	lw	a5,12(sp)
    800053cc:	08f12e23          	sw	a5,156(sp)
    800053d0:	00000693          	li	a3,0
    800053d4:	00000613          	li	a2,0
    800053d8:	07010593          	addi	a1,sp,112
    800053dc:	00040513          	mv	a0,s0
    800053e0:	0a0000ef          	jal	ra,80005480 <lfs_dir_commit>
    800053e4:	0640006f          	j	80005448 <lfs_deorphan+0x214>
    800053e8:	01810593          	addi	a1,sp,24
    800053ec:	00040513          	mv	a0,s0
    800053f0:	889fd0ef          	jal	ra,80002c78 <lfs_moved>
    800053f4:	04054a63          	bltz	a0,80005448 <lfs_deorphan+0x214>
    800053f8:	00050e63          	beqz	a0,80005414 <lfs_deorphan+0x1e0>
    800053fc:	01010613          	addi	a2,sp,16
    80005400:	04010593          	addi	a1,sp,64
    80005404:	00040513          	mv	a0,s0
    80005408:	1e9000ef          	jal	ra,80005df0 <lfs_dir_remove>
    8000540c:	f00500e3          	beqz	a0,8000530c <lfs_deorphan+0xd8>
    80005410:	0380006f          	j	80005448 <lfs_deorphan+0x214>
    80005414:	01414783          	lbu	a5,20(sp)
    80005418:	07f7f793          	andi	a5,a5,127
    8000541c:	00f10a23          	sb	a5,20(sp)
    80005420:	00000693          	li	a3,0
    80005424:	01010613          	addi	a2,sp,16
    80005428:	04010593          	addi	a1,sp,64
    8000542c:	00040513          	mv	a0,s0
    80005430:	580000ef          	jal	ra,800059b0 <lfs_dir_update>
    80005434:	ec050ce3          	beqz	a0,8000530c <lfs_deorphan+0xd8>
    80005438:	0100006f          	j	80005448 <lfs_deorphan+0x214>
    8000543c:	fcc00513          	li	a0,-52
    80005440:	0080006f          	j	80005448 <lfs_deorphan+0x214>
    80005444:	00000513          	li	a0,0
    80005448:	0b813083          	ld	ra,184(sp)
    8000544c:	0b013403          	ld	s0,176(sp)
    80005450:	0a813483          	ld	s1,168(sp)
    80005454:	0a013903          	ld	s2,160(sp)
    80005458:	0c010113          	addi	sp,sp,192
    8000545c:	00008067          	ret
    80005460:	00000513          	li	a0,0
    80005464:	fe5ff06f          	j	80005448 <lfs_deorphan+0x214>
    80005468:	00000513          	li	a0,0
    8000546c:	00008067          	ret
    80005470:	00000513          	li	a0,0
    80005474:	fd5ff06f          	j	80005448 <lfs_deorphan+0x214>
    80005478:	fcc00513          	li	a0,-52
    8000547c:	fcdff06f          	j	80005448 <lfs_deorphan+0x214>

0000000080005480 <lfs_dir_commit>:
    80005480:	f3010113          	addi	sp,sp,-208
    80005484:	0c113423          	sd	ra,200(sp)
    80005488:	0c813023          	sd	s0,192(sp)
    8000548c:	0a913c23          	sd	s1,184(sp)
    80005490:	0b213823          	sd	s2,176(sp)
    80005494:	0b313423          	sd	s3,168(sp)
    80005498:	0b413023          	sd	s4,160(sp)
    8000549c:	09513c23          	sd	s5,152(sp)
    800054a0:	09613823          	sd	s6,144(sp)
    800054a4:	09713423          	sd	s7,136(sp)
    800054a8:	09813023          	sd	s8,128(sp)
    800054ac:	07913c23          	sd	s9,120(sp)
    800054b0:	07a13823          	sd	s10,112(sp)
    800054b4:	07b13423          	sd	s11,104(sp)
    800054b8:	00050493          	mv	s1,a0
    800054bc:	00058413          	mv	s0,a1
    800054c0:	00060a13          	mv	s4,a2
    800054c4:	00068993          	mv	s3,a3
    800054c8:	0205a783          	lw	a5,32(a1)
    800054cc:	0017879b          	addiw	a5,a5,1
    800054d0:	02f5a023          	sw	a5,32(a1)
    800054d4:	00858d93          	addi	s11,a1,8
    800054d8:	0085a583          	lw	a1,8(a1)
    800054dc:	00c42503          	lw	a0,12(s0)
    800054e0:	00a42423          	sw	a0,8(s0)
    800054e4:	00b42623          	sw	a1,12(s0)
    800054e8:	04d05463          	blez	a3,80005530 <lfs_dir_commit+0xb0>
    800054ec:	00460713          	addi	a4,a2,4
    800054f0:	fff6861b          	addiw	a2,a3,-1
    800054f4:	02061793          	slli	a5,a2,0x20
    800054f8:	0207d793          	srli	a5,a5,0x20
    800054fc:	00179613          	slli	a2,a5,0x1
    80005500:	00f60633          	add	a2,a2,a5
    80005504:	00361613          	slli	a2,a2,0x3
    80005508:	01ca0793          	addi	a5,s4,28
    8000550c:	00f60633          	add	a2,a2,a5
    80005510:	02442783          	lw	a5,36(s0)
    80005514:	00c72683          	lw	a3,12(a4) # 1000c <_start-0x7ffefff4>
    80005518:	00d787bb          	addw	a5,a5,a3
    8000551c:	00072683          	lw	a3,0(a4)
    80005520:	40d787bb          	subw	a5,a5,a3
    80005524:	02f42223          	sw	a5,36(s0)
    80005528:	01870713          	addi	a4,a4,24
    8000552c:	fec712e3          	bne	a4,a2,80005510 <lfs_dir_commit+0x90>
    80005530:	04a12c23          	sw	a0,88(sp)
    80005534:	04b12e23          	sw	a1,92(sp)
    80005538:	00013023          	sd	zero,0(sp)
    8000553c:	02040d13          	addi	s10,s0,32
    80005540:	03048c93          	addi	s9,s1,48
    80005544:	80000c37          	lui	s8,0x80000
    80005548:	fffc4c13          	not	s8,s8
    8000554c:	00842583          	lw	a1,8(s0)
    80005550:	00048513          	mv	a0,s1
    80005554:	d59fc0ef          	jal	ra,800022ac <lfs_bd_erase>
    80005558:	04050263          	beqz	a0,8000559c <lfs_dir_commit+0x11c>
    8000555c:	fcc00793          	li	a5,-52
    80005560:	40f51663          	bne	a0,a5,8000596c <lfs_dir_commit+0x4ec>
    80005564:	fff00793          	li	a5,-1
    80005568:	02f4a823          	sw	a5,48(s1)
    8000556c:	05812703          	lw	a4,88(sp)
    80005570:	00100793          	li	a5,1
    80005574:	3ee7fa63          	bgeu	a5,a4,80005968 <lfs_dir_commit+0x4e8>
    80005578:	05c12703          	lw	a4,92(sp)
    8000557c:	42e7f663          	bgeu	a5,a4,800059a8 <lfs_dir_commit+0x528>
    80005580:	000d8593          	mv	a1,s11
    80005584:	00048513          	mv	a0,s1
    80005588:	e49fe0ef          	jal	ra,800043d0 <lfs_alloc>
    8000558c:	00100793          	li	a5,1
    80005590:	00f13023          	sd	a5,0(sp)
    80005594:	fa050ce3          	beqz	a0,8000554c <lfs_dir_commit+0xcc>
    80005598:	3d40006f          	j	8000596c <lfs_dir_commit+0x4ec>
    8000559c:	fff00793          	li	a5,-1
    800055a0:	00f12c23          	sw	a5,24(sp)
    800055a4:	000d0513          	mv	a0,s10
    800055a8:	e59fc0ef          	jal	ra,80002400 <lfs_dir_tole32>
    800055ac:	01000613          	li	a2,16
    800055b0:	000d0593          	mv	a1,s10
    800055b4:	01810513          	addi	a0,sp,24
    800055b8:	400010ef          	jal	ra,800069b8 <lfs_crc>
    800055bc:	01000813          	li	a6,16
    800055c0:	000d0793          	mv	a5,s10
    800055c4:	00000713          	li	a4,0
    800055c8:	00842683          	lw	a3,8(s0)
    800055cc:	00000613          	li	a2,0
    800055d0:	000c8593          	mv	a1,s9
    800055d4:	00048513          	mv	a0,s1
    800055d8:	f8dfd0ef          	jal	ra,80003564 <lfs_cache_prog>
    800055dc:	00050a93          	mv	s5,a0
    800055e0:	000d0513          	mv	a0,s10
    800055e4:	d39fc0ef          	jal	ra,8000231c <lfs_dir_fromle32>
    800055e8:	000a8a63          	beqz	s5,800055fc <lfs_dir_commit+0x17c>
    800055ec:	fcc00793          	li	a5,-52
    800055f0:	f6fa8ae3          	beq	s5,a5,80005564 <lfs_dir_commit+0xe4>
    800055f4:	000a8513          	mv	a0,s5
    800055f8:	3740006f          	j	8000596c <lfs_dir_commit+0x4ec>
    800055fc:	02442783          	lw	a5,36(s0)
    80005600:	0187f7b3          	and	a5,a5,s8
    80005604:	ffc7879b          	addiw	a5,a5,-4
    80005608:	01000713          	li	a4,16
    8000560c:	01000b13          	li	s6,16
    80005610:	01000b93          	li	s7,16
    80005614:	10f76c63          	bltu	a4,a5,8000572c <lfs_dir_commit+0x2ac>
    80005618:	01812703          	lw	a4,24(sp)
    8000561c:	00875793          	srli	a5,a4,0x8
    80005620:	0ff7f793          	andi	a5,a5,255
    80005624:	0087979b          	slliw	a5,a5,0x8
    80005628:	01075693          	srli	a3,a4,0x10
    8000562c:	0ff6f693          	andi	a3,a3,255
    80005630:	0106969b          	slliw	a3,a3,0x10
    80005634:	00d7e7b3          	or	a5,a5,a3
    80005638:	0ff77693          	andi	a3,a4,255
    8000563c:	00d7e7b3          	or	a5,a5,a3
    80005640:	0187571b          	srliw	a4,a4,0x18
    80005644:	0187171b          	slliw	a4,a4,0x18
    80005648:	00e7e7b3          	or	a5,a5,a4
    8000564c:	00f12c23          	sw	a5,24(sp)
    80005650:	00400813          	li	a6,4
    80005654:	01810793          	addi	a5,sp,24
    80005658:	000b0713          	mv	a4,s6
    8000565c:	00842683          	lw	a3,8(s0)
    80005660:	00000613          	li	a2,0
    80005664:	000c8593          	mv	a1,s9
    80005668:	00048513          	mv	a0,s1
    8000566c:	ef9fd0ef          	jal	ra,80003564 <lfs_cache_prog>
    80005670:	01812703          	lw	a4,24(sp)
    80005674:	00875793          	srli	a5,a4,0x8
    80005678:	0ff7f793          	andi	a5,a5,255
    8000567c:	0087979b          	slliw	a5,a5,0x8
    80005680:	01075693          	srli	a3,a4,0x10
    80005684:	0ff6f693          	andi	a3,a3,255
    80005688:	0106969b          	slliw	a3,a3,0x10
    8000568c:	00d7e7b3          	or	a5,a5,a3
    80005690:	0ff77693          	andi	a3,a4,255
    80005694:	00d7e7b3          	or	a5,a5,a3
    80005698:	0187571b          	srliw	a4,a4,0x18
    8000569c:	0187171b          	slliw	a4,a4,0x18
    800056a0:	00e7e7b3          	or	a5,a5,a4
    800056a4:	00f12c23          	sw	a5,24(sp)
    800056a8:	0e050c63          	beqz	a0,800057a0 <lfs_dir_commit+0x320>
    800056ac:	fcc00793          	li	a5,-52
    800056b0:	eaf50ae3          	beq	a0,a5,80005564 <lfs_dir_commit+0xe4>
    800056b4:	2b80006f          	j	8000596c <lfs_dir_commit+0x4ec>
    800056b8:	fcc00793          	li	a5,-52
    800056bc:	eaf504e3          	beq	a0,a5,80005564 <lfs_dir_commit+0xe4>
    800056c0:	2ac0006f          	j	8000596c <lfs_dir_commit+0x4ec>
    800056c4:	00100713          	li	a4,1
    800056c8:	02810693          	addi	a3,sp,40
    800056cc:	000b8613          	mv	a2,s7
    800056d0:	05c12583          	lw	a1,92(sp)
    800056d4:	00048513          	mv	a0,s1
    800056d8:	9d8fd0ef          	jal	ra,800028b0 <lfs_bd_read>
    800056dc:	28051863          	bnez	a0,8000596c <lfs_dir_commit+0x4ec>
    800056e0:	00100613          	li	a2,1
    800056e4:	02810593          	addi	a1,sp,40
    800056e8:	01810513          	addi	a0,sp,24
    800056ec:	2cc010ef          	jal	ra,800069b8 <lfs_crc>
    800056f0:	00100813          	li	a6,1
    800056f4:	02810793          	addi	a5,sp,40
    800056f8:	000b0713          	mv	a4,s6
    800056fc:	00842683          	lw	a3,8(s0)
    80005700:	00000613          	li	a2,0
    80005704:	000c8593          	mv	a1,s9
    80005708:	00048513          	mv	a0,s1
    8000570c:	e59fd0ef          	jal	ra,80003564 <lfs_cache_prog>
    80005710:	08051263          	bnez	a0,80005794 <lfs_dir_commit+0x314>
    80005714:	001b8b9b          	addiw	s7,s7,1
    80005718:	001b0b1b          	addiw	s6,s6,1
    8000571c:	02442783          	lw	a5,36(s0)
    80005720:	0187f7b3          	and	a5,a5,s8
    80005724:	ffc7879b          	addiw	a5,a5,-4
    80005728:	eefb78e3          	bgeu	s6,a5,80005618 <lfs_dir_commit+0x198>
    8000572c:	f93adce3          	bge	s5,s3,800056c4 <lfs_dir_commit+0x244>
    80005730:	001a9913          	slli	s2,s5,0x1
    80005734:	01590933          	add	s2,s2,s5
    80005738:	00391913          	slli	s2,s2,0x3
    8000573c:	012a0933          	add	s2,s4,s2
    80005740:	00092783          	lw	a5,0(s2)
    80005744:	f97790e3          	bne	a5,s7,800056c4 <lfs_dir_commit+0x244>
    80005748:	01096603          	lwu	a2,16(s2)
    8000574c:	00893583          	ld	a1,8(s2)
    80005750:	01810513          	addi	a0,sp,24
    80005754:	264010ef          	jal	ra,800069b8 <lfs_crc>
    80005758:	01092803          	lw	a6,16(s2)
    8000575c:	00893783          	ld	a5,8(s2)
    80005760:	000b0713          	mv	a4,s6
    80005764:	00842683          	lw	a3,8(s0)
    80005768:	00000613          	li	a2,0
    8000576c:	000c8593          	mv	a1,s9
    80005770:	00048513          	mv	a0,s1
    80005774:	df1fd0ef          	jal	ra,80003564 <lfs_cache_prog>
    80005778:	f40510e3          	bnez	a0,800056b8 <lfs_dir_commit+0x238>
    8000577c:	00492783          	lw	a5,4(s2)
    80005780:	01778bbb          	addw	s7,a5,s7
    80005784:	01092783          	lw	a5,16(s2)
    80005788:	01678b3b          	addw	s6,a5,s6
    8000578c:	001a8a9b          	addiw	s5,s5,1
    80005790:	f8dff06f          	j	8000571c <lfs_dir_commit+0x29c>
    80005794:	fcc00793          	li	a5,-52
    80005798:	dcf506e3          	beq	a0,a5,80005564 <lfs_dir_commit+0xe4>
    8000579c:	1d00006f          	j	8000596c <lfs_dir_commit+0x4ec>
    800057a0:	fff00793          	li	a5,-1
    800057a4:	02f4a023          	sw	a5,32(s1)
    800057a8:	00000613          	li	a2,0
    800057ac:	000c8593          	mv	a1,s9
    800057b0:	00048513          	mv	a0,s1
    800057b4:	ce1fd0ef          	jal	ra,80003494 <lfs_cache_flush>
    800057b8:	00050a93          	mv	s5,a0
    800057bc:	00051c63          	bnez	a0,800057d4 <lfs_dir_commit+0x354>
    800057c0:	0004b503          	ld	a0,0(s1)
    800057c4:	02053783          	ld	a5,32(a0)
    800057c8:	000780e7          	jalr	a5
    800057cc:	00050a93          	mv	s5,a0
    800057d0:	00050a63          	beqz	a0,800057e4 <lfs_dir_commit+0x364>
    800057d4:	fcc00793          	li	a5,-52
    800057d8:	d8fa86e3          	beq	s5,a5,80005564 <lfs_dir_commit+0xe4>
    800057dc:	000a8513          	mv	a0,s5
    800057e0:	18c0006f          	j	8000596c <lfs_dir_commit+0x4ec>
    800057e4:	fff00793          	li	a5,-1
    800057e8:	02f12423          	sw	a5,40(sp)
    800057ec:	00842783          	lw	a5,8(s0)
    800057f0:	00f13423          	sd	a5,8(sp)
    800057f4:	02442b03          	lw	s6,36(s0)
    800057f8:	018b7b33          	and	s6,s6,s8
    800057fc:	ffcb0b1b          	addiw	s6,s6,-4
    80005800:	02048b93          	addi	s7,s1,32
    80005804:	040b0263          	beqz	s6,80005848 <lfs_dir_commit+0x3c8>
    80005808:	00000913          	li	s2,0
    8000580c:	00100813          	li	a6,1
    80005810:	01710793          	addi	a5,sp,23
    80005814:	00090713          	mv	a4,s2
    80005818:	00813683          	ld	a3,8(sp)
    8000581c:	00000613          	li	a2,0
    80005820:	000b8593          	mv	a1,s7
    80005824:	00048513          	mv	a0,s1
    80005828:	e89fc0ef          	jal	ra,800026b0 <lfs_cache_read>
    8000582c:	14051063          	bnez	a0,8000596c <lfs_dir_commit+0x4ec>
    80005830:	00100613          	li	a2,1
    80005834:	01710593          	addi	a1,sp,23
    80005838:	02810513          	addi	a0,sp,40
    8000583c:	17c010ef          	jal	ra,800069b8 <lfs_crc>
    80005840:	0019091b          	addiw	s2,s2,1
    80005844:	fd2b14e3          	bne	s6,s2,8000580c <lfs_dir_commit+0x38c>
    80005848:	02812703          	lw	a4,40(sp)
    8000584c:	01812783          	lw	a5,24(sp)
    80005850:	d0f71ae3          	bne	a4,a5,80005564 <lfs_dir_commit+0xe4>
    80005854:	00013783          	ld	a5,0(sp)
    80005858:	00079663          	bnez	a5,80005864 <lfs_dir_commit+0x3e4>
    8000585c:	0184b783          	ld	a5,24(s1)
    80005860:	0d80006f          	j	80005938 <lfs_dir_commit+0x4b8>
    80005864:	01810693          	addi	a3,sp,24
    80005868:	02810613          	addi	a2,sp,40
    8000586c:	05810593          	addi	a1,sp,88
    80005870:	00048513          	mv	a0,s1
    80005874:	d00fd0ef          	jal	ra,80002d74 <lfs_parent>
    80005878:	0e054a63          	bltz	a0,8000596c <lfs_dir_commit+0x4ec>
    8000587c:	06050663          	beqz	a0,800058e8 <lfs_dir_commit+0x468>
    80005880:	00842783          	lw	a5,8(s0)
    80005884:	02f12023          	sw	a5,32(sp)
    80005888:	00c42783          	lw	a5,12(s0)
    8000588c:	02f12223          	sw	a5,36(sp)
    80005890:	00000693          	li	a3,0
    80005894:	01810613          	addi	a2,sp,24
    80005898:	02810593          	addi	a1,sp,40
    8000589c:	00048513          	mv	a0,s1
    800058a0:	110000ef          	jal	ra,800059b0 <lfs_dir_update>
    800058a4:	0c051463          	bnez	a0,8000596c <lfs_dir_commit+0x4ec>
    800058a8:	05812603          	lw	a2,88(sp)
    800058ac:	0084a703          	lw	a4,8(s1)
    800058b0:	00e60c63          	beq	a2,a4,800058c8 <lfs_dir_commit+0x448>
    800058b4:	05c12783          	lw	a5,92(sp)
    800058b8:	00c4a683          	lw	a3,12(s1)
    800058bc:	00d78663          	beq	a5,a3,800058c8 <lfs_dir_commit+0x448>
    800058c0:	00d60463          	beq	a2,a3,800058c8 <lfs_dir_commit+0x448>
    800058c4:	00f71a63          	bne	a4,a5,800058d8 <lfs_dir_commit+0x458>
    800058c8:	00842783          	lw	a5,8(s0)
    800058cc:	00f4a423          	sw	a5,8(s1)
    800058d0:	00c42783          	lw	a5,12(s0)
    800058d4:	00f4a623          	sw	a5,12(s1)
    800058d8:	00048513          	mv	a0,s1
    800058dc:	959ff0ef          	jal	ra,80005234 <lfs_deorphan>
    800058e0:	f6050ee3          	beqz	a0,8000585c <lfs_dir_commit+0x3dc>
    800058e4:	0880006f          	j	8000596c <lfs_dir_commit+0x4ec>
    800058e8:	02810613          	addi	a2,sp,40
    800058ec:	05810593          	addi	a1,sp,88
    800058f0:	00048513          	mv	a0,s1
    800058f4:	dc0fd0ef          	jal	ra,80002eb4 <lfs_pred>
    800058f8:	06054a63          	bltz	a0,8000596c <lfs_dir_commit+0x4ec>
    800058fc:	f60500e3          	beqz	a0,8000585c <lfs_dir_commit+0x3dc>
    80005900:	00842783          	lw	a5,8(s0)
    80005904:	04f12823          	sw	a5,80(sp)
    80005908:	00c42783          	lw	a5,12(s0)
    8000590c:	04f12a23          	sw	a5,84(sp)
    80005910:	00000693          	li	a3,0
    80005914:	00000613          	li	a2,0
    80005918:	02810593          	addi	a1,sp,40
    8000591c:	00048513          	mv	a0,s1
    80005920:	b61ff0ef          	jal	ra,80005480 <lfs_dir_commit>
    80005924:	fbdff06f          	j	800058e0 <lfs_dir_commit+0x460>
    80005928:	00e7a423          	sw	a4,8(a5)
    8000592c:	00c42703          	lw	a4,12(s0)
    80005930:	00e7a623          	sw	a4,12(a5)
    80005934:	0007b783          	ld	a5,0(a5)
    80005938:	02078463          	beqz	a5,80005960 <lfs_dir_commit+0x4e0>
    8000593c:	0087a583          	lw	a1,8(a5)
    80005940:	00842703          	lw	a4,8(s0)
    80005944:	fee582e3          	beq	a1,a4,80005928 <lfs_dir_commit+0x4a8>
    80005948:	00c7a683          	lw	a3,12(a5)
    8000594c:	00c42603          	lw	a2,12(s0)
    80005950:	fcc68ce3          	beq	a3,a2,80005928 <lfs_dir_commit+0x4a8>
    80005954:	fcc58ae3          	beq	a1,a2,80005928 <lfs_dir_commit+0x4a8>
    80005958:	fcd71ee3          	bne	a4,a3,80005934 <lfs_dir_commit+0x4b4>
    8000595c:	fcdff06f          	j	80005928 <lfs_dir_commit+0x4a8>
    80005960:	000a8513          	mv	a0,s5
    80005964:	0080006f          	j	8000596c <lfs_dir_commit+0x4ec>
    80005968:	fcc00513          	li	a0,-52
    8000596c:	0c813083          	ld	ra,200(sp)
    80005970:	0c013403          	ld	s0,192(sp)
    80005974:	0b813483          	ld	s1,184(sp)
    80005978:	0b013903          	ld	s2,176(sp)
    8000597c:	0a813983          	ld	s3,168(sp)
    80005980:	0a013a03          	ld	s4,160(sp)
    80005984:	09813a83          	ld	s5,152(sp)
    80005988:	09013b03          	ld	s6,144(sp)
    8000598c:	08813b83          	ld	s7,136(sp)
    80005990:	08013c03          	ld	s8,128(sp)
    80005994:	07813c83          	ld	s9,120(sp)
    80005998:	07013d03          	ld	s10,112(sp)
    8000599c:	06813d83          	ld	s11,104(sp)
    800059a0:	0d010113          	addi	sp,sp,208
    800059a4:	00008067          	ret
    800059a8:	fcc00513          	li	a0,-52
    800059ac:	fc1ff06f          	j	8000596c <lfs_dir_commit+0x4ec>

00000000800059b0 <lfs_dir_update>:
    800059b0:	fa010113          	addi	sp,sp,-96
    800059b4:	04113c23          	sd	ra,88(sp)
    800059b8:	04813823          	sd	s0,80(sp)
    800059bc:	04913423          	sd	s1,72(sp)
    800059c0:	05213023          	sd	s2,64(sp)
    800059c4:	03313c23          	sd	s3,56(sp)
    800059c8:	03413823          	sd	s4,48(sp)
    800059cc:	00050993          	mv	s3,a0
    800059d0:	00058a13          	mv	s4,a1
    800059d4:	00060493          	mv	s1,a2
    800059d8:	00068413          	mv	s0,a3
    800059dc:	00460913          	addi	s2,a2,4
    800059e0:	00090513          	mv	a0,s2
    800059e4:	b75fc0ef          	jal	ra,80002558 <lfs_entry_tole32>
    800059e8:	0004a783          	lw	a5,0(s1)
    800059ec:	00f12023          	sw	a5,0(sp)
    800059f0:	00c00713          	li	a4,12
    800059f4:	00e12223          	sw	a4,4(sp)
    800059f8:	01213423          	sd	s2,8(sp)
    800059fc:	00e12823          	sw	a4,16(sp)
    80005a00:	00c7879b          	addiw	a5,a5,12
    80005a04:	00f12c23          	sw	a5,24(sp)
    80005a08:	0074c783          	lbu	a5,7(s1)
    80005a0c:	00f12e23          	sw	a5,28(sp)
    80005a10:	02813023          	sd	s0,32(sp)
    80005a14:	02f12423          	sw	a5,40(sp)
    80005a18:	008036b3          	snez	a3,s0
    80005a1c:	00168693          	addi	a3,a3,1
    80005a20:	00010613          	mv	a2,sp
    80005a24:	000a0593          	mv	a1,s4
    80005a28:	00098513          	mv	a0,s3
    80005a2c:	a55ff0ef          	jal	ra,80005480 <lfs_dir_commit>
    80005a30:	00050413          	mv	s0,a0
    80005a34:	00090513          	mv	a0,s2
    80005a38:	aadfc0ef          	jal	ra,800024e4 <lfs_entry_fromle32>
    80005a3c:	00040513          	mv	a0,s0
    80005a40:	05813083          	ld	ra,88(sp)
    80005a44:	05013403          	ld	s0,80(sp)
    80005a48:	04813483          	ld	s1,72(sp)
    80005a4c:	04013903          	ld	s2,64(sp)
    80005a50:	03813983          	ld	s3,56(sp)
    80005a54:	03013a03          	ld	s4,48(sp)
    80005a58:	06010113          	addi	sp,sp,96
    80005a5c:	00008067          	ret

0000000080005a60 <lfs_file_sync>:
    80005a60:	fa010113          	addi	sp,sp,-96
    80005a64:	04113c23          	sd	ra,88(sp)
    80005a68:	04813823          	sd	s0,80(sp)
    80005a6c:	04913423          	sd	s1,72(sp)
    80005a70:	05213023          	sd	s2,64(sp)
    80005a74:	00050913          	mv	s2,a0
    80005a78:	00058493          	mv	s1,a1
    80005a7c:	a84ff0ef          	jal	ra,80004d00 <lfs_file_flush>
    80005a80:	00050413          	mv	s0,a0
    80005a84:	00051c63          	bnez	a0,80005a9c <lfs_file_sync+0x3c>
    80005a88:	0284b703          	ld	a4,40(s1)
    80005a8c:	000907b7          	lui	a5,0x90
    80005a90:	00e7f7b3          	and	a5,a5,a4
    80005a94:	00010737          	lui	a4,0x10
    80005a98:	02e78063          	beq	a5,a4,80005ab8 <lfs_file_sync+0x58>
    80005a9c:	00040513          	mv	a0,s0
    80005aa0:	05813083          	ld	ra,88(sp)
    80005aa4:	05013403          	ld	s0,80(sp)
    80005aa8:	04813483          	ld	s1,72(sp)
    80005aac:	04013903          	ld	s2,64(sp)
    80005ab0:	06010113          	addi	sp,sp,96
    80005ab4:	00008067          	ret
    80005ab8:	0084a703          	lw	a4,8(s1)
    80005abc:	fff00793          	li	a5,-1
    80005ac0:	fcf70ee3          	beq	a4,a5,80005a9c <lfs_file_sync+0x3c>
    80005ac4:	00c4a703          	lw	a4,12(s1)
    80005ac8:	fcf70ae3          	beq	a4,a5,80005a9c <lfs_file_sync+0x3c>
    80005acc:	00848613          	addi	a2,s1,8
    80005ad0:	01010593          	addi	a1,sp,16
    80005ad4:	00090513          	mv	a0,s2
    80005ad8:	e09fc0ef          	jal	ra,800028e0 <lfs_dir_fetch>
    80005adc:	00050413          	mv	s0,a0
    80005ae0:	fa051ee3          	bnez	a0,80005a9c <lfs_file_sync+0x3c>
    80005ae4:	00013023          	sd	zero,0(sp)
    80005ae8:	00013423          	sd	zero,8(sp)
    80005aec:	0104a603          	lw	a2,16(s1)
    80005af0:	00c12023          	sw	a2,0(sp)
    80005af4:	00c00713          	li	a4,12
    80005af8:	00410693          	addi	a3,sp,4
    80005afc:	01812583          	lw	a1,24(sp)
    80005b00:	00090513          	mv	a0,s2
    80005b04:	dadfc0ef          	jal	ra,800028b0 <lfs_bd_read>
    80005b08:	00050413          	mv	s0,a0
    80005b0c:	00410513          	addi	a0,sp,4
    80005b10:	9d5fc0ef          	jal	ra,800024e4 <lfs_entry_fromle32>
    80005b14:	f80414e3          	bnez	s0,80005a9c <lfs_file_sync+0x3c>
    80005b18:	0144a783          	lw	a5,20(s1)
    80005b1c:	00f12423          	sw	a5,8(sp)
    80005b20:	0184a783          	lw	a5,24(s1)
    80005b24:	00f12623          	sw	a5,12(sp)
    80005b28:	00000693          	li	a3,0
    80005b2c:	00010613          	mv	a2,sp
    80005b30:	01010593          	addi	a1,sp,16
    80005b34:	00090513          	mv	a0,s2
    80005b38:	e79ff0ef          	jal	ra,800059b0 <lfs_dir_update>
    80005b3c:	00050413          	mv	s0,a0
    80005b40:	f4051ee3          	bnez	a0,80005a9c <lfs_file_sync+0x3c>
    80005b44:	0284a783          	lw	a5,40(s1)
    80005b48:	ffff0737          	lui	a4,0xffff0
    80005b4c:	fff70713          	addi	a4,a4,-1 # fffffffffffeffff <_sp+0xffffffff70feffff>
    80005b50:	00e7f7b3          	and	a5,a5,a4
    80005b54:	02f4a423          	sw	a5,40(s1)
    80005b58:	f45ff06f          	j	80005a9c <lfs_file_sync+0x3c>

0000000080005b5c <lfs_file_close>:
    80005b5c:	fe010113          	addi	sp,sp,-32
    80005b60:	00113c23          	sd	ra,24(sp)
    80005b64:	00813823          	sd	s0,16(sp)
    80005b68:	00913423          	sd	s1,8(sp)
    80005b6c:	01213023          	sd	s2,0(sp)
    80005b70:	00050493          	mv	s1,a0
    80005b74:	00058413          	mv	s0,a1
    80005b78:	ee9ff0ef          	jal	ra,80005a60 <lfs_file_sync>
    80005b7c:	00050913          	mv	s2,a0
    80005b80:	0104b783          	ld	a5,16(s1)
    80005b84:	02078063          	beqz	a5,80005ba4 <lfs_file_close+0x48>
    80005b88:	04f40463          	beq	s0,a5,80005bd0 <lfs_file_close+0x74>
    80005b8c:	00078713          	mv	a4,a5
    80005b90:	0007b783          	ld	a5,0(a5) # 90000 <_start-0x7ff70000>
    80005b94:	00078863          	beqz	a5,80005ba4 <lfs_file_close+0x48>
    80005b98:	fef41ae3          	bne	s0,a5,80005b8c <lfs_file_close+0x30>
    80005b9c:	00043783          	ld	a5,0(s0)
    80005ba0:	00f73023          	sd	a5,0(a4)
    80005ba4:	02043783          	ld	a5,32(s0)
    80005ba8:	02078863          	beqz	a5,80005bd8 <lfs_file_close+0x7c>
    80005bac:	0007b783          	ld	a5,0(a5)
    80005bb0:	02078463          	beqz	a5,80005bd8 <lfs_file_close+0x7c>
    80005bb4:	00090513          	mv	a0,s2
    80005bb8:	01813083          	ld	ra,24(sp)
    80005bbc:	01013403          	ld	s0,16(sp)
    80005bc0:	00813483          	ld	s1,8(sp)
    80005bc4:	00013903          	ld	s2,0(sp)
    80005bc8:	02010113          	addi	sp,sp,32
    80005bcc:	00008067          	ret
    80005bd0:	01048713          	addi	a4,s1,16
    80005bd4:	fc9ff06f          	j	80005b9c <lfs_file_close+0x40>
    80005bd8:	0004b783          	ld	a5,0(s1)
    80005bdc:	0587b783          	ld	a5,88(a5)
    80005be0:	fc079ae3          	bnez	a5,80005bb4 <lfs_file_close+0x58>
    80005be4:	04043503          	ld	a0,64(s0)
    80005be8:	7e5000ef          	jal	ra,80006bcc <free>
    80005bec:	fc9ff06f          	j	80005bb4 <lfs_file_close+0x58>

0000000080005bf0 <lfs_dir_append>:
    80005bf0:	f6010113          	addi	sp,sp,-160
    80005bf4:	08113c23          	sd	ra,152(sp)
    80005bf8:	08813823          	sd	s0,144(sp)
    80005bfc:	08913423          	sd	s1,136(sp)
    80005c00:	09213023          	sd	s2,128(sp)
    80005c04:	07313c23          	sd	s3,120(sp)
    80005c08:	07413823          	sd	s4,112(sp)
    80005c0c:	07513423          	sd	s5,104(sp)
    80005c10:	00050993          	mv	s3,a0
    80005c14:	00058913          	mv	s2,a1
    80005c18:	00060493          	mv	s1,a2
    80005c1c:	00068a13          	mv	s4,a3
    80005c20:	02858a93          	addi	s5,a1,40
    80005c24:	02492703          	lw	a4,36(s2)
    80005c28:	0054c783          	lbu	a5,5(s1)
    80005c2c:	0047879b          	addiw	a5,a5,4
    80005c30:	0064c683          	lbu	a3,6(s1)
    80005c34:	00d787bb          	addw	a5,a5,a3
    80005c38:	0074c683          	lbu	a3,7(s1)
    80005c3c:	00d787bb          	addw	a5,a5,a3
    80005c40:	0009b683          	ld	a3,0(s3)
    80005c44:	00e787bb          	addw	a5,a5,a4
    80005c48:	0306a683          	lw	a3,48(a3)
    80005c4c:	02f6f263          	bgeu	a3,a5,80005c70 <lfs_dir_append+0x80>
    80005c50:	0a075463          	bgez	a4,80005cf8 <lfs_dir_append+0x108>
    80005c54:	000a8613          	mv	a2,s5
    80005c58:	00090593          	mv	a1,s2
    80005c5c:	00098513          	mv	a0,s3
    80005c60:	c81fc0ef          	jal	ra,800028e0 <lfs_dir_fetch>
    80005c64:	00050413          	mv	s0,a0
    80005c68:	fa050ee3          	beqz	a0,80005c24 <lfs_dir_append+0x34>
    80005c6c:	0640006f          	j	80005cd0 <lfs_dir_append+0xe0>
    80005c70:	ffc7071b          	addiw	a4,a4,-4
    80005c74:	00e4a023          	sw	a4,0(s1)
    80005c78:	00448a93          	addi	s5,s1,4
    80005c7c:	000a8513          	mv	a0,s5
    80005c80:	8d9fc0ef          	jal	ra,80002558 <lfs_entry_tole32>
    80005c84:	0004a783          	lw	a5,0(s1)
    80005c88:	02f12823          	sw	a5,48(sp)
    80005c8c:	02012a23          	sw	zero,52(sp)
    80005c90:	03513c23          	sd	s5,56(sp)
    80005c94:	00c00713          	li	a4,12
    80005c98:	04e12023          	sw	a4,64(sp)
    80005c9c:	04f12423          	sw	a5,72(sp)
    80005ca0:	04012623          	sw	zero,76(sp)
    80005ca4:	05413823          	sd	s4,80(sp)
    80005ca8:	0074c783          	lbu	a5,7(s1)
    80005cac:	04f12c23          	sw	a5,88(sp)
    80005cb0:	00200693          	li	a3,2
    80005cb4:	03010613          	addi	a2,sp,48
    80005cb8:	00090593          	mv	a1,s2
    80005cbc:	00098513          	mv	a0,s3
    80005cc0:	fc0ff0ef          	jal	ra,80005480 <lfs_dir_commit>
    80005cc4:	00050413          	mv	s0,a0
    80005cc8:	000a8513          	mv	a0,s5
    80005ccc:	819fc0ef          	jal	ra,800024e4 <lfs_entry_fromle32>
    80005cd0:	00040513          	mv	a0,s0
    80005cd4:	09813083          	ld	ra,152(sp)
    80005cd8:	09013403          	ld	s0,144(sp)
    80005cdc:	08813483          	ld	s1,136(sp)
    80005ce0:	08013903          	ld	s2,128(sp)
    80005ce4:	07813983          	ld	s3,120(sp)
    80005ce8:	07013a03          	ld	s4,112(sp)
    80005cec:	06813a83          	ld	s5,104(sp)
    80005cf0:	0a010113          	addi	sp,sp,160
    80005cf4:	00008067          	ret
    80005cf8:	00093503          	ld	a0,0(s2)
    80005cfc:	00893583          	ld	a1,8(s2)
    80005d00:	01093603          	ld	a2,16(s2)
    80005d04:	01893683          	ld	a3,24(s2)
    80005d08:	02093703          	ld	a4,32(s2)
    80005d0c:	02893783          	ld	a5,40(s2)
    80005d10:	00a13023          	sd	a0,0(sp)
    80005d14:	00b13423          	sd	a1,8(sp)
    80005d18:	00c13823          	sd	a2,16(sp)
    80005d1c:	00d13c23          	sd	a3,24(sp)
    80005d20:	02e13023          	sd	a4,32(sp)
    80005d24:	02f13423          	sd	a5,40(sp)
    80005d28:	00090593          	mv	a1,s2
    80005d2c:	00098513          	mv	a0,s3
    80005d30:	815fe0ef          	jal	ra,80004544 <lfs_dir_alloc>
    80005d34:	00050413          	mv	s0,a0
    80005d38:	f8051ce3          	bnez	a0,80005cd0 <lfs_dir_append+0xe0>
    80005d3c:	02812783          	lw	a5,40(sp)
    80005d40:	02f92423          	sw	a5,40(s2)
    80005d44:	02c12783          	lw	a5,44(sp)
    80005d48:	02f92623          	sw	a5,44(s2)
    80005d4c:	02492783          	lw	a5,36(s2)
    80005d50:	ffc7879b          	addiw	a5,a5,-4
    80005d54:	00f4a023          	sw	a5,0(s1)
    80005d58:	00448a93          	addi	s5,s1,4
    80005d5c:	000a8513          	mv	a0,s5
    80005d60:	ff8fc0ef          	jal	ra,80002558 <lfs_entry_tole32>
    80005d64:	0004a783          	lw	a5,0(s1)
    80005d68:	02f12823          	sw	a5,48(sp)
    80005d6c:	02012a23          	sw	zero,52(sp)
    80005d70:	03513c23          	sd	s5,56(sp)
    80005d74:	00c00713          	li	a4,12
    80005d78:	04e12023          	sw	a4,64(sp)
    80005d7c:	04f12423          	sw	a5,72(sp)
    80005d80:	04012623          	sw	zero,76(sp)
    80005d84:	05413823          	sd	s4,80(sp)
    80005d88:	0074c783          	lbu	a5,7(s1)
    80005d8c:	04f12c23          	sw	a5,88(sp)
    80005d90:	00200693          	li	a3,2
    80005d94:	03010613          	addi	a2,sp,48
    80005d98:	00090593          	mv	a1,s2
    80005d9c:	00098513          	mv	a0,s3
    80005da0:	ee0ff0ef          	jal	ra,80005480 <lfs_dir_commit>
    80005da4:	00050413          	mv	s0,a0
    80005da8:	000a8513          	mv	a0,s5
    80005dac:	f38fc0ef          	jal	ra,800024e4 <lfs_entry_fromle32>
    80005db0:	f20410e3          	bnez	s0,80005cd0 <lfs_dir_append+0xe0>
    80005db4:	02412783          	lw	a5,36(sp)
    80005db8:	80000737          	lui	a4,0x80000
    80005dbc:	00e7e7b3          	or	a5,a5,a4
    80005dc0:	02f12223          	sw	a5,36(sp)
    80005dc4:	00892783          	lw	a5,8(s2)
    80005dc8:	02f12423          	sw	a5,40(sp)
    80005dcc:	00c92783          	lw	a5,12(s2)
    80005dd0:	02f12623          	sw	a5,44(sp)
    80005dd4:	00000693          	li	a3,0
    80005dd8:	00000613          	li	a2,0
    80005ddc:	00010593          	mv	a1,sp
    80005de0:	00098513          	mv	a0,s3
    80005de4:	e9cff0ef          	jal	ra,80005480 <lfs_dir_commit>
    80005de8:	00050413          	mv	s0,a0
    80005dec:	ee5ff06f          	j	80005cd0 <lfs_dir_append+0xe0>

0000000080005df0 <lfs_dir_remove>:
    80005df0:	f9010113          	addi	sp,sp,-112
    80005df4:	06113423          	sd	ra,104(sp)
    80005df8:	06813023          	sd	s0,96(sp)
    80005dfc:	04913c23          	sd	s1,88(sp)
    80005e00:	05213823          	sd	s2,80(sp)
    80005e04:	00050913          	mv	s2,a0
    80005e08:	00058493          	mv	s1,a1
    80005e0c:	00060413          	mv	s0,a2
    80005e10:	0245a703          	lw	a4,36(a1)
    80005e14:	02171713          	slli	a4,a4,0x21
    80005e18:	02175713          	srli	a4,a4,0x21
    80005e1c:	00564783          	lbu	a5,5(a2)
    80005e20:	0047879b          	addiw	a5,a5,4
    80005e24:	00664683          	lbu	a3,6(a2)
    80005e28:	00d787bb          	addw	a5,a5,a3
    80005e2c:	00764683          	lbu	a3,7(a2)
    80005e30:	00d787bb          	addw	a5,a5,a3
    80005e34:	02079793          	slli	a5,a5,0x20
    80005e38:	0207d793          	srli	a5,a5,0x20
    80005e3c:	01478793          	addi	a5,a5,20
    80005e40:	04f70c63          	beq	a4,a5,80005e98 <lfs_dir_remove+0xa8>
    80005e44:	00042783          	lw	a5,0(s0)
    80005e48:	02f12c23          	sw	a5,56(sp)
    80005e4c:	00544783          	lbu	a5,5(s0)
    80005e50:	0047879b          	addiw	a5,a5,4
    80005e54:	00644703          	lbu	a4,6(s0)
    80005e58:	00e787bb          	addw	a5,a5,a4
    80005e5c:	00744703          	lbu	a4,7(s0)
    80005e60:	00e787bb          	addw	a5,a5,a4
    80005e64:	02f12e23          	sw	a5,60(sp)
    80005e68:	04013023          	sd	zero,64(sp)
    80005e6c:	04012423          	sw	zero,72(sp)
    80005e70:	00100693          	li	a3,1
    80005e74:	03810613          	addi	a2,sp,56
    80005e78:	00048593          	mv	a1,s1
    80005e7c:	00090513          	mv	a0,s2
    80005e80:	e00ff0ef          	jal	ra,80005480 <lfs_dir_commit>
    80005e84:	0c051c63          	bnez	a0,80005f5c <lfs_dir_remove+0x16c>
    80005e88:	01093783          	ld	a5,16(s2)
    80005e8c:	0c078463          	beqz	a5,80005f54 <lfs_dir_remove+0x164>
    80005e90:	fff00813          	li	a6,-1
    80005e94:	06c0006f          	j	80005f00 <lfs_dir_remove+0x110>
    80005e98:	00810613          	addi	a2,sp,8
    80005e9c:	00858593          	addi	a1,a1,8
    80005ea0:	814fd0ef          	jal	ra,80002eb4 <lfs_pred>
    80005ea4:	0a054c63          	bltz	a0,80005f5c <lfs_dir_remove+0x16c>
    80005ea8:	02c12783          	lw	a5,44(sp)
    80005eac:	f807dce3          	bgez	a5,80005e44 <lfs_dir_remove+0x54>
    80005eb0:	0244a703          	lw	a4,36(s1)
    80005eb4:	800006b7          	lui	a3,0x80000
    80005eb8:	fff6c693          	not	a3,a3
    80005ebc:	00d76733          	or	a4,a4,a3
    80005ec0:	00f777b3          	and	a5,a4,a5
    80005ec4:	02f12623          	sw	a5,44(sp)
    80005ec8:	0284a783          	lw	a5,40(s1)
    80005ecc:	02f12823          	sw	a5,48(sp)
    80005ed0:	02c4a783          	lw	a5,44(s1)
    80005ed4:	02f12a23          	sw	a5,52(sp)
    80005ed8:	00000693          	li	a3,0
    80005edc:	00000613          	li	a2,0
    80005ee0:	00810593          	addi	a1,sp,8
    80005ee4:	00090513          	mv	a0,s2
    80005ee8:	d98ff0ef          	jal	ra,80005480 <lfs_dir_commit>
    80005eec:	0700006f          	j	80005f5c <lfs_dir_remove+0x16c>
    80005ef0:	0107a423          	sw	a6,8(a5)
    80005ef4:	0107a623          	sw	a6,12(a5)
    80005ef8:	0007b783          	ld	a5,0(a5)
    80005efc:	04078c63          	beqz	a5,80005f54 <lfs_dir_remove+0x164>
    80005f00:	0087a703          	lw	a4,8(a5)
    80005f04:	0084a683          	lw	a3,8(s1)
    80005f08:	00d70c63          	beq	a4,a3,80005f20 <lfs_dir_remove+0x130>
    80005f0c:	00c7a583          	lw	a1,12(a5)
    80005f10:	00c4a603          	lw	a2,12(s1)
    80005f14:	00c58663          	beq	a1,a2,80005f20 <lfs_dir_remove+0x130>
    80005f18:	00c70463          	beq	a4,a2,80005f20 <lfs_dir_remove+0x130>
    80005f1c:	fcb69ee3          	bne	a3,a1,80005ef8 <lfs_dir_remove+0x108>
    80005f20:	0107a703          	lw	a4,16(a5)
    80005f24:	00042683          	lw	a3,0(s0)
    80005f28:	fcd704e3          	beq	a4,a3,80005ef0 <lfs_dir_remove+0x100>
    80005f2c:	fce6f6e3          	bgeu	a3,a4,80005ef8 <lfs_dir_remove+0x108>
    80005f30:	00544683          	lbu	a3,5(s0)
    80005f34:	0046869b          	addiw	a3,a3,4
    80005f38:	00644603          	lbu	a2,6(s0)
    80005f3c:	00c686bb          	addw	a3,a3,a2
    80005f40:	00744603          	lbu	a2,7(s0)
    80005f44:	00c686bb          	addw	a3,a3,a2
    80005f48:	40d7073b          	subw	a4,a4,a3
    80005f4c:	00e7a823          	sw	a4,16(a5)
    80005f50:	fa9ff06f          	j	80005ef8 <lfs_dir_remove+0x108>
    80005f54:	01893783          	ld	a5,24(s2)
    80005f58:	06079a63          	bnez	a5,80005fcc <lfs_dir_remove+0x1dc>
    80005f5c:	06813083          	ld	ra,104(sp)
    80005f60:	06013403          	ld	s0,96(sp)
    80005f64:	05813483          	ld	s1,88(sp)
    80005f68:	05013903          	ld	s2,80(sp)
    80005f6c:	07010113          	addi	sp,sp,112
    80005f70:	00008067          	ret
    80005f74:	0107a683          	lw	a3,16(a5)
    80005f78:	00042703          	lw	a4,0(s0)
    80005f7c:	04d77463          	bgeu	a4,a3,80005fc4 <lfs_dir_remove+0x1d4>
    80005f80:	00544703          	lbu	a4,5(s0)
    80005f84:	0047071b          	addiw	a4,a4,4
    80005f88:	00644603          	lbu	a2,6(s0)
    80005f8c:	00c7073b          	addw	a4,a4,a2
    80005f90:	00744603          	lbu	a2,7(s0)
    80005f94:	00c7073b          	addw	a4,a4,a2
    80005f98:	40e6873b          	subw	a4,a3,a4
    80005f9c:	00e7a823          	sw	a4,16(a5)
    80005fa0:	00544703          	lbu	a4,5(s0)
    80005fa4:	0047071b          	addiw	a4,a4,4
    80005fa8:	00644683          	lbu	a3,6(s0)
    80005fac:	00d7073b          	addw	a4,a4,a3
    80005fb0:	00744683          	lbu	a3,7(s0)
    80005fb4:	00d7073b          	addw	a4,a4,a3
    80005fb8:	01c7a683          	lw	a3,28(a5)
    80005fbc:	40e6873b          	subw	a4,a3,a4
    80005fc0:	00e7ae23          	sw	a4,28(a5)
    80005fc4:	0007b783          	ld	a5,0(a5)
    80005fc8:	f8078ae3          	beqz	a5,80005f5c <lfs_dir_remove+0x16c>
    80005fcc:	0087a703          	lw	a4,8(a5)
    80005fd0:	0084a683          	lw	a3,8(s1)
    80005fd4:	fad700e3          	beq	a4,a3,80005f74 <lfs_dir_remove+0x184>
    80005fd8:	00c7a583          	lw	a1,12(a5)
    80005fdc:	00c4a603          	lw	a2,12(s1)
    80005fe0:	f8c58ae3          	beq	a1,a2,80005f74 <lfs_dir_remove+0x184>
    80005fe4:	f8c708e3          	beq	a4,a2,80005f74 <lfs_dir_remove+0x184>
    80005fe8:	fcb69ee3          	bne	a3,a1,80005fc4 <lfs_dir_remove+0x1d4>
    80005fec:	f89ff06f          	j	80005f74 <lfs_dir_remove+0x184>

0000000080005ff0 <lfs_format>:
    80005ff0:	f1010113          	addi	sp,sp,-240
    80005ff4:	0e113423          	sd	ra,232(sp)
    80005ff8:	0e813023          	sd	s0,224(sp)
    80005ffc:	0c913c23          	sd	s1,216(sp)
    80006000:	0d213823          	sd	s2,208(sp)
    80006004:	0d313423          	sd	s3,200(sp)
    80006008:	0d413023          	sd	s4,192(sp)
    8000600c:	0b513c23          	sd	s5,184(sp)
    80006010:	0b613823          	sd	s6,176(sp)
    80006014:	00050493          	mv	s1,a0
    80006018:	f7cfd0ef          	jal	ra,80003794 <lfs_init>
    8000601c:	00050413          	mv	s0,a0
    80006020:	02050863          	beqz	a0,80006050 <lfs_format+0x60>
    80006024:	00040513          	mv	a0,s0
    80006028:	0e813083          	ld	ra,232(sp)
    8000602c:	0e013403          	ld	s0,224(sp)
    80006030:	0d813483          	ld	s1,216(sp)
    80006034:	0d013903          	ld	s2,208(sp)
    80006038:	0c813983          	ld	s3,200(sp)
    8000603c:	0c013a03          	ld	s4,192(sp)
    80006040:	0b813a83          	ld	s5,184(sp)
    80006044:	0b013b03          	ld	s6,176(sp)
    80006048:	0f010113          	addi	sp,sp,240
    8000604c:	00008067          	ret
    80006050:	0004b783          	ld	a5,0(s1)
    80006054:	0387a603          	lw	a2,56(a5)
    80006058:	0036561b          	srliw	a2,a2,0x3
    8000605c:	00000593          	li	a1,0
    80006060:	0504b503          	ld	a0,80(s1)
    80006064:	e15fa0ef          	jal	ra,80000e78 <memset>
    80006068:	0404a023          	sw	zero,64(s1)
    8000606c:	0004b783          	ld	a5,0(s1)
    80006070:	0347a683          	lw	a3,52(a5)
    80006074:	0387a703          	lw	a4,56(a5)
    80006078:	0007059b          	sext.w	a1,a4
    8000607c:	0006861b          	sext.w	a2,a3
    80006080:	00b67463          	bgeu	a2,a1,80006088 <lfs_format+0x98>
    80006084:	00068713          	mv	a4,a3
    80006088:	04e4a223          	sw	a4,68(s1)
    8000608c:	0404a423          	sw	zero,72(s1)
    80006090:	0347a783          	lw	a5,52(a5)
    80006094:	04f4a623          	sw	a5,76(s1)
    80006098:	03010593          	addi	a1,sp,48
    8000609c:	00048513          	mv	a0,s1
    800060a0:	ca4fe0ef          	jal	ra,80004544 <lfs_dir_alloc>
    800060a4:	00050413          	mv	s0,a0
    800060a8:	00050863          	beqz	a0,800060b8 <lfs_format+0xc8>
    800060ac:	00048513          	mv	a0,s1
    800060b0:	e7cfd0ef          	jal	ra,8000372c <lfs_deinit>
    800060b4:	f71ff06f          	j	80006024 <lfs_format+0x34>
    800060b8:	06010593          	addi	a1,sp,96
    800060bc:	00048513          	mv	a0,s1
    800060c0:	c84fe0ef          	jal	ra,80004544 <lfs_dir_alloc>
    800060c4:	00050413          	mv	s0,a0
    800060c8:	fe0512e3          	bnez	a0,800060ac <lfs_format+0xbc>
    800060cc:	00000693          	li	a3,0
    800060d0:	00000613          	li	a2,0
    800060d4:	06010593          	addi	a1,sp,96
    800060d8:	00048513          	mv	a0,s1
    800060dc:	ba4ff0ef          	jal	ra,80005480 <lfs_dir_commit>
    800060e0:	00050413          	mv	s0,a0
    800060e4:	fc0514e3          	bnez	a0,800060ac <lfs_format+0xbc>
    800060e8:	06812603          	lw	a2,104(sp)
    800060ec:	00c4a423          	sw	a2,8(s1)
    800060f0:	06c12703          	lw	a4,108(sp)
    800060f4:	00e4a623          	sw	a4,12(s1)
    800060f8:	00010723          	sb	zero,14(sp)
    800060fc:	01000793          	li	a5,16
    80006100:	00f12423          	sw	a5,8(sp)
    80006104:	02e00793          	li	a5,46
    80006108:	00f10623          	sb	a5,12(sp)
    8000610c:	01400793          	li	a5,20
    80006110:	00f106a3          	sb	a5,13(sp)
    80006114:	00800793          	li	a5,8
    80006118:	00f107a3          	sb	a5,15(sp)
    8000611c:	0004b783          	ld	a5,0(s1)
    80006120:	0307a583          	lw	a1,48(a5)
    80006124:	0347a683          	lw	a3,52(a5)
    80006128:	000107b7          	lui	a5,0x10
    8000612c:	00178793          	addi	a5,a5,1 # 10001 <_start-0x7ffeffff>
    80006130:	02f12023          	sw	a5,32(sp)
    80006134:	747477b7          	lui	a5,0x74747
    80006138:	96c78793          	addi	a5,a5,-1684 # 7474696c <_start-0xb8b9694>
    8000613c:	02f12223          	sw	a5,36(sp)
    80006140:	736667b7          	lui	a5,0x73666
    80006144:	56c78793          	addi	a5,a5,1388 # 7366656c <_start-0xc999a94>
    80006148:	02f12423          	sw	a5,40(sp)
    8000614c:	04c12c23          	sw	a2,88(sp)
    80006150:	04e12e23          	sw	a4,92(sp)
    80006154:	03400793          	li	a5,52
    80006158:	04f12a23          	sw	a5,84(sp)
    8000615c:	00865793          	srli	a5,a2,0x8
    80006160:	0ff7f793          	andi	a5,a5,255
    80006164:	0087979b          	slliw	a5,a5,0x8
    80006168:	01065513          	srli	a0,a2,0x10
    8000616c:	0ff57513          	andi	a0,a0,255
    80006170:	0105151b          	slliw	a0,a0,0x10
    80006174:	00a7e7b3          	or	a5,a5,a0
    80006178:	0ff67513          	andi	a0,a2,255
    8000617c:	00a7e7b3          	or	a5,a5,a0
    80006180:	0186561b          	srliw	a2,a2,0x18
    80006184:	0186161b          	slliw	a2,a2,0x18
    80006188:	00c7e7b3          	or	a5,a5,a2
    8000618c:	00f12823          	sw	a5,16(sp)
    80006190:	00875793          	srli	a5,a4,0x8
    80006194:	0ff7f793          	andi	a5,a5,255
    80006198:	0087979b          	slliw	a5,a5,0x8
    8000619c:	01075613          	srli	a2,a4,0x10
    800061a0:	0ff67613          	andi	a2,a2,255
    800061a4:	0106161b          	slliw	a2,a2,0x10
    800061a8:	00c7e7b3          	or	a5,a5,a2
    800061ac:	0ff77613          	andi	a2,a4,255
    800061b0:	00c7e7b3          	or	a5,a5,a2
    800061b4:	0187571b          	srliw	a4,a4,0x18
    800061b8:	0187171b          	slliw	a4,a4,0x18
    800061bc:	00e7e7b3          	or	a5,a5,a4
    800061c0:	00f12a23          	sw	a5,20(sp)
    800061c4:	0085d793          	srli	a5,a1,0x8
    800061c8:	0ff7f793          	andi	a5,a5,255
    800061cc:	0087979b          	slliw	a5,a5,0x8
    800061d0:	0105d713          	srli	a4,a1,0x10
    800061d4:	0ff77713          	andi	a4,a4,255
    800061d8:	0107171b          	slliw	a4,a4,0x10
    800061dc:	00e7e7b3          	or	a5,a5,a4
    800061e0:	0ff5f713          	andi	a4,a1,255
    800061e4:	00e7e7b3          	or	a5,a5,a4
    800061e8:	0185d59b          	srliw	a1,a1,0x18
    800061ec:	0185959b          	slliw	a1,a1,0x18
    800061f0:	00b7e7b3          	or	a5,a5,a1
    800061f4:	00f12c23          	sw	a5,24(sp)
    800061f8:	0086d793          	srli	a5,a3,0x8
    800061fc:	0ff7f793          	andi	a5,a5,255
    80006200:	0087979b          	slliw	a5,a5,0x8
    80006204:	0106d713          	srli	a4,a3,0x10
    80006208:	0ff77713          	andi	a4,a4,255
    8000620c:	0107171b          	slliw	a4,a4,0x10
    80006210:	00e7e7b3          	or	a5,a5,a4
    80006214:	0ff6f713          	andi	a4,a3,255
    80006218:	00e7e7b3          	or	a5,a5,a4
    8000621c:	0186d69b          	srliw	a3,a3,0x18
    80006220:	0186969b          	slliw	a3,a3,0x18
    80006224:	00d7e7b3          	or	a5,a5,a3
    80006228:	00f12e23          	sw	a5,28(sp)
    8000622c:	00200913          	li	s2,2
    80006230:	00000993          	li	s3,0
    80006234:	01000a93          	li	s5,16
    80006238:	02000a13          	li	s4,32
    8000623c:	fcc00b13          	li	s6,-52
    80006240:	01c0006f          	j	8000625c <lfs_format+0x26c>
    80006244:	00100793          	li	a5,1
    80006248:	00099463          	bnez	s3,80006250 <lfs_format+0x260>
    8000624c:	00143793          	seqz	a5,s0
    80006250:	00078993          	mv	s3,a5
    80006254:	fff9091b          	addiw	s2,s2,-1
    80006258:	02090e63          	beqz	s2,80006294 <lfs_format+0x2a4>
    8000625c:	09512c23          	sw	s5,152(sp)
    80006260:	09412e23          	sw	s4,156(sp)
    80006264:	00c10793          	addi	a5,sp,12
    80006268:	0af13023          	sd	a5,160(sp)
    8000626c:	0b412423          	sw	s4,168(sp)
    80006270:	00100693          	li	a3,1
    80006274:	09810613          	addi	a2,sp,152
    80006278:	03010593          	addi	a1,sp,48
    8000627c:	00048513          	mv	a0,s1
    80006280:	a00ff0ef          	jal	ra,80005480 <lfs_dir_commit>
    80006284:	00050413          	mv	s0,a0
    80006288:	fa050ee3          	beqz	a0,80006244 <lfs_format+0x254>
    8000628c:	fb650ce3          	beq	a0,s6,80006244 <lfs_format+0x254>
    80006290:	e1dff06f          	j	800060ac <lfs_format+0xbc>
    80006294:	fcc00413          	li	s0,-52
    80006298:	e0078ae3          	beqz	a5,800060ac <lfs_format+0xbc>
    8000629c:	08012823          	sw	zero,144(sp)
    800062a0:	00100793          	li	a5,1
    800062a4:	08f12a23          	sw	a5,148(sp)
    800062a8:	09010613          	addi	a2,sp,144
    800062ac:	03010593          	addi	a1,sp,48
    800062b0:	00048513          	mv	a0,s1
    800062b4:	e2cfc0ef          	jal	ra,800028e0 <lfs_dir_fetch>
    800062b8:	00050413          	mv	s0,a0
    800062bc:	de0518e3          	bnez	a0,800060ac <lfs_format+0xbc>
    800062c0:	0004b783          	ld	a5,0(s1)
    800062c4:	0347a783          	lw	a5,52(a5)
    800062c8:	04f4a623          	sw	a5,76(s1)
    800062cc:	de1ff06f          	j	800060ac <lfs_format+0xbc>

00000000800062d0 <lfs_mkdir>:
    800062d0:	f6010113          	addi	sp,sp,-160
    800062d4:	08113c23          	sd	ra,152(sp)
    800062d8:	08813823          	sd	s0,144(sp)
    800062dc:	08913423          	sd	s1,136(sp)
    800062e0:	00050493          	mv	s1,a0
    800062e4:	00b13423          	sd	a1,8(sp)
    800062e8:	05854783          	lbu	a5,88(a0)
    800062ec:	00079863          	bnez	a5,800062fc <lfs_mkdir+0x2c>
    800062f0:	f45fe0ef          	jal	ra,80005234 <lfs_deorphan>
    800062f4:	00050413          	mv	s0,a0
    800062f8:	0e051863          	bnez	a0,800063e8 <lfs_mkdir+0x118>
    800062fc:	00810693          	addi	a3,sp,8
    80006300:	04010613          	addi	a2,sp,64
    80006304:	05010593          	addi	a1,sp,80
    80006308:	00048513          	mv	a0,s1
    8000630c:	d61fc0ef          	jal	ra,8000306c <lfs_dir_find>
    80006310:	00050413          	mv	s0,a0
    80006314:	ffe00793          	li	a5,-2
    80006318:	0cf51463          	bne	a0,a5,800063e0 <lfs_mkdir+0x110>
    8000631c:	02f00593          	li	a1,47
    80006320:	00813503          	ld	a0,8(sp)
    80006324:	24d000ef          	jal	ra,80006d70 <strchr>
    80006328:	0c051063          	bnez	a0,800063e8 <lfs_mkdir+0x118>
    8000632c:	0004b783          	ld	a5,0(s1)
    80006330:	0347a783          	lw	a5,52(a5)
    80006334:	04f4a623          	sw	a5,76(s1)
    80006338:	01010593          	addi	a1,sp,16
    8000633c:	00048513          	mv	a0,s1
    80006340:	a04fe0ef          	jal	ra,80004544 <lfs_dir_alloc>
    80006344:	00050413          	mv	s0,a0
    80006348:	0a051063          	bnez	a0,800063e8 <lfs_mkdir+0x118>
    8000634c:	07812783          	lw	a5,120(sp)
    80006350:	02f12c23          	sw	a5,56(sp)
    80006354:	07c12783          	lw	a5,124(sp)
    80006358:	02f12e23          	sw	a5,60(sp)
    8000635c:	00000693          	li	a3,0
    80006360:	00000613          	li	a2,0
    80006364:	01010593          	addi	a1,sp,16
    80006368:	00048513          	mv	a0,s1
    8000636c:	914ff0ef          	jal	ra,80005480 <lfs_dir_commit>
    80006370:	00050413          	mv	s0,a0
    80006374:	06051a63          	bnez	a0,800063e8 <lfs_mkdir+0x118>
    80006378:	02200793          	li	a5,34
    8000637c:	04f10223          	sb	a5,68(sp)
    80006380:	00800793          	li	a5,8
    80006384:	04f102a3          	sb	a5,69(sp)
    80006388:	04010323          	sb	zero,70(sp)
    8000638c:	00813403          	ld	s0,8(sp)
    80006390:	00040513          	mv	a0,s0
    80006394:	365000ef          	jal	ra,80006ef8 <strlen>
    80006398:	04a103a3          	sb	a0,71(sp)
    8000639c:	01812703          	lw	a4,24(sp)
    800063a0:	04e12423          	sw	a4,72(sp)
    800063a4:	01c12783          	lw	a5,28(sp)
    800063a8:	04f12623          	sw	a5,76(sp)
    800063ac:	06e12c23          	sw	a4,120(sp)
    800063b0:	06f12e23          	sw	a5,124(sp)
    800063b4:	00040693          	mv	a3,s0
    800063b8:	04010613          	addi	a2,sp,64
    800063bc:	05010593          	addi	a1,sp,80
    800063c0:	00048513          	mv	a0,s1
    800063c4:	82dff0ef          	jal	ra,80005bf0 <lfs_dir_append>
    800063c8:	00050413          	mv	s0,a0
    800063cc:	00051e63          	bnez	a0,800063e8 <lfs_mkdir+0x118>
    800063d0:	0004b783          	ld	a5,0(s1)
    800063d4:	0347a783          	lw	a5,52(a5)
    800063d8:	04f4a623          	sw	a5,76(s1)
    800063dc:	00c0006f          	j	800063e8 <lfs_mkdir+0x118>
    800063e0:	00051463          	bnez	a0,800063e8 <lfs_mkdir+0x118>
    800063e4:	fef00413          	li	s0,-17
    800063e8:	00040513          	mv	a0,s0
    800063ec:	09813083          	ld	ra,152(sp)
    800063f0:	09013403          	ld	s0,144(sp)
    800063f4:	08813483          	ld	s1,136(sp)
    800063f8:	0a010113          	addi	sp,sp,160
    800063fc:	00008067          	ret

0000000080006400 <lfs_file_opencfg>:
    80006400:	f7010113          	addi	sp,sp,-144
    80006404:	08113423          	sd	ra,136(sp)
    80006408:	08813023          	sd	s0,128(sp)
    8000640c:	06913c23          	sd	s1,120(sp)
    80006410:	07213823          	sd	s2,112(sp)
    80006414:	07313423          	sd	s3,104(sp)
    80006418:	07413023          	sd	s4,96(sp)
    8000641c:	05513c23          	sd	s5,88(sp)
    80006420:	00050913          	mv	s2,a0
    80006424:	00058413          	mv	s0,a1
    80006428:	00c13423          	sd	a2,8(sp)
    8000642c:	00068993          	mv	s3,a3
    80006430:	00070a13          	mv	s4,a4
    80006434:	0036f713          	andi	a4,a3,3
    80006438:	00100793          	li	a5,1
    8000643c:	00f70663          	beq	a4,a5,80006448 <lfs_file_opencfg+0x48>
    80006440:	05854783          	lbu	a5,88(a0)
    80006444:	08078863          	beqz	a5,800064d4 <lfs_file_opencfg+0xd4>
    80006448:	00810693          	addi	a3,sp,8
    8000644c:	01010613          	addi	a2,sp,16
    80006450:	02010593          	addi	a1,sp,32
    80006454:	00090513          	mv	a0,s2
    80006458:	c15fc0ef          	jal	ra,8000306c <lfs_dir_find>
    8000645c:	00050493          	mv	s1,a0
    80006460:	08050263          	beqz	a0,800064e4 <lfs_file_opencfg+0xe4>
    80006464:	ffe00793          	li	a5,-2
    80006468:	14f51063          	bne	a0,a5,800065a8 <lfs_file_opencfg+0x1a8>
    8000646c:	00813a83          	ld	s5,8(sp)
    80006470:	02f00593          	li	a1,47
    80006474:	000a8513          	mv	a0,s5
    80006478:	0f9000ef          	jal	ra,80006d70 <strchr>
    8000647c:	12051663          	bnez	a0,800065a8 <lfs_file_opencfg+0x1a8>
    80006480:	1009f793          	andi	a5,s3,256
    80006484:	12078263          	beqz	a5,800065a8 <lfs_file_opencfg+0x1a8>
    80006488:	01100793          	li	a5,17
    8000648c:	00f10a23          	sb	a5,20(sp)
    80006490:	00800793          	li	a5,8
    80006494:	00f10aa3          	sb	a5,21(sp)
    80006498:	00010b23          	sb	zero,22(sp)
    8000649c:	000a8513          	mv	a0,s5
    800064a0:	259000ef          	jal	ra,80006ef8 <strlen>
    800064a4:	00a10ba3          	sb	a0,23(sp)
    800064a8:	fff00793          	li	a5,-1
    800064ac:	00f12c23          	sw	a5,24(sp)
    800064b0:	00012e23          	sw	zero,28(sp)
    800064b4:	000a8693          	mv	a3,s5
    800064b8:	01010613          	addi	a2,sp,16
    800064bc:	02010593          	addi	a1,sp,32
    800064c0:	00090513          	mv	a0,s2
    800064c4:	f2cff0ef          	jal	ra,80005bf0 <lfs_dir_append>
    800064c8:	00050493          	mv	s1,a0
    800064cc:	02050663          	beqz	a0,800064f8 <lfs_file_opencfg+0xf8>
    800064d0:	0d80006f          	j	800065a8 <lfs_file_opencfg+0x1a8>
    800064d4:	d61fe0ef          	jal	ra,80005234 <lfs_deorphan>
    800064d8:	00050493          	mv	s1,a0
    800064dc:	f60506e3          	beqz	a0,80006448 <lfs_file_opencfg+0x48>
    800064e0:	0c80006f          	j	800065a8 <lfs_file_opencfg+0x1a8>
    800064e4:	01414703          	lbu	a4,20(sp)
    800064e8:	02200793          	li	a5,34
    800064ec:	14f70063          	beq	a4,a5,8000662c <lfs_file_opencfg+0x22c>
    800064f0:	2009f793          	andi	a5,s3,512
    800064f4:	14079063          	bnez	a5,80006634 <lfs_file_opencfg+0x234>
    800064f8:	03443023          	sd	s4,32(s0)
    800064fc:	02812783          	lw	a5,40(sp)
    80006500:	00f42423          	sw	a5,8(s0)
    80006504:	02c12783          	lw	a5,44(sp)
    80006508:	00f42623          	sw	a5,12(s0)
    8000650c:	01012783          	lw	a5,16(sp)
    80006510:	00f42823          	sw	a5,16(s0)
    80006514:	01812783          	lw	a5,24(sp)
    80006518:	00f42a23          	sw	a5,20(s0)
    8000651c:	01c12703          	lw	a4,28(sp)
    80006520:	00e42c23          	sw	a4,24(s0)
    80006524:	0009879b          	sext.w	a5,s3
    80006528:	02f42423          	sw	a5,40(s0)
    8000652c:	02042623          	sw	zero,44(s0)
    80006530:	4009f993          	andi	s3,s3,1024
    80006534:	02098063          	beqz	s3,80006554 <lfs_file_opencfg+0x154>
    80006538:	00070863          	beqz	a4,80006548 <lfs_file_opencfg+0x148>
    8000653c:	00010737          	lui	a4,0x10
    80006540:	00e7e7b3          	or	a5,a5,a4
    80006544:	02f42423          	sw	a5,40(s0)
    80006548:	fff00793          	li	a5,-1
    8000654c:	00f42a23          	sw	a5,20(s0)
    80006550:	00042c23          	sw	zero,24(s0)
    80006554:	fff00793          	li	a5,-1
    80006558:	02f42c23          	sw	a5,56(s0)
    8000655c:	060a0a63          	beqz	s4,800065d0 <lfs_file_opencfg+0x1d0>
    80006560:	000a3783          	ld	a5,0(s4)
    80006564:	06078663          	beqz	a5,800065d0 <lfs_file_opencfg+0x1d0>
    80006568:	04f43023          	sd	a5,64(s0)
    8000656c:	02842783          	lw	a5,40(s0)
    80006570:	0037f793          	andi	a5,a5,3
    80006574:	00100713          	li	a4,1
    80006578:	02e78063          	beq	a5,a4,80006598 <lfs_file_opencfg+0x198>
    8000657c:	00093783          	ld	a5,0(s2)
    80006580:	02c7e603          	lwu	a2,44(a5)
    80006584:	0ff00593          	li	a1,255
    80006588:	04043503          	ld	a0,64(s0)
    8000658c:	8edfa0ef          	jal	ra,80000e78 <memset>
    80006590:	fff00793          	li	a5,-1
    80006594:	02f42c23          	sw	a5,56(s0)
    80006598:	01093783          	ld	a5,16(s2)
    8000659c:	00f43023          	sd	a5,0(s0)
    800065a0:	00893823          	sd	s0,16(s2)
    800065a4:	00000493          	li	s1,0
    800065a8:	00048513          	mv	a0,s1
    800065ac:	08813083          	ld	ra,136(sp)
    800065b0:	08013403          	ld	s0,128(sp)
    800065b4:	07813483          	ld	s1,120(sp)
    800065b8:	07013903          	ld	s2,112(sp)
    800065bc:	06813983          	ld	s3,104(sp)
    800065c0:	06013a03          	ld	s4,96(sp)
    800065c4:	05813a83          	ld	s5,88(sp)
    800065c8:	09010113          	addi	sp,sp,144
    800065cc:	00008067          	ret
    800065d0:	00093703          	ld	a4,0(s2)
    800065d4:	05873783          	ld	a5,88(a4) # 10058 <_start-0x7ffeffa8>
    800065d8:	00078a63          	beqz	a5,800065ec <lfs_file_opencfg+0x1ec>
    800065dc:	01093703          	ld	a4,16(s2)
    800065e0:	04071e63          	bnez	a4,8000663c <lfs_file_opencfg+0x23c>
    800065e4:	04f43023          	sd	a5,64(s0)
    800065e8:	f85ff06f          	j	8000656c <lfs_file_opencfg+0x16c>
    800065ec:	02842783          	lw	a5,40(s0)
    800065f0:	0037f793          	andi	a5,a5,3
    800065f4:	00100693          	li	a3,1
    800065f8:	00d78e63          	beq	a5,a3,80006614 <lfs_file_opencfg+0x214>
    800065fc:	02c76503          	lwu	a0,44(a4)
    80006600:	5bc000ef          	jal	ra,80006bbc <malloc>
    80006604:	04a43023          	sd	a0,64(s0)
    80006608:	f6051ae3          	bnez	a0,8000657c <lfs_file_opencfg+0x17c>
    8000660c:	ff400493          	li	s1,-12
    80006610:	f99ff06f          	j	800065a8 <lfs_file_opencfg+0x1a8>
    80006614:	02876503          	lwu	a0,40(a4)
    80006618:	5a4000ef          	jal	ra,80006bbc <malloc>
    8000661c:	04a43023          	sd	a0,64(s0)
    80006620:	f6051ce3          	bnez	a0,80006598 <lfs_file_opencfg+0x198>
    80006624:	ff400493          	li	s1,-12
    80006628:	f81ff06f          	j	800065a8 <lfs_file_opencfg+0x1a8>
    8000662c:	feb00493          	li	s1,-21
    80006630:	f79ff06f          	j	800065a8 <lfs_file_opencfg+0x1a8>
    80006634:	fef00493          	li	s1,-17
    80006638:	f71ff06f          	j	800065a8 <lfs_file_opencfg+0x1a8>
    8000663c:	ff400493          	li	s1,-12
    80006640:	f69ff06f          	j	800065a8 <lfs_file_opencfg+0x1a8>

0000000080006644 <lfs_file_open>:
    80006644:	ff010113          	addi	sp,sp,-16
    80006648:	00113423          	sd	ra,8(sp)
    8000664c:	00000713          	li	a4,0
    80006650:	db1ff0ef          	jal	ra,80006400 <lfs_file_opencfg>
    80006654:	00813083          	ld	ra,8(sp)
    80006658:	01010113          	addi	sp,sp,16
    8000665c:	00008067          	ret

0000000080006660 <lfs_remove>:
    80006660:	f7010113          	addi	sp,sp,-144
    80006664:	08113423          	sd	ra,136(sp)
    80006668:	08813023          	sd	s0,128(sp)
    8000666c:	00050413          	mv	s0,a0
    80006670:	00b13423          	sd	a1,8(sp)
    80006674:	05854783          	lbu	a5,88(a0)
    80006678:	00079663          	bnez	a5,80006684 <lfs_remove+0x24>
    8000667c:	bb9fe0ef          	jal	ra,80005234 <lfs_deorphan>
    80006680:	04051463          	bnez	a0,800066c8 <lfs_remove+0x68>
    80006684:	00810693          	addi	a3,sp,8
    80006688:	04010613          	addi	a2,sp,64
    8000668c:	05010593          	addi	a1,sp,80
    80006690:	00040513          	mv	a0,s0
    80006694:	9d9fc0ef          	jal	ra,8000306c <lfs_dir_find>
    80006698:	02051863          	bnez	a0,800066c8 <lfs_remove+0x68>
    8000669c:	04414703          	lbu	a4,68(sp)
    800066a0:	02200793          	li	a5,34
    800066a4:	02f70a63          	beq	a4,a5,800066d8 <lfs_remove+0x78>
    800066a8:	04010613          	addi	a2,sp,64
    800066ac:	05010593          	addi	a1,sp,80
    800066b0:	00040513          	mv	a0,s0
    800066b4:	f3cff0ef          	jal	ra,80005df0 <lfs_dir_remove>
    800066b8:	00051863          	bnez	a0,800066c8 <lfs_remove+0x68>
    800066bc:	04414703          	lbu	a4,68(sp)
    800066c0:	02200793          	li	a5,34
    800066c4:	02f70e63          	beq	a4,a5,80006700 <lfs_remove+0xa0>
    800066c8:	08813083          	ld	ra,136(sp)
    800066cc:	08013403          	ld	s0,128(sp)
    800066d0:	09010113          	addi	sp,sp,144
    800066d4:	00008067          	ret
    800066d8:	04810613          	addi	a2,sp,72
    800066dc:	01010593          	addi	a1,sp,16
    800066e0:	00040513          	mv	a0,s0
    800066e4:	9fcfc0ef          	jal	ra,800028e0 <lfs_dir_fetch>
    800066e8:	fe0510e3          	bnez	a0,800066c8 <lfs_remove+0x68>
    800066ec:	03412703          	lw	a4,52(sp)
    800066f0:	01400793          	li	a5,20
    800066f4:	faf70ae3          	beq	a4,a5,800066a8 <lfs_remove+0x48>
    800066f8:	fd900513          	li	a0,-39
    800066fc:	fcdff06f          	j	800066c8 <lfs_remove+0x68>
    80006700:	05010613          	addi	a2,sp,80
    80006704:	01810593          	addi	a1,sp,24
    80006708:	00040513          	mv	a0,s0
    8000670c:	fa8fc0ef          	jal	ra,80002eb4 <lfs_pred>
    80006710:	fa054ce3          	bltz	a0,800066c8 <lfs_remove+0x68>
    80006714:	03812783          	lw	a5,56(sp)
    80006718:	06f12c23          	sw	a5,120(sp)
    8000671c:	03c12783          	lw	a5,60(sp)
    80006720:	06f12e23          	sw	a5,124(sp)
    80006724:	00000693          	li	a3,0
    80006728:	00000613          	li	a2,0
    8000672c:	05010593          	addi	a1,sp,80
    80006730:	00040513          	mv	a0,s0
    80006734:	d4dfe0ef          	jal	ra,80005480 <lfs_dir_commit>
    80006738:	f91ff06f          	j	800066c8 <lfs_remove+0x68>

000000008000673c <lfs_rename>:
    8000673c:	f0010113          	addi	sp,sp,-256
    80006740:	0e113c23          	sd	ra,248(sp)
    80006744:	0e813823          	sd	s0,240(sp)
    80006748:	0e913423          	sd	s1,232(sp)
    8000674c:	0f213023          	sd	s2,224(sp)
    80006750:	00050493          	mv	s1,a0
    80006754:	00b13423          	sd	a1,8(sp)
    80006758:	00c13023          	sd	a2,0(sp)
    8000675c:	05854783          	lbu	a5,88(a0)
    80006760:	00079863          	bnez	a5,80006770 <lfs_rename+0x34>
    80006764:	ad1fe0ef          	jal	ra,80005234 <lfs_deorphan>
    80006768:	00050413          	mv	s0,a0
    8000676c:	02051463          	bnez	a0,80006794 <lfs_rename+0x58>
    80006770:	00813783          	ld	a5,8(sp)
    80006774:	0cf13c23          	sd	a5,216(sp)
    80006778:	0d810693          	addi	a3,sp,216
    8000677c:	09810613          	addi	a2,sp,152
    80006780:	0a810593          	addi	a1,sp,168
    80006784:	00048513          	mv	a0,s1
    80006788:	8e5fc0ef          	jal	ra,8000306c <lfs_dir_find>
    8000678c:	00050413          	mv	s0,a0
    80006790:	02050063          	beqz	a0,800067b0 <lfs_rename+0x74>
    80006794:	00040513          	mv	a0,s0
    80006798:	0f813083          	ld	ra,248(sp)
    8000679c:	0f013403          	ld	s0,240(sp)
    800067a0:	0e813483          	ld	s1,232(sp)
    800067a4:	0e013903          	ld	s2,224(sp)
    800067a8:	10010113          	addi	sp,sp,256
    800067ac:	00008067          	ret
    800067b0:	09c14783          	lbu	a5,156(sp)
    800067b4:	f807e793          	ori	a5,a5,-128
    800067b8:	08f10e23          	sb	a5,156(sp)
    800067bc:	00000693          	li	a3,0
    800067c0:	09810613          	addi	a2,sp,152
    800067c4:	0a810593          	addi	a1,sp,168
    800067c8:	00048513          	mv	a0,s1
    800067cc:	9e4ff0ef          	jal	ra,800059b0 <lfs_dir_update>
    800067d0:	00050413          	mv	s0,a0
    800067d4:	fc0510e3          	bnez	a0,80006794 <lfs_rename+0x58>
    800067d8:	00010693          	mv	a3,sp
    800067dc:	05810613          	addi	a2,sp,88
    800067e0:	06810593          	addi	a1,sp,104
    800067e4:	00048513          	mv	a0,s1
    800067e8:	885fc0ef          	jal	ra,8000306c <lfs_dir_find>
    800067ec:	00050413          	mv	s0,a0
    800067f0:	06050a63          	beqz	a0,80006864 <lfs_rename+0x128>
    800067f4:	ffe00793          	li	a5,-2
    800067f8:	f8f51ee3          	bne	a0,a5,80006794 <lfs_rename+0x58>
    800067fc:	00013903          	ld	s2,0(sp)
    80006800:	02f00593          	li	a1,47
    80006804:	00090513          	mv	a0,s2
    80006808:	568000ef          	jal	ra,80006d70 <strchr>
    8000680c:	f80514e3          	bnez	a0,80006794 <lfs_rename+0x58>
    80006810:	05813783          	ld	a5,88(sp)
    80006814:	00f13c23          	sd	a5,24(sp)
    80006818:	09c12783          	lw	a5,156(sp)
    8000681c:	00f12e23          	sw	a5,28(sp)
    80006820:	0a012703          	lw	a4,160(sp)
    80006824:	02e12023          	sw	a4,32(sp)
    80006828:	0a412703          	lw	a4,164(sp)
    8000682c:	02e12223          	sw	a4,36(sp)
    80006830:	07f7f793          	andi	a5,a5,127
    80006834:	00f10e23          	sb	a5,28(sp)
    80006838:	00090513          	mv	a0,s2
    8000683c:	6bc000ef          	jal	ra,80006ef8 <strlen>
    80006840:	00a10fa3          	sb	a0,31(sp)
    80006844:	00090693          	mv	a3,s2
    80006848:	01810613          	addi	a2,sp,24
    8000684c:	06810593          	addi	a1,sp,104
    80006850:	00048513          	mv	a0,s1
    80006854:	b9cff0ef          	jal	ra,80005bf0 <lfs_dir_append>
    80006858:	06050a63          	beqz	a0,800068cc <lfs_rename+0x190>
    8000685c:	00050413          	mv	s0,a0
    80006860:	f35ff06f          	j	80006794 <lfs_rename+0x58>
    80006864:	05c14703          	lbu	a4,92(sp)
    80006868:	09c14783          	lbu	a5,156(sp)
    8000686c:	07f7f793          	andi	a5,a5,127
    80006870:	12f71063          	bne	a4,a5,80006990 <lfs_rename+0x254>
    80006874:	02200793          	li	a5,34
    80006878:	06f70e63          	beq	a4,a5,800068f4 <lfs_rename+0x1b8>
    8000687c:	05813783          	ld	a5,88(sp)
    80006880:	00f13c23          	sd	a5,24(sp)
    80006884:	09c12783          	lw	a5,156(sp)
    80006888:	00f12e23          	sw	a5,28(sp)
    8000688c:	0a012703          	lw	a4,160(sp)
    80006890:	02e12023          	sw	a4,32(sp)
    80006894:	0a412703          	lw	a4,164(sp)
    80006898:	02e12223          	sw	a4,36(sp)
    8000689c:	07f7f793          	andi	a5,a5,127
    800068a0:	00f10e23          	sb	a5,28(sp)
    800068a4:	00013903          	ld	s2,0(sp)
    800068a8:	00090513          	mv	a0,s2
    800068ac:	64c000ef          	jal	ra,80006ef8 <strlen>
    800068b0:	00a10fa3          	sb	a0,31(sp)
    800068b4:	00090693          	mv	a3,s2
    800068b8:	01810613          	addi	a2,sp,24
    800068bc:	06810593          	addi	a1,sp,104
    800068c0:	00048513          	mv	a0,s1
    800068c4:	8ecff0ef          	jal	ra,800059b0 <lfs_dir_update>
    800068c8:	0e051463          	bnez	a0,800069b0 <lfs_rename+0x274>
    800068cc:	00100793          	li	a5,1
    800068d0:	04f48ca3          	sb	a5,89(s1)
    800068d4:	00810693          	addi	a3,sp,8
    800068d8:	09810613          	addi	a2,sp,152
    800068dc:	0a810593          	addi	a1,sp,168
    800068e0:	00048513          	mv	a0,s1
    800068e4:	f88fc0ef          	jal	ra,8000306c <lfs_dir_find>
    800068e8:	02050a63          	beqz	a0,8000691c <lfs_rename+0x1e0>
    800068ec:	00050413          	mv	s0,a0
    800068f0:	ea5ff06f          	j	80006794 <lfs_rename+0x58>
    800068f4:	06010613          	addi	a2,sp,96
    800068f8:	02810593          	addi	a1,sp,40
    800068fc:	00048513          	mv	a0,s1
    80006900:	fe1fb0ef          	jal	ra,800028e0 <lfs_dir_fetch>
    80006904:	08051a63          	bnez	a0,80006998 <lfs_rename+0x25c>
    80006908:	04c12703          	lw	a4,76(sp)
    8000690c:	01400793          	li	a5,20
    80006910:	f6f706e3          	beq	a4,a5,8000687c <lfs_rename+0x140>
    80006914:	fd900413          	li	s0,-39
    80006918:	e7dff06f          	j	80006794 <lfs_rename+0x58>
    8000691c:	04048ca3          	sb	zero,89(s1)
    80006920:	09810613          	addi	a2,sp,152
    80006924:	0a810593          	addi	a1,sp,168
    80006928:	00048513          	mv	a0,s1
    8000692c:	cc4ff0ef          	jal	ra,80005df0 <lfs_dir_remove>
    80006930:	06051863          	bnez	a0,800069a0 <lfs_rename+0x264>
    80006934:	ffe00793          	li	a5,-2
    80006938:	06f40863          	beq	s0,a5,800069a8 <lfs_rename+0x26c>
    8000693c:	05c14703          	lbu	a4,92(sp)
    80006940:	02200793          	li	a5,34
    80006944:	00050413          	mv	s0,a0
    80006948:	e4f716e3          	bne	a4,a5,80006794 <lfs_rename+0x58>
    8000694c:	06810613          	addi	a2,sp,104
    80006950:	03010593          	addi	a1,sp,48
    80006954:	00048513          	mv	a0,s1
    80006958:	d5cfc0ef          	jal	ra,80002eb4 <lfs_pred>
    8000695c:	00050413          	mv	s0,a0
    80006960:	e2054ae3          	bltz	a0,80006794 <lfs_rename+0x58>
    80006964:	05012783          	lw	a5,80(sp)
    80006968:	08f12823          	sw	a5,144(sp)
    8000696c:	05412783          	lw	a5,84(sp)
    80006970:	08f12a23          	sw	a5,148(sp)
    80006974:	00000693          	li	a3,0
    80006978:	00000613          	li	a2,0
    8000697c:	06810593          	addi	a1,sp,104
    80006980:	00048513          	mv	a0,s1
    80006984:	afdfe0ef          	jal	ra,80005480 <lfs_dir_commit>
    80006988:	00050413          	mv	s0,a0
    8000698c:	e09ff06f          	j	80006794 <lfs_rename+0x58>
    80006990:	feb00413          	li	s0,-21
    80006994:	e01ff06f          	j	80006794 <lfs_rename+0x58>
    80006998:	00050413          	mv	s0,a0
    8000699c:	df9ff06f          	j	80006794 <lfs_rename+0x58>
    800069a0:	00050413          	mv	s0,a0
    800069a4:	df1ff06f          	j	80006794 <lfs_rename+0x58>
    800069a8:	00050413          	mv	s0,a0
    800069ac:	de9ff06f          	j	80006794 <lfs_rename+0x58>
    800069b0:	00050413          	mv	s0,a0
    800069b4:	de1ff06f          	j	80006794 <lfs_rename+0x58>

00000000800069b8 <lfs_crc>:
    800069b8:	06060663          	beqz	a2,80006a24 <lfs_crc+0x6c>
    800069bc:	00052703          	lw	a4,0(a0)
    800069c0:	00058813          	mv	a6,a1
    800069c4:	00c585b3          	add	a1,a1,a2
    800069c8:	00001617          	auipc	a2,0x1
    800069cc:	86060613          	addi	a2,a2,-1952 # 80007228 <rtable.1941>
    800069d0:	00084783          	lbu	a5,0(a6)
    800069d4:	00e7c6b3          	xor	a3,a5,a4
    800069d8:	00f6f693          	andi	a3,a3,15
    800069dc:	00269693          	slli	a3,a3,0x2
    800069e0:	00d606b3          	add	a3,a2,a3
    800069e4:	0047571b          	srliw	a4,a4,0x4
    800069e8:	0006a683          	lw	a3,0(a3) # ffffffff80000000 <_sp+0xfffffffef1000000>
    800069ec:	00e6c733          	xor	a4,a3,a4
    800069f0:	0007071b          	sext.w	a4,a4
    800069f4:	0047d793          	srli	a5,a5,0x4
    800069f8:	00e7c7b3          	xor	a5,a5,a4
    800069fc:	00f7f793          	andi	a5,a5,15
    80006a00:	00279793          	slli	a5,a5,0x2
    80006a04:	00f607b3          	add	a5,a2,a5
    80006a08:	0047569b          	srliw	a3,a4,0x4
    80006a0c:	0007a703          	lw	a4,0(a5)
    80006a10:	00d74733          	xor	a4,a4,a3
    80006a14:	0007071b          	sext.w	a4,a4
    80006a18:	00180813          	addi	a6,a6,1
    80006a1c:	fab81ae3          	bne	a6,a1,800069d0 <lfs_crc+0x18>
    80006a20:	00e52023          	sw	a4,0(a0)
    80006a24:	00008067          	ret
    80006a28:	00008067          	ret
    80006a2c:	00008067          	ret
    80006a30:	00008067          	ret

0000000080006a34 <lfs_read>:
    80006a34:	ff010113          	addi	sp,sp,-16
    80006a38:	00113423          	sd	ra,8(sp)
    80006a3c:	03052783          	lw	a5,48(a0)
    80006a40:	02b785bb          	mulw	a1,a5,a1
    80006a44:	02059593          	slli	a1,a1,0x20
    80006a48:	0205d593          	srli	a1,a1,0x20
    80006a4c:	02061613          	slli	a2,a2,0x20
    80006a50:	02065613          	srli	a2,a2,0x20
    80006a54:	00c585b3          	add	a1,a1,a2
    80006a58:	02071613          	slli	a2,a4,0x20
    80006a5c:	02065613          	srli	a2,a2,0x20
    80006a60:	000f9797          	auipc	a5,0xf9
    80006a64:	5c87b783          	ld	a5,1480(a5) # 80100028 <lfs_ptr>
    80006a68:	00b785b3          	add	a1,a5,a1
    80006a6c:	00068513          	mv	a0,a3
    80006a70:	1e4000ef          	jal	ra,80006c54 <memcpy>
    80006a74:	00000513          	li	a0,0
    80006a78:	00813083          	ld	ra,8(sp)
    80006a7c:	01010113          	addi	sp,sp,16
    80006a80:	00008067          	ret

0000000080006a84 <lfs_prog>:
    80006a84:	ff010113          	addi	sp,sp,-16
    80006a88:	00113423          	sd	ra,8(sp)
    80006a8c:	03052503          	lw	a0,48(a0)
    80006a90:	02b507bb          	mulw	a5,a0,a1
    80006a94:	02079793          	slli	a5,a5,0x20
    80006a98:	0207d793          	srli	a5,a5,0x20
    80006a9c:	02061613          	slli	a2,a2,0x20
    80006aa0:	02065613          	srli	a2,a2,0x20
    80006aa4:	00c787b3          	add	a5,a5,a2
    80006aa8:	02071613          	slli	a2,a4,0x20
    80006aac:	02065613          	srli	a2,a2,0x20
    80006ab0:	00068593          	mv	a1,a3
    80006ab4:	000f9517          	auipc	a0,0xf9
    80006ab8:	57453503          	ld	a0,1396(a0) # 80100028 <lfs_ptr>
    80006abc:	00f50533          	add	a0,a0,a5
    80006ac0:	194000ef          	jal	ra,80006c54 <memcpy>
    80006ac4:	00000513          	li	a0,0
    80006ac8:	00813083          	ld	ra,8(sp)
    80006acc:	01010113          	addi	sp,sp,16
    80006ad0:	00008067          	ret

0000000080006ad4 <lfs_erase>:
    80006ad4:	ff010113          	addi	sp,sp,-16
    80006ad8:	00113423          	sd	ra,8(sp)
    80006adc:	03052603          	lw	a2,48(a0)
    80006ae0:	02b605bb          	mulw	a1,a2,a1
    80006ae4:	02059793          	slli	a5,a1,0x20
    80006ae8:	0207d793          	srli	a5,a5,0x20
    80006aec:	02061613          	slli	a2,a2,0x20
    80006af0:	02065613          	srli	a2,a2,0x20
    80006af4:	00000593          	li	a1,0
    80006af8:	000f9517          	auipc	a0,0xf9
    80006afc:	53053503          	ld	a0,1328(a0) # 80100028 <lfs_ptr>
    80006b00:	00f50533          	add	a0,a0,a5
    80006b04:	b74fa0ef          	jal	ra,80000e78 <memset>
    80006b08:	00000513          	li	a0,0
    80006b0c:	00813083          	ld	ra,8(sp)
    80006b10:	01010113          	addi	sp,sp,16
    80006b14:	00008067          	ret

0000000080006b18 <lfs_sync>:
    80006b18:	00000513          	li	a0,0
    80006b1c:	00008067          	ret
    80006b20:	ff010113          	addi	sp,sp,-16
    80006b24:	00113423          	sd	ra,8(sp)
    80006b28:	de4fb0ef          	jal	ra,8000210c <dramfs_init_fdtable>
    80006b2c:	00003597          	auipc	a1,0x3
    80006b30:	18458593          	addi	a1,a1,388 # 80009cb0 <dramfs_fs_cfg>
    80006b34:	000fa517          	auipc	a0,0xfa
    80006b38:	bcc50513          	addi	a0,a0,-1076 # 80100700 <dramfs_fs>
    80006b3c:	bf8fd0ef          	jal	ra,80003f34 <lfs_mount>
    80006b40:	04054c63          	bltz	a0,80006b98 <lfs_sync+0x80>
    80006b44:	00000593          	li	a1,0
    80006b48:	00000517          	auipc	a0,0x0
    80006b4c:	74050513          	addi	a0,a0,1856 # 80007288 <rtable.1941+0x60>
    80006b50:	4c0000ef          	jal	ra,80007010 <open>
    80006b54:	04051663          	bnez	a0,80006ba0 <lfs_sync+0x88>
    80006b58:	00100593          	li	a1,1
    80006b5c:	00000517          	auipc	a0,0x0
    80006b60:	73450513          	addi	a0,a0,1844 # 80007290 <rtable.1941+0x68>
    80006b64:	4ac000ef          	jal	ra,80007010 <open>
    80006b68:	00100793          	li	a5,1
    80006b6c:	02f51e63          	bne	a0,a5,80006ba8 <lfs_sync+0x90>
    80006b70:	00100593          	li	a1,1
    80006b74:	00000517          	auipc	a0,0x0
    80006b78:	72450513          	addi	a0,a0,1828 # 80007298 <rtable.1941+0x70>
    80006b7c:	494000ef          	jal	ra,80007010 <open>
    80006b80:	ffe50513          	addi	a0,a0,-2
    80006b84:	00a03533          	snez	a0,a0
    80006b88:	40a00533          	neg	a0,a0
    80006b8c:	00813083          	ld	ra,8(sp)
    80006b90:	01010113          	addi	sp,sp,16
    80006b94:	00008067          	ret
    80006b98:	fff00513          	li	a0,-1
    80006b9c:	ff1ff06f          	j	80006b8c <lfs_sync+0x74>
    80006ba0:	fff00513          	li	a0,-1
    80006ba4:	fe9ff06f          	j	80006b8c <lfs_sync+0x74>
    80006ba8:	fff00513          	li	a0,-1
    80006bac:	fe1ff06f          	j	80006b8c <lfs_sync+0x74>

0000000080006bb0 <__errno>:
    80006bb0:	000f9517          	auipc	a0,0xf9
    80006bb4:	45853503          	ld	a0,1112(a0) # 80100008 <_impure_ptr>
    80006bb8:	00008067          	ret

0000000080006bbc <malloc>:
    80006bbc:	00050593          	mv	a1,a0
    80006bc0:	000f9517          	auipc	a0,0xf9
    80006bc4:	44853503          	ld	a0,1096(a0) # 80100008 <_impure_ptr>
    80006bc8:	c75fa06f          	j	8000183c <_malloc_r>

0000000080006bcc <free>:
    80006bcc:	00050593          	mv	a1,a0
    80006bd0:	000f9517          	auipc	a0,0xf9
    80006bd4:	43853503          	ld	a0,1080(a0) # 80100008 <_impure_ptr>
    80006bd8:	935fa06f          	j	8000150c <_free_r>

0000000080006bdc <memcmp>:
    80006bdc:	00700793          	li	a5,7
    80006be0:	02c7f863          	bgeu	a5,a2,80006c10 <memcmp+0x34>
    80006be4:	00b567b3          	or	a5,a0,a1
    80006be8:	0077f793          	andi	a5,a5,7
    80006bec:	00700693          	li	a3,7
    80006bf0:	04079e63          	bnez	a5,80006c4c <memcmp+0x70>
    80006bf4:	00053703          	ld	a4,0(a0)
    80006bf8:	0005b783          	ld	a5,0(a1)
    80006bfc:	04f71863          	bne	a4,a5,80006c4c <memcmp+0x70>
    80006c00:	ff860613          	addi	a2,a2,-8
    80006c04:	00850513          	addi	a0,a0,8
    80006c08:	00858593          	addi	a1,a1,8
    80006c0c:	fec6e4e3          	bltu	a3,a2,80006bf4 <memcmp+0x18>
    80006c10:	fff60693          	addi	a3,a2,-1
    80006c14:	02060863          	beqz	a2,80006c44 <memcmp+0x68>
    80006c18:	00168693          	addi	a3,a3,1
    80006c1c:	00d586b3          	add	a3,a1,a3
    80006c20:	0080006f          	j	80006c28 <memcmp+0x4c>
    80006c24:	02d58063          	beq	a1,a3,80006c44 <memcmp+0x68>
    80006c28:	00054783          	lbu	a5,0(a0)
    80006c2c:	0005c703          	lbu	a4,0(a1)
    80006c30:	00150513          	addi	a0,a0,1
    80006c34:	00158593          	addi	a1,a1,1
    80006c38:	fee786e3          	beq	a5,a4,80006c24 <memcmp+0x48>
    80006c3c:	40e7853b          	subw	a0,a5,a4
    80006c40:	00008067          	ret
    80006c44:	00000513          	li	a0,0
    80006c48:	00008067          	ret
    80006c4c:	fff60693          	addi	a3,a2,-1
    80006c50:	fc9ff06f          	j	80006c18 <memcmp+0x3c>

0000000080006c54 <memcpy>:
    80006c54:	00a5c7b3          	xor	a5,a1,a0
    80006c58:	0077f793          	andi	a5,a5,7
    80006c5c:	00c508b3          	add	a7,a0,a2
    80006c60:	06079263          	bnez	a5,80006cc4 <memcpy+0x70>
    80006c64:	00700793          	li	a5,7
    80006c68:	04c7fe63          	bgeu	a5,a2,80006cc4 <memcpy+0x70>
    80006c6c:	00757793          	andi	a5,a0,7
    80006c70:	00050713          	mv	a4,a0
    80006c74:	06079863          	bnez	a5,80006ce4 <memcpy+0x90>
    80006c78:	ff88f613          	andi	a2,a7,-8
    80006c7c:	fc060793          	addi	a5,a2,-64
    80006c80:	08f76c63          	bltu	a4,a5,80006d18 <memcpy+0xc4>
    80006c84:	02c77c63          	bgeu	a4,a2,80006cbc <memcpy+0x68>
    80006c88:	00058693          	mv	a3,a1
    80006c8c:	00070793          	mv	a5,a4
    80006c90:	0006b803          	ld	a6,0(a3)
    80006c94:	00878793          	addi	a5,a5,8
    80006c98:	00868693          	addi	a3,a3,8
    80006c9c:	ff07bc23          	sd	a6,-8(a5)
    80006ca0:	fec7e8e3          	bltu	a5,a2,80006c90 <memcpy+0x3c>
    80006ca4:	fff60793          	addi	a5,a2,-1
    80006ca8:	40e787b3          	sub	a5,a5,a4
    80006cac:	ff87f793          	andi	a5,a5,-8
    80006cb0:	00878793          	addi	a5,a5,8
    80006cb4:	00f70733          	add	a4,a4,a5
    80006cb8:	00f585b3          	add	a1,a1,a5
    80006cbc:	01176863          	bltu	a4,a7,80006ccc <memcpy+0x78>
    80006cc0:	00008067          	ret
    80006cc4:	00050713          	mv	a4,a0
    80006cc8:	ff157ce3          	bgeu	a0,a7,80006cc0 <memcpy+0x6c>
    80006ccc:	0005c783          	lbu	a5,0(a1)
    80006cd0:	00170713          	addi	a4,a4,1
    80006cd4:	00158593          	addi	a1,a1,1
    80006cd8:	fef70fa3          	sb	a5,-1(a4)
    80006cdc:	ff1768e3          	bltu	a4,a7,80006ccc <memcpy+0x78>
    80006ce0:	00008067          	ret
    80006ce4:	0005c683          	lbu	a3,0(a1)
    80006ce8:	00170713          	addi	a4,a4,1
    80006cec:	00777793          	andi	a5,a4,7
    80006cf0:	fed70fa3          	sb	a3,-1(a4)
    80006cf4:	00158593          	addi	a1,a1,1
    80006cf8:	f80780e3          	beqz	a5,80006c78 <memcpy+0x24>
    80006cfc:	0005c683          	lbu	a3,0(a1)
    80006d00:	00170713          	addi	a4,a4,1
    80006d04:	00777793          	andi	a5,a4,7
    80006d08:	fed70fa3          	sb	a3,-1(a4)
    80006d0c:	00158593          	addi	a1,a1,1
    80006d10:	fc079ae3          	bnez	a5,80006ce4 <memcpy+0x90>
    80006d14:	f65ff06f          	j	80006c78 <memcpy+0x24>
    80006d18:	0085b683          	ld	a3,8(a1)
    80006d1c:	0005b283          	ld	t0,0(a1)
    80006d20:	0105bf83          	ld	t6,16(a1)
    80006d24:	0185bf03          	ld	t5,24(a1)
    80006d28:	0205be83          	ld	t4,32(a1)
    80006d2c:	0285be03          	ld	t3,40(a1)
    80006d30:	0305b303          	ld	t1,48(a1)
    80006d34:	0385b803          	ld	a6,56(a1)
    80006d38:	00d73423          	sd	a3,8(a4)
    80006d3c:	0405b683          	ld	a3,64(a1)
    80006d40:	00573023          	sd	t0,0(a4)
    80006d44:	01f73823          	sd	t6,16(a4)
    80006d48:	01e73c23          	sd	t5,24(a4)
    80006d4c:	03d73023          	sd	t4,32(a4)
    80006d50:	03c73423          	sd	t3,40(a4)
    80006d54:	02673823          	sd	t1,48(a4)
    80006d58:	03073c23          	sd	a6,56(a4)
    80006d5c:	04d73023          	sd	a3,64(a4)
    80006d60:	04870713          	addi	a4,a4,72
    80006d64:	04858593          	addi	a1,a1,72
    80006d68:	faf768e3          	bltu	a4,a5,80006d18 <memcpy+0xc4>
    80006d6c:	f19ff06f          	j	80006c84 <memcpy+0x30>

0000000080006d70 <strchr>:
    80006d70:	0ff5f593          	andi	a1,a1,255
    80006d74:	00757793          	andi	a5,a0,7
    80006d78:	0c058263          	beqz	a1,80006e3c <strchr+0xcc>
    80006d7c:	00078e63          	beqz	a5,80006d98 <strchr+0x28>
    80006d80:	00054783          	lbu	a5,0(a0)
    80006d84:	0a078863          	beqz	a5,80006e34 <strchr+0xc4>
    80006d88:	0ab78863          	beq	a5,a1,80006e38 <strchr+0xc8>
    80006d8c:	00150513          	addi	a0,a0,1
    80006d90:	00757793          	andi	a5,a0,7
    80006d94:	fe0796e3          	bnez	a5,80006d80 <strchr+0x10>
    80006d98:	00859793          	slli	a5,a1,0x8
    80006d9c:	00f5e7b3          	or	a5,a1,a5
    80006da0:	01079893          	slli	a7,a5,0x10
    80006da4:	00053703          	ld	a4,0(a0)
    80006da8:	00f8e7b3          	or	a5,a7,a5
    80006dac:	02079893          	slli	a7,a5,0x20
    80006db0:	00f8e8b3          	or	a7,a7,a5
    80006db4:	00e8c6b3          	xor	a3,a7,a4
    80006db8:	000f9317          	auipc	t1,0xf9
    80006dbc:	27833303          	ld	t1,632(t1) # 80100030 <lfs_ptr+0x8>
    80006dc0:	006687b3          	add	a5,a3,t1
    80006dc4:	00670633          	add	a2,a4,t1
    80006dc8:	fff6c693          	not	a3,a3
    80006dcc:	fff74713          	not	a4,a4
    80006dd0:	00d7f7b3          	and	a5,a5,a3
    80006dd4:	00e67733          	and	a4,a2,a4
    80006dd8:	00e7e7b3          	or	a5,a5,a4
    80006ddc:	000f9817          	auipc	a6,0xf9
    80006de0:	25c83803          	ld	a6,604(a6) # 80100038 <lfs_ptr+0x10>
    80006de4:	0107f7b3          	and	a5,a5,a6
    80006de8:	02079a63          	bnez	a5,80006e1c <strchr+0xac>
    80006dec:	00853703          	ld	a4,8(a0)
    80006df0:	00850513          	addi	a0,a0,8
    80006df4:	011746b3          	xor	a3,a4,a7
    80006df8:	006707b3          	add	a5,a4,t1
    80006dfc:	00668633          	add	a2,a3,t1
    80006e00:	fff74713          	not	a4,a4
    80006e04:	fff6c693          	not	a3,a3
    80006e08:	00e7f7b3          	and	a5,a5,a4
    80006e0c:	00d676b3          	and	a3,a2,a3
    80006e10:	00d7e7b3          	or	a5,a5,a3
    80006e14:	0107f7b3          	and	a5,a5,a6
    80006e18:	fc078ae3          	beqz	a5,80006dec <strchr+0x7c>
    80006e1c:	00054783          	lbu	a5,0(a0)
    80006e20:	00078a63          	beqz	a5,80006e34 <strchr+0xc4>
    80006e24:	06f58e63          	beq	a1,a5,80006ea0 <strchr+0x130>
    80006e28:	00154783          	lbu	a5,1(a0)
    80006e2c:	00150513          	addi	a0,a0,1
    80006e30:	fe079ae3          	bnez	a5,80006e24 <strchr+0xb4>
    80006e34:	00000513          	li	a0,0
    80006e38:	00008067          	ret
    80006e3c:	00078c63          	beqz	a5,80006e54 <strchr+0xe4>
    80006e40:	00054783          	lbu	a5,0(a0)
    80006e44:	fe078ae3          	beqz	a5,80006e38 <strchr+0xc8>
    80006e48:	00150513          	addi	a0,a0,1
    80006e4c:	00757793          	andi	a5,a0,7
    80006e50:	fe0798e3          	bnez	a5,80006e40 <strchr+0xd0>
    80006e54:	00053703          	ld	a4,0(a0)
    80006e58:	000f9317          	auipc	t1,0xf9
    80006e5c:	1d833303          	ld	t1,472(t1) # 80100030 <lfs_ptr+0x8>
    80006e60:	000f9817          	auipc	a6,0xf9
    80006e64:	1d883803          	ld	a6,472(a6) # 80100038 <lfs_ptr+0x10>
    80006e68:	00c0006f          	j	80006e74 <strchr+0x104>
    80006e6c:	00853703          	ld	a4,8(a0)
    80006e70:	00850513          	addi	a0,a0,8
    80006e74:	006707b3          	add	a5,a4,t1
    80006e78:	fff74713          	not	a4,a4
    80006e7c:	00e7f7b3          	and	a5,a5,a4
    80006e80:	0107f7b3          	and	a5,a5,a6
    80006e84:	fe0784e3          	beqz	a5,80006e6c <strchr+0xfc>
    80006e88:	00054783          	lbu	a5,0(a0)
    80006e8c:	fa0786e3          	beqz	a5,80006e38 <strchr+0xc8>
    80006e90:	00154783          	lbu	a5,1(a0)
    80006e94:	00150513          	addi	a0,a0,1
    80006e98:	fe079ce3          	bnez	a5,80006e90 <strchr+0x120>
    80006e9c:	00008067          	ret
    80006ea0:	00008067          	ret

0000000080006ea4 <strcspn>:
    80006ea4:	00054683          	lbu	a3,0(a0)
    80006ea8:	04068463          	beqz	a3,80006ef0 <strcspn+0x4c>
    80006eac:	0005c803          	lbu	a6,0(a1)
    80006eb0:	00050613          	mv	a2,a0
    80006eb4:	00058793          	mv	a5,a1
    80006eb8:	00080713          	mv	a4,a6
    80006ebc:	00081863          	bnez	a6,80006ecc <strcspn+0x28>
    80006ec0:	01c0006f          	j	80006edc <strcspn+0x38>
    80006ec4:	0007c703          	lbu	a4,0(a5)
    80006ec8:	00070a63          	beqz	a4,80006edc <strcspn+0x38>
    80006ecc:	00178793          	addi	a5,a5,1
    80006ed0:	fed71ae3          	bne	a4,a3,80006ec4 <strcspn+0x20>
    80006ed4:	40a60533          	sub	a0,a2,a0
    80006ed8:	00008067          	ret
    80006edc:	00164683          	lbu	a3,1(a2)
    80006ee0:	00160613          	addi	a2,a2,1
    80006ee4:	fc0698e3          	bnez	a3,80006eb4 <strcspn+0x10>
    80006ee8:	40a60533          	sub	a0,a2,a0
    80006eec:	00008067          	ret
    80006ef0:	00000513          	li	a0,0
    80006ef4:	00008067          	ret

0000000080006ef8 <strlen>:
    80006ef8:	00757793          	andi	a5,a0,7
    80006efc:	00050713          	mv	a4,a0
    80006f00:	06079c63          	bnez	a5,80006f78 <strlen+0x80>
    80006f04:	000f9697          	auipc	a3,0xf9
    80006f08:	13c6b683          	ld	a3,316(a3) # 80100040 <lfs_ptr+0x18>
    80006f0c:	fff00593          	li	a1,-1
    80006f10:	00073603          	ld	a2,0(a4)
    80006f14:	00870713          	addi	a4,a4,8
    80006f18:	00d677b3          	and	a5,a2,a3
    80006f1c:	00d787b3          	add	a5,a5,a3
    80006f20:	00c7e7b3          	or	a5,a5,a2
    80006f24:	00d7e7b3          	or	a5,a5,a3
    80006f28:	feb784e3          	beq	a5,a1,80006f10 <strlen+0x18>
    80006f2c:	ff874683          	lbu	a3,-8(a4)
    80006f30:	40a707b3          	sub	a5,a4,a0
    80006f34:	06068463          	beqz	a3,80006f9c <strlen+0xa4>
    80006f38:	ff974683          	lbu	a3,-7(a4)
    80006f3c:	04068c63          	beqz	a3,80006f94 <strlen+0x9c>
    80006f40:	ffa74683          	lbu	a3,-6(a4)
    80006f44:	06068463          	beqz	a3,80006fac <strlen+0xb4>
    80006f48:	ffb74683          	lbu	a3,-5(a4)
    80006f4c:	04068c63          	beqz	a3,80006fa4 <strlen+0xac>
    80006f50:	ffc74683          	lbu	a3,-4(a4)
    80006f54:	ffd74603          	lbu	a2,-3(a4)
    80006f58:	ffe74503          	lbu	a0,-2(a4)
    80006f5c:	04068c63          	beqz	a3,80006fb4 <strlen+0xbc>
    80006f60:	04060e63          	beqz	a2,80006fbc <strlen+0xc4>
    80006f64:	00a03533          	snez	a0,a0
    80006f68:	00f50533          	add	a0,a0,a5
    80006f6c:	ffe50513          	addi	a0,a0,-2
    80006f70:	00008067          	ret
    80006f74:	f80688e3          	beqz	a3,80006f04 <strlen+0xc>
    80006f78:	00074783          	lbu	a5,0(a4)
    80006f7c:	00170713          	addi	a4,a4,1
    80006f80:	00777693          	andi	a3,a4,7
    80006f84:	fe0798e3          	bnez	a5,80006f74 <strlen+0x7c>
    80006f88:	40a70733          	sub	a4,a4,a0
    80006f8c:	fff70513          	addi	a0,a4,-1
    80006f90:	00008067          	ret
    80006f94:	ff978513          	addi	a0,a5,-7
    80006f98:	00008067          	ret
    80006f9c:	ff878513          	addi	a0,a5,-8
    80006fa0:	00008067          	ret
    80006fa4:	ffb78513          	addi	a0,a5,-5
    80006fa8:	00008067          	ret
    80006fac:	ffa78513          	addi	a0,a5,-6
    80006fb0:	00008067          	ret
    80006fb4:	ffc78513          	addi	a0,a5,-4
    80006fb8:	00008067          	ret
    80006fbc:	ffd78513          	addi	a0,a5,-3
    80006fc0:	00008067          	ret

0000000080006fc4 <strspn>:
    80006fc4:	00054683          	lbu	a3,0(a0)
    80006fc8:	04068063          	beqz	a3,80007008 <strspn+0x44>
    80006fcc:	0005c803          	lbu	a6,0(a1)
    80006fd0:	00050613          	mv	a2,a0
    80006fd4:	02080663          	beqz	a6,80007000 <strspn+0x3c>
    80006fd8:	00058793          	mv	a5,a1
    80006fdc:	00080713          	mv	a4,a6
    80006fe0:	00c0006f          	j	80006fec <strspn+0x28>
    80006fe4:	0007c703          	lbu	a4,0(a5)
    80006fe8:	00070c63          	beqz	a4,80007000 <strspn+0x3c>
    80006fec:	00178793          	addi	a5,a5,1
    80006ff0:	fed71ae3          	bne	a4,a3,80006fe4 <strspn+0x20>
    80006ff4:	00164683          	lbu	a3,1(a2)
    80006ff8:	00160613          	addi	a2,a2,1
    80006ffc:	fc069ce3          	bnez	a3,80006fd4 <strspn+0x10>
    80007000:	40a60533          	sub	a0,a2,a0
    80007004:	00008067          	ret
    80007008:	00000513          	li	a0,0
    8000700c:	00008067          	ret

0000000080007010 <open>:
    80007010:	fb010113          	addi	sp,sp,-80
    80007014:	02c13023          	sd	a2,32(sp)
    80007018:	02d13423          	sd	a3,40(sp)
    8000701c:	02f13c23          	sd	a5,56(sp)
    80007020:	0006069b          	sext.w	a3,a2
    80007024:	02010793          	addi	a5,sp,32
    80007028:	00058613          	mv	a2,a1
    8000702c:	00050593          	mv	a1,a0
    80007030:	000f9517          	auipc	a0,0xf9
    80007034:	fd853503          	ld	a0,-40(a0) # 80100008 <_impure_ptr>
    80007038:	00113c23          	sd	ra,24(sp)
    8000703c:	02e13823          	sd	a4,48(sp)
    80007040:	05013023          	sd	a6,64(sp)
    80007044:	05113423          	sd	a7,72(sp)
    80007048:	00f13423          	sd	a5,8(sp)
    8000704c:	010000ef          	jal	ra,8000705c <_open_r>
    80007050:	01813083          	ld	ra,24(sp)
    80007054:	05010113          	addi	sp,sp,80
    80007058:	00008067          	ret

000000008000705c <_open_r>:
    8000705c:	ff010113          	addi	sp,sp,-16
    80007060:	00058713          	mv	a4,a1
    80007064:	00813023          	sd	s0,0(sp)
    80007068:	00060593          	mv	a1,a2
    8000706c:	00050413          	mv	s0,a0
    80007070:	00068613          	mv	a2,a3
    80007074:	00070513          	mv	a0,a4
    80007078:	000f9797          	auipc	a5,0xf9
    8000707c:	6e07a423          	sw	zero,1768(a5) # 80100760 <errno>
    80007080:	00113423          	sd	ra,8(sp)
    80007084:	03c000ef          	jal	ra,800070c0 <_open>
    80007088:	fff00793          	li	a5,-1
    8000708c:	00f50a63          	beq	a0,a5,800070a0 <_open_r+0x44>
    80007090:	00813083          	ld	ra,8(sp)
    80007094:	00013403          	ld	s0,0(sp)
    80007098:	01010113          	addi	sp,sp,16
    8000709c:	00008067          	ret
    800070a0:	000f9797          	auipc	a5,0xf9
    800070a4:	6c07a783          	lw	a5,1728(a5) # 80100760 <errno>
    800070a8:	fe0784e3          	beqz	a5,80007090 <_open_r+0x34>
    800070ac:	00813083          	ld	ra,8(sp)
    800070b0:	00f42023          	sw	a5,0(s0)
    800070b4:	00013403          	ld	s0,0(sp)
    800070b8:	01010113          	addi	sp,sp,16
    800070bc:	00008067          	ret

00000000800070c0 <_open>:
    800070c0:	fe010113          	addi	sp,sp,-32
    800070c4:	00813823          	sd	s0,16(sp)
    800070c8:	00913423          	sd	s1,8(sp)
    800070cc:	00058413          	mv	s0,a1
    800070d0:	01213023          	sd	s2,0(sp)
    800070d4:	00113c23          	sd	ra,24(sp)
    800070d8:	00050493          	mv	s1,a0
    800070dc:	8d0fb0ef          	jal	ra,800021ac <dramfs_reserve_fd>
    800070e0:	0014179b          	slliw	a5,s0,0x1
    800070e4:	0027f793          	andi	a5,a5,2
    800070e8:	00247693          	andi	a3,s0,2
    800070ec:	00050913          	mv	s2,a0
    800070f0:	0007879b          	sext.w	a5,a5
    800070f4:	00300713          	li	a4,3
    800070f8:	00069463          	bnez	a3,80007100 <_open+0x40>
    800070fc:	0006871b          	sext.w	a4,a3
    80007100:	00001637          	lui	a2,0x1
    80007104:	0084169b          	slliw	a3,s0,0x8
    80007108:	80060613          	addi	a2,a2,-2048 # 800 <_start-0x7ffff800>
    8000710c:	00c6f6b3          	and	a3,a3,a2
    80007110:	00d7e6b3          	or	a3,a5,a3
    80007114:	40047613          	andi	a2,s0,1024
    80007118:	4014579b          	sraiw	a5,s0,0x1
    8000711c:	1007f793          	andi	a5,a5,256
    80007120:	40245413          	srai	s0,s0,0x2
    80007124:	00c6e6b3          	or	a3,a3,a2
    80007128:	00f6e6b3          	or	a3,a3,a5
    8000712c:	000015b7          	lui	a1,0x1
    80007130:	20047793          	andi	a5,s0,512
    80007134:	00f6e6b3          	or	a3,a3,a5
    80007138:	00b47433          	and	s0,s0,a1
    8000713c:	0086e6b3          	or	a3,a3,s0
    80007140:	00d766b3          	or	a3,a4,a3
    80007144:	0006841b          	sext.w	s0,a3
    80007148:	04094463          	bltz	s2,80007190 <_open+0xd0>
    8000714c:	00090513          	mv	a0,s2
    80007150:	8c8fb0ef          	jal	ra,80002218 <dramfs_get_file>
    80007154:	00050593          	mv	a1,a0
    80007158:	00040693          	mv	a3,s0
    8000715c:	00048613          	mv	a2,s1
    80007160:	000f9517          	auipc	a0,0xf9
    80007164:	5a050513          	addi	a0,a0,1440 # 80100700 <dramfs_fs>
    80007168:	cdcff0ef          	jal	ra,80006644 <lfs_file_open>
    8000716c:	00050413          	mv	s0,a0
    80007170:	02054463          	bltz	a0,80007198 <_open+0xd8>
    80007174:	01813083          	ld	ra,24(sp)
    80007178:	01013403          	ld	s0,16(sp)
    8000717c:	00813483          	ld	s1,8(sp)
    80007180:	00090513          	mv	a0,s2
    80007184:	00013903          	ld	s2,0(sp)
    80007188:	02010113          	addi	sp,sp,32
    8000718c:	00008067          	ret
    80007190:	fff00913          	li	s2,-1
    80007194:	fe1ff06f          	j	80007174 <_open+0xb4>
    80007198:	a19ff0ef          	jal	ra,80006bb0 <__errno>
    8000719c:	00852023          	sw	s0,0(a0)
    800071a0:	fff00913          	li	s2,-1
    800071a4:	fd1ff06f          	j	80007174 <_open+0xb4>

00000000800071a8 <register_fini>:
    800071a8:	00000793          	li	a5,0
    800071ac:	00078863          	beqz	a5,800071bc <register_fini+0x14>
    800071b0:	ffffa517          	auipc	a0,0xffffa
    800071b4:	bd850513          	addi	a0,a0,-1064 # 80000d88 <__libc_fini_array>
    800071b8:	b89f906f          	j	80000d40 <atexit>
    800071bc:	00008067          	ret
