
/home/fxiong19/ee477_final_project_start/black-parrot/bp_common/test/mem/hello_world.riscv:     file format elf64-littleriscv


Disassembly of section .text.init:

0000000080000000 <_start>:
    80000000:	00008137          	lui	sp,0x8
    80000004:	00f1011b          	addiw	sp,sp,15
    80000008:	01011113          	slli	sp,sp,0x10
    8000000c:	f14020f3          	csrr	ra,mhartid
    80000010:	00d09093          	slli	ra,ra,0xd
    80000014:	40110133          	sub	sp,sp,ra
    80000018:	34011073          	csrw	mscratch,sp
    8000001c:	00100093          	li	ra,1
    80000020:	00c09093          	slli	ra,ra,0xc
    80000024:	40110133          	sub	sp,sp,ra
    80000028:	00000097          	auipc	ra,0x0
    8000002c:	7500b083          	ld	ra,1872(ra) # 80000778 <_GLOBAL_OFFSET_TABLE_+0x8>
    80000030:	30509073          	csrw	mtvec,ra
    80000034:	00000093          	li	ra,0
    80000038:	00000193          	li	gp,0
    8000003c:	00000213          	li	tp,0
    80000040:	00000293          	li	t0,0
    80000044:	00000313          	li	t1,0
    80000048:	00000393          	li	t2,0
    8000004c:	00000413          	li	s0,0
    80000050:	00000493          	li	s1,0
    80000054:	00000513          	li	a0,0
    80000058:	00000593          	li	a1,0
    8000005c:	00000613          	li	a2,0
    80000060:	00000693          	li	a3,0
    80000064:	00000713          	li	a4,0
    80000068:	00000793          	li	a5,0
    8000006c:	00000813          	li	a6,0
    80000070:	00000893          	li	a7,0
    80000074:	00000913          	li	s2,0
    80000078:	00000993          	li	s3,0
    8000007c:	00000a13          	li	s4,0
    80000080:	00000a93          	li	s5,0
    80000084:	00000b13          	li	s6,0
    80000088:	00000b93          	li	s7,0
    8000008c:	00000c13          	li	s8,0
    80000090:	00000c93          	li	s9,0
    80000094:	00000d13          	li	s10,0
    80000098:	00000d93          	li	s11,0
    8000009c:	00000e13          	li	t3,0
    800000a0:	00000e93          	li	t4,0
    800000a4:	00000f13          	li	t5,0
    800000a8:	00000f93          	li	t6,0
    800000ac:	00c000ef          	jal	ra,800000b8 <main>

00000000800000b0 <loop>:
    800000b0:	00000013          	nop
    800000b4:	ffdff06f          	j	800000b0 <loop>

Disassembly of section .text:

00000000800000b8 <main>:
    800000b8:	f1402273          	csrr	tp,mhartid
    800000bc:	00321213          	slli	tp,tp,0x3
    800000c0:	001011b7          	lui	gp,0x101
    800000c4:	004181b3          	add	gp,gp,tp
    800000c8:	04800113          	li	sp,72
    800000cc:	00218023          	sb	sp,0(gp) # 101000 <_start-0x7feff000>
    800000d0:	06500113          	li	sp,101
    800000d4:	00218023          	sb	sp,0(gp) # 800011d0 <__global_pointer$>
    800000d8:	06c00113          	li	sp,108
    800000dc:	00218023          	sb	sp,0(gp) # 800011d0 <__global_pointer$>
    800000e0:	06c00113          	li	sp,108
    800000e4:	00218023          	sb	sp,0(gp) # 800011d0 <__global_pointer$>
    800000e8:	06f00113          	li	sp,111
    800000ec:	00218023          	sb	sp,0(gp) # 800011d0 <__global_pointer$>
    800000f0:	02000113          	li	sp,32
    800000f4:	00218023          	sb	sp,0(gp) # 800011d0 <__global_pointer$>
    800000f8:	07700113          	li	sp,119
    800000fc:	00218023          	sb	sp,0(gp) # 800011d0 <__global_pointer$>
    80000100:	06f00113          	li	sp,111
    80000104:	00218023          	sb	sp,0(gp) # 800011d0 <__global_pointer$>
    80000108:	07200113          	li	sp,114
    8000010c:	00218023          	sb	sp,0(gp) # 800011d0 <__global_pointer$>
    80000110:	06c00113          	li	sp,108
    80000114:	00218023          	sb	sp,0(gp) # 800011d0 <__global_pointer$>
    80000118:	06400113          	li	sp,100
    8000011c:	00218023          	sb	sp,0(gp) # 800011d0 <__global_pointer$>
    80000120:	02100113          	li	sp,33
    80000124:	00218023          	sb	sp,0(gp) # 800011d0 <__global_pointer$>
    80000128:	00d00113          	li	sp,13
    8000012c:	00218023          	sb	sp,0(gp) # 800011d0 <__global_pointer$>
    80000130:	00a00113          	li	sp,10
    80000134:	00218023          	sb	sp,0(gp) # 800011d0 <__global_pointer$>
    80000138:	00018023          	sb	zero,0(gp) # 800011d0 <__global_pointer$>
    8000013c:	001022b7          	lui	t0,0x102
    80000140:	004282b3          	add	t0,t0,tp
    80000144:	00000313          	li	t1,0
    80000148:	00628023          	sb	t1,0(t0) # 102000 <_start-0x7fefe000>
    8000014c:	00008067          	ret
    80000150:	00000013          	nop
    80000154:	00000013          	nop
    80000158:	00000013          	nop
    8000015c:	00000013          	nop
    80000160:	00000013          	nop

0000000080000164 <bp_mtvec_handler>:
    80000164:	34011173          	csrrw	sp,mscratch,sp
    80000168:	01f13023          	sd	t6,0(sp) # 8000 <_start-0x7fff8000>
    8000016c:	ffe13c23          	sd	t5,-8(sp)
    80000170:	ffd13823          	sd	t4,-16(sp)
    80000174:	ffc13423          	sd	t3,-24(sp)
    80000178:	ffb13023          	sd	s11,-32(sp)
    8000017c:	fda13c23          	sd	s10,-40(sp)
    80000180:	fd913823          	sd	s9,-48(sp)
    80000184:	fd813423          	sd	s8,-56(sp)
    80000188:	fd713023          	sd	s7,-64(sp)
    8000018c:	fb613c23          	sd	s6,-72(sp)
    80000190:	fb513823          	sd	s5,-80(sp)
    80000194:	fb413423          	sd	s4,-88(sp)
    80000198:	fb313023          	sd	s3,-96(sp)
    8000019c:	f9213c23          	sd	s2,-104(sp)
    800001a0:	f9113823          	sd	a7,-112(sp)
    800001a4:	f9013423          	sd	a6,-120(sp)
    800001a8:	f8f13023          	sd	a5,-128(sp)
    800001ac:	f6e13c23          	sd	a4,-136(sp)
    800001b0:	f6d13823          	sd	a3,-144(sp)
    800001b4:	f6c13423          	sd	a2,-152(sp)
    800001b8:	f6b13023          	sd	a1,-160(sp)
    800001bc:	f4a13c23          	sd	a0,-168(sp)
    800001c0:	f4913823          	sd	s1,-176(sp)
    800001c4:	f4813423          	sd	s0,-184(sp)
    800001c8:	f4713023          	sd	t2,-192(sp)
    800001cc:	f2613c23          	sd	t1,-200(sp)
    800001d0:	f2513823          	sd	t0,-208(sp)
    800001d4:	f2413423          	sd	tp,-216(sp)
    800001d8:	f2313023          	sd	gp,-224(sp)
    800001dc:	340022f3          	csrr	t0,mscratch
    800001e0:	f0513c23          	sd	t0,-232(sp)
    800001e4:	f0113823          	sd	ra,-240(sp)
    800001e8:	f0013423          	sd	zero,-248(sp)
    800001ec:	f0010113          	addi	sp,sp,-256
    800001f0:	00810513          	addi	a0,sp,8
    800001f4:	342025f3          	csrr	a1,mcause
    800001f8:	34302673          	csrr	a2,mtval
    800001fc:	1e8000ef          	jal	ra,800003e4 <decode_illegal>
    80000200:	341022f3          	csrr	t0,mepc
    80000204:	00428293          	addi	t0,t0,4
    80000208:	34129073          	csrw	mepc,t0
    8000020c:	10010113          	addi	sp,sp,256
    80000210:	34011073          	csrw	mscratch,sp
    80000214:	f0813003          	ld	zero,-248(sp)
    80000218:	f1013083          	ld	ra,-240(sp)
    8000021c:	f2013183          	ld	gp,-224(sp)
    80000220:	f2813203          	ld	tp,-216(sp)
    80000224:	f3013283          	ld	t0,-208(sp)
    80000228:	f3813303          	ld	t1,-200(sp)
    8000022c:	f4013383          	ld	t2,-192(sp)
    80000230:	f4813403          	ld	s0,-184(sp)
    80000234:	f5013483          	ld	s1,-176(sp)
    80000238:	f5813503          	ld	a0,-168(sp)
    8000023c:	f6013583          	ld	a1,-160(sp)
    80000240:	f6813603          	ld	a2,-152(sp)
    80000244:	f7013683          	ld	a3,-144(sp)
    80000248:	f7813703          	ld	a4,-136(sp)
    8000024c:	f8013783          	ld	a5,-128(sp)
    80000250:	f8813803          	ld	a6,-120(sp)
    80000254:	f9013883          	ld	a7,-112(sp)
    80000258:	f9813903          	ld	s2,-104(sp)
    8000025c:	fa013983          	ld	s3,-96(sp)
    80000260:	fa813a03          	ld	s4,-88(sp)
    80000264:	fb013a83          	ld	s5,-80(sp)
    80000268:	fb813b03          	ld	s6,-72(sp)
    8000026c:	fc013b83          	ld	s7,-64(sp)
    80000270:	fc813c03          	ld	s8,-56(sp)
    80000274:	fd013c83          	ld	s9,-48(sp)
    80000278:	fd813d03          	ld	s10,-40(sp)
    8000027c:	fe013d83          	ld	s11,-32(sp)
    80000280:	fe813e03          	ld	t3,-24(sp)
    80000284:	ff013e83          	ld	t4,-16(sp)
    80000288:	ff813f03          	ld	t5,-8(sp)
    8000028c:	00013f83          	ld	t6,0(sp)
    80000290:	f1813103          	ld	sp,-232(sp)
    80000294:	30200073          	mret

0000000080000298 <get_byte>:
    80000298:	fe010113          	addi	sp,sp,-32
    8000029c:	00813c23          	sd	s0,24(sp)
    800002a0:	02010413          	addi	s0,sp,32
    800002a4:	fea43423          	sd	a0,-24(s0)
    800002a8:	00058793          	mv	a5,a1
    800002ac:	fef403a3          	sb	a5,-25(s0)
    800002b0:	fe744783          	lbu	a5,-25(s0)
    800002b4:	0007879b          	sext.w	a5,a5
    800002b8:	0037979b          	slliw	a5,a5,0x3
    800002bc:	0007879b          	sext.w	a5,a5
    800002c0:	00078713          	mv	a4,a5
    800002c4:	fe843783          	ld	a5,-24(s0)
    800002c8:	00e7d7b3          	srl	a5,a5,a4
    800002cc:	0ff7f793          	andi	a5,a5,255
    800002d0:	00078513          	mv	a0,a5
    800002d4:	01813403          	ld	s0,24(sp)
    800002d8:	02010113          	addi	sp,sp,32
    800002dc:	00008067          	ret

00000000800002e0 <print_reg>:
    800002e0:	fc010113          	addi	sp,sp,-64
    800002e4:	02113c23          	sd	ra,56(sp)
    800002e8:	02813823          	sd	s0,48(sp)
    800002ec:	04010413          	addi	s0,sp,64
    800002f0:	00050793          	mv	a5,a0
    800002f4:	fcb43023          	sd	a1,-64(s0)
    800002f8:	fcf407a3          	sb	a5,-49(s0)
    800002fc:	00900793          	li	a5,9
    80000300:	01c79793          	slli	a5,a5,0x1c
    80000304:	fff78793          	addi	a5,a5,-1
    80000308:	fef43023          	sd	a5,-32(s0)
    8000030c:	00000797          	auipc	a5,0x0
    80000310:	45c78793          	addi	a5,a5,1116 # 80000768 <amo_minuw+0x2c>
    80000314:	0007b783          	ld	a5,0(a5)
    80000318:	fcf43c23          	sd	a5,-40(s0)
    8000031c:	fd843783          	ld	a5,-40(s0)
    80000320:	07200713          	li	a4,114
    80000324:	00e78023          	sb	a4,0(a5)
    80000328:	fd843783          	ld	a5,-40(s0)
    8000032c:	06500713          	li	a4,101
    80000330:	00e78023          	sb	a4,0(a5)
    80000334:	fd843783          	ld	a5,-40(s0)
    80000338:	06700713          	li	a4,103
    8000033c:	00e78023          	sb	a4,0(a5)
    80000340:	fd843783          	ld	a5,-40(s0)
    80000344:	02000713          	li	a4,32
    80000348:	00e78023          	sb	a4,0(a5)
    8000034c:	fe043783          	ld	a5,-32(s0)
    80000350:	fcf44703          	lbu	a4,-49(s0)
    80000354:	00e78023          	sb	a4,0(a5)
    80000358:	fd843783          	ld	a5,-40(s0)
    8000035c:	02000713          	li	a4,32
    80000360:	00e78023          	sb	a4,0(a5)
    80000364:	00700793          	li	a5,7
    80000368:	fef42623          	sw	a5,-20(s0)
    8000036c:	0340006f          	j	800003a0 <print_reg+0xc0>
    80000370:	fec42783          	lw	a5,-20(s0)
    80000374:	0ff7f793          	andi	a5,a5,255
    80000378:	00078593          	mv	a1,a5
    8000037c:	fc043503          	ld	a0,-64(s0)
    80000380:	f19ff0ef          	jal	ra,80000298 <get_byte>
    80000384:	00050793          	mv	a5,a0
    80000388:	00078713          	mv	a4,a5
    8000038c:	fe043783          	ld	a5,-32(s0)
    80000390:	00e78023          	sb	a4,0(a5)
    80000394:	fec42783          	lw	a5,-20(s0)
    80000398:	fff7879b          	addiw	a5,a5,-1
    8000039c:	fef42623          	sw	a5,-20(s0)
    800003a0:	fec42783          	lw	a5,-20(s0)
    800003a4:	0007879b          	sext.w	a5,a5
    800003a8:	fc07d4e3          	bgez	a5,80000370 <print_reg+0x90>
    800003ac:	fd843783          	ld	a5,-40(s0)
    800003b0:	02000713          	li	a4,32
    800003b4:	00e78023          	sb	a4,0(a5)
    800003b8:	fd843783          	ld	a5,-40(s0)
    800003bc:	02000713          	li	a4,32
    800003c0:	00e78023          	sb	a4,0(a5)
    800003c4:	fd843783          	ld	a5,-40(s0)
    800003c8:	02000713          	li	a4,32
    800003cc:	00e78023          	sb	a4,0(a5)
    800003d0:	00000013          	nop
    800003d4:	03813083          	ld	ra,56(sp)
    800003d8:	03013403          	ld	s0,48(sp)
    800003dc:	04010113          	addi	sp,sp,64
    800003e0:	00008067          	ret

00000000800003e4 <decode_illegal>:
    800003e4:	fa010113          	addi	sp,sp,-96
    800003e8:	04113c23          	sd	ra,88(sp)
    800003ec:	04813823          	sd	s0,80(sp)
    800003f0:	04913423          	sd	s1,72(sp)
    800003f4:	06010413          	addi	s0,sp,96
    800003f8:	faa43c23          	sd	a0,-72(s0)
    800003fc:	fab43823          	sd	a1,-80(s0)
    80000400:	fac43423          	sd	a2,-88(s0)
    80000404:	fa843783          	ld	a5,-88(s0)
    80000408:	0147d793          	srli	a5,a5,0x14
    8000040c:	03079793          	slli	a5,a5,0x30
    80000410:	0307d793          	srli	a5,a5,0x30
    80000414:	7ff7f793          	andi	a5,a5,2047
    80000418:	fcf41f23          	sh	a5,-34(s0)
    8000041c:	fa843783          	ld	a5,-88(s0)
    80000420:	01b7d793          	srli	a5,a5,0x1b
    80000424:	0ff7f793          	andi	a5,a5,255
    80000428:	01f7f793          	andi	a5,a5,31
    8000042c:	fcf40ea3          	sb	a5,-35(s0)
    80000430:	fa843783          	ld	a5,-88(s0)
    80000434:	0147d793          	srli	a5,a5,0x14
    80000438:	0ff7f793          	andi	a5,a5,255
    8000043c:	01f7f793          	andi	a5,a5,31
    80000440:	fcf40e23          	sb	a5,-36(s0)
    80000444:	fa843783          	ld	a5,-88(s0)
    80000448:	00f7d793          	srli	a5,a5,0xf
    8000044c:	0ff7f793          	andi	a5,a5,255
    80000450:	01f7f793          	andi	a5,a5,31
    80000454:	fcf40da3          	sb	a5,-37(s0)
    80000458:	fa843783          	ld	a5,-88(s0)
    8000045c:	00c7d793          	srli	a5,a5,0xc
    80000460:	0ff7f793          	andi	a5,a5,255
    80000464:	0077f793          	andi	a5,a5,7
    80000468:	fcf40d23          	sb	a5,-38(s0)
    8000046c:	fa843783          	ld	a5,-88(s0)
    80000470:	0077d793          	srli	a5,a5,0x7
    80000474:	0ff7f793          	andi	a5,a5,255
    80000478:	01f7f793          	andi	a5,a5,31
    8000047c:	fcf40ca3          	sb	a5,-39(s0)
    80000480:	fa843783          	ld	a5,-88(s0)
    80000484:	0ff7f793          	andi	a5,a5,255
    80000488:	07f7f793          	andi	a5,a5,127
    8000048c:	fcf40c23          	sb	a5,-40(s0)
    80000490:	fdb44783          	lbu	a5,-37(s0)
    80000494:	00379793          	slli	a5,a5,0x3
    80000498:	fb843703          	ld	a4,-72(s0)
    8000049c:	00f707b3          	add	a5,a4,a5
    800004a0:	0007b783          	ld	a5,0(a5)
    800004a4:	fcf43823          	sd	a5,-48(s0)
    800004a8:	fdc44783          	lbu	a5,-36(s0)
    800004ac:	00379793          	slli	a5,a5,0x3
    800004b0:	fb843703          	ld	a4,-72(s0)
    800004b4:	00f707b3          	add	a5,a4,a5
    800004b8:	0007b783          	ld	a5,0(a5)
    800004bc:	fcf43423          	sd	a5,-56(s0)
    800004c0:	fd844783          	lbu	a5,-40(s0)
    800004c4:	0ff7f713          	andi	a4,a5,255
    800004c8:	02f00793          	li	a5,47
    800004cc:	04f71c63          	bne	a4,a5,80000524 <decode_illegal+0x140>
    800004d0:	fda44783          	lbu	a5,-38(s0)
    800004d4:	0007879b          	sext.w	a5,a5
    800004d8:	00000717          	auipc	a4,0x0
    800004dc:	4b870713          	addi	a4,a4,1208 # 80000990 <amo_jt>
    800004e0:	00379793          	slli	a5,a5,0x3
    800004e4:	00f707b3          	add	a5,a4,a5
    800004e8:	0007b703          	ld	a4,0(a5)
    800004ec:	fdd44783          	lbu	a5,-35(s0)
    800004f0:	00379793          	slli	a5,a5,0x3
    800004f4:	00f707b3          	add	a5,a4,a5
    800004f8:	0007b683          	ld	a3,0(a5)
    800004fc:	fd944783          	lbu	a5,-39(s0)
    80000500:	00379793          	slli	a5,a5,0x3
    80000504:	fb843703          	ld	a4,-72(s0)
    80000508:	00f704b3          	add	s1,a4,a5
    8000050c:	fc843583          	ld	a1,-56(s0)
    80000510:	fd043503          	ld	a0,-48(s0)
    80000514:	000680e7          	jalr	a3
    80000518:	00050793          	mv	a5,a0
    8000051c:	00f4b023          	sd	a5,0(s1)
    80000520:	0080006f          	j	80000528 <decode_illegal+0x144>
    80000524:	0000006f          	j	80000524 <decode_illegal+0x140>
    80000528:	05813083          	ld	ra,88(sp)
    8000052c:	05013403          	ld	s0,80(sp)
    80000530:	04813483          	ld	s1,72(sp)
    80000534:	06010113          	addi	sp,sp,96
    80000538:	00008067          	ret

000000008000053c <amo_swapw>:
    8000053c:	100522af          	lr.w	t0,(a0)
    80000540:	18b5232f          	sc.w	t1,a1,(a0)
    80000544:	fe031ce3          	bnez	t1,8000053c <amo_swapw>
    80000548:	00028513          	mv	a0,t0
    8000054c:	00008067          	ret

0000000080000550 <amo_swapd>:
    80000550:	100532af          	lr.d	t0,(a0)
    80000554:	18b5332f          	sc.d	t1,a1,(a0)
    80000558:	fe031ce3          	bnez	t1,80000550 <amo_swapd>
    8000055c:	00028513          	mv	a0,t0
    80000560:	00008067          	ret

0000000080000564 <amo_addw>:
    80000564:	100522af          	lr.w	t0,(a0)
    80000568:	00b2833b          	addw	t1,t0,a1
    8000056c:	1865232f          	sc.w	t1,t1,(a0)
    80000570:	fe031ae3          	bnez	t1,80000564 <amo_addw>
    80000574:	00028513          	mv	a0,t0
    80000578:	00008067          	ret

000000008000057c <amo_addd>:
    8000057c:	100532af          	lr.d	t0,(a0)
    80000580:	00b28333          	add	t1,t0,a1
    80000584:	1865332f          	sc.d	t1,t1,(a0)
    80000588:	fe031ae3          	bnez	t1,8000057c <amo_addd>
    8000058c:	00028513          	mv	a0,t0
    80000590:	00008067          	ret

0000000080000594 <amo_andw>:
    80000594:	100522af          	lr.w	t0,(a0)
    80000598:	00b2f333          	and	t1,t0,a1
    8000059c:	1865232f          	sc.w	t1,t1,(a0)
    800005a0:	fe031ae3          	bnez	t1,80000594 <amo_andw>
    800005a4:	00028513          	mv	a0,t0
    800005a8:	00008067          	ret

00000000800005ac <amo_andd>:
    800005ac:	100532af          	lr.d	t0,(a0)
    800005b0:	00b2f333          	and	t1,t0,a1
    800005b4:	1865332f          	sc.d	t1,t1,(a0)
    800005b8:	fe031ae3          	bnez	t1,800005ac <amo_andd>
    800005bc:	00028513          	mv	a0,t0
    800005c0:	00008067          	ret

00000000800005c4 <amo_orw>:
    800005c4:	100522af          	lr.w	t0,(a0)
    800005c8:	00b2e333          	or	t1,t0,a1
    800005cc:	1865232f          	sc.w	t1,t1,(a0)
    800005d0:	fe031ae3          	bnez	t1,800005c4 <amo_orw>
    800005d4:	00028513          	mv	a0,t0
    800005d8:	00008067          	ret

00000000800005dc <amo_ord>:
    800005dc:	100532af          	lr.d	t0,(a0)
    800005e0:	00b2e333          	or	t1,t0,a1
    800005e4:	1865332f          	sc.d	t1,t1,(a0)
    800005e8:	fe031ae3          	bnez	t1,800005dc <amo_ord>
    800005ec:	00028513          	mv	a0,t0
    800005f0:	00008067          	ret

00000000800005f4 <amo_xorw>:
    800005f4:	100522af          	lr.w	t0,(a0)
    800005f8:	00b2c333          	xor	t1,t0,a1
    800005fc:	1865232f          	sc.w	t1,t1,(a0)
    80000600:	fe031ae3          	bnez	t1,800005f4 <amo_xorw>
    80000604:	00028513          	mv	a0,t0
    80000608:	00008067          	ret

000000008000060c <amo_xord>:
    8000060c:	100532af          	lr.d	t0,(a0)
    80000610:	00b2c333          	xor	t1,t0,a1
    80000614:	1865332f          	sc.d	t1,t1,(a0)
    80000618:	fe031ae3          	bnez	t1,8000060c <amo_xord>
    8000061c:	00028513          	mv	a0,t0
    80000620:	00008067          	ret

0000000080000624 <amo_maxd>:
    80000624:	100532af          	lr.d	t0,(a0)
    80000628:	00b2a333          	slt	t1,t0,a1
    8000062c:	40600333          	neg	t1,t1
    80000630:	00b2c3b3          	xor	t2,t0,a1
    80000634:	00737e33          	and	t3,t1,t2
    80000638:	01c2ce33          	xor	t3,t0,t3
    8000063c:	19c5332f          	sc.d	t1,t3,(a0)
    80000640:	fe0312e3          	bnez	t1,80000624 <amo_maxd>
    80000644:	00028513          	mv	a0,t0
    80000648:	00008067          	ret

000000008000064c <amo_maxw>:
    8000064c:	100522af          	lr.w	t0,(a0)
    80000650:	00b2a333          	slt	t1,t0,a1
    80000654:	4060033b          	negw	t1,t1
    80000658:	00b2c3b3          	xor	t2,t0,a1
    8000065c:	00737e33          	and	t3,t1,t2
    80000660:	01c2ce33          	xor	t3,t0,t3
    80000664:	19c5232f          	sc.w	t1,t3,(a0)
    80000668:	fe0312e3          	bnez	t1,8000064c <amo_maxw>
    8000066c:	00028513          	mv	a0,t0
    80000670:	00008067          	ret

0000000080000674 <amo_maxud>:
    80000674:	100532af          	lr.d	t0,(a0)
    80000678:	00b2b333          	sltu	t1,t0,a1
    8000067c:	40600333          	neg	t1,t1
    80000680:	00b2c3b3          	xor	t2,t0,a1
    80000684:	00737e33          	and	t3,t1,t2
    80000688:	01c2ce33          	xor	t3,t0,t3
    8000068c:	19c5332f          	sc.d	t1,t3,(a0)
    80000690:	fe0312e3          	bnez	t1,80000674 <amo_maxud>
    80000694:	00028513          	mv	a0,t0
    80000698:	00008067          	ret

000000008000069c <amo_maxuw>:
    8000069c:	100522af          	lr.w	t0,(a0)
    800006a0:	00b2b333          	sltu	t1,t0,a1
    800006a4:	4060033b          	negw	t1,t1
    800006a8:	00b2c3b3          	xor	t2,t0,a1
    800006ac:	00737e33          	and	t3,t1,t2
    800006b0:	01c2ce33          	xor	t3,t0,t3
    800006b4:	19c5232f          	sc.w	t1,t3,(a0)
    800006b8:	fe0312e3          	bnez	t1,8000069c <amo_maxuw>
    800006bc:	00028513          	mv	a0,t0
    800006c0:	00008067          	ret

00000000800006c4 <amo_mind>:
    800006c4:	100532af          	lr.d	t0,(a0)
    800006c8:	00b2a333          	slt	t1,t0,a1
    800006cc:	40600333          	neg	t1,t1
    800006d0:	00b2c3b3          	xor	t2,t0,a1
    800006d4:	00737e33          	and	t3,t1,t2
    800006d8:	01c5ce33          	xor	t3,a1,t3
    800006dc:	19c5332f          	sc.d	t1,t3,(a0)
    800006e0:	fe0312e3          	bnez	t1,800006c4 <amo_mind>
    800006e4:	00028513          	mv	a0,t0
    800006e8:	00008067          	ret

00000000800006ec <amo_minw>:
    800006ec:	100522af          	lr.w	t0,(a0)
    800006f0:	00b2a333          	slt	t1,t0,a1
    800006f4:	4060033b          	negw	t1,t1
    800006f8:	00b2c3b3          	xor	t2,t0,a1
    800006fc:	00737e33          	and	t3,t1,t2
    80000700:	01c5ce33          	xor	t3,a1,t3
    80000704:	19c5232f          	sc.w	t1,t3,(a0)
    80000708:	fe0312e3          	bnez	t1,800006ec <amo_minw>
    8000070c:	00028513          	mv	a0,t0
    80000710:	00008067          	ret

0000000080000714 <amo_minud>:
    80000714:	100532af          	lr.d	t0,(a0)
    80000718:	00b2b333          	sltu	t1,t0,a1
    8000071c:	40600333          	neg	t1,t1
    80000720:	00b2c3b3          	xor	t2,t0,a1
    80000724:	00737e33          	and	t3,t1,t2
    80000728:	01c5ce33          	xor	t3,a1,t3
    8000072c:	19c5332f          	sc.d	t1,t3,(a0)
    80000730:	fe0312e3          	bnez	t1,80000714 <amo_minud>
    80000734:	00028513          	mv	a0,t0
    80000738:	00008067          	ret

000000008000073c <amo_minuw>:
    8000073c:	100522af          	lr.w	t0,(a0)
    80000740:	00b2b333          	sltu	t1,t0,a1
    80000744:	4060033b          	negw	t1,t1
    80000748:	00b2c3b3          	xor	t2,t0,a1
    8000074c:	00737e33          	and	t3,t1,t2
    80000750:	01c5ce33          	xor	t3,a1,t3
    80000754:	19c5232f          	sc.w	t1,t3,(a0)
    80000758:	fe0312e3          	bnez	t1,8000073c <amo_minuw>
    8000075c:	00028513          	mv	a0,t0
    80000760:	00008067          	ret

Disassembly of section .rodata:

0000000080000768 <.rodata>:
    80000768:	efff                	0xefff
    8000076a:	8fff                	0x8fff
    8000076c:	0000                	unimp
	...

Disassembly of section .got:

0000000080000770 <_GLOBAL_OFFSET_TABLE_>:
	...
    80000778:	0164                	addi	s1,sp,140
    8000077a:	8000                	0x8000
    8000077c:	0000                	unimp
	...

Disassembly of section .got.plt:

0000000080000780 <.got.plt>:
    80000780:	ffff                	0xffff
    80000782:	ffff                	0xffff
    80000784:	ffff                	0xffff
    80000786:	ffff                	0xffff
	...

Disassembly of section .data.rel:

0000000080000790 <amow_jt>:
    80000790:	0564                	addi	s1,sp,652
    80000792:	8000                	0x8000
    80000794:	0000                	unimp
    80000796:	0000                	unimp
    80000798:	053c                	addi	a5,sp,648
    8000079a:	8000                	0x8000
	...
    800007b0:	05f4                	addi	a3,sp,716
    800007b2:	8000                	0x8000
	...
    800007d0:	05c4                	addi	s1,sp,708
    800007d2:	8000                	0x8000
	...
    800007f0:	0594                	addi	a3,sp,704
    800007f2:	8000                	0x8000
	...
    80000810:	06ec                	addi	a1,sp,844
    80000812:	8000                	0x8000
	...
    80000830:	064c                	addi	a1,sp,772
    80000832:	8000                	0x8000
	...
    80000850:	073c                	addi	a5,sp,904
    80000852:	8000                	0x8000
	...
    80000870:	069c                	addi	a5,sp,832
    80000872:	8000                	0x8000
	...

0000000080000890 <amod_jt>:
    80000890:	057c                	addi	a5,sp,652
    80000892:	8000                	0x8000
    80000894:	0000                	unimp
    80000896:	0000                	unimp
    80000898:	0550                	addi	a2,sp,644
    8000089a:	8000                	0x8000
	...
    800008b0:	060c                	addi	a1,sp,768
    800008b2:	8000                	0x8000
	...
    800008d0:	05dc                	addi	a5,sp,708
    800008d2:	8000                	0x8000
	...
    800008f0:	05ac                	addi	a1,sp,712
    800008f2:	8000                	0x8000
	...
    80000910:	06c4                	addi	s1,sp,836
    80000912:	8000                	0x8000
	...
    80000930:	0624                	addi	s1,sp,776
    80000932:	8000                	0x8000
	...
    80000950:	0714                	addi	a3,sp,896
    80000952:	8000                	0x8000
	...
    80000970:	0674                	addi	a3,sp,780
    80000972:	8000                	0x8000
	...

Disassembly of section .data.rel.local:

0000000080000990 <amo_jt>:
	...
    800009a0:	0790                	addi	a2,sp,960
    800009a2:	8000                	0x8000
    800009a4:	0000                	unimp
    800009a6:	0000                	unimp
    800009a8:	0890                	addi	a2,sp,80
    800009aa:	8000                	0x8000
	...

Disassembly of section .bss:

00000000800009d0 <csr_array>:
	...

Disassembly of section .riscv.attributes:

0000000000000000 <_tls_data-0x800089d0>:
   0:	2041                	0x2041
   2:	0000                	unimp
   4:	7200                	ld	s0,32(a2)
   6:	7369                	lui	t1,0xffffa
   8:	01007663          	bgeu	zero,a6,14 <_start-0x7fffffec>
   c:	0016                	c.slli	zero,0x5
   e:	0000                	unimp
  10:	1004                	addi	s1,sp,32
  12:	7205                	lui	tp,0xfffe1
  14:	3676                	fld	fa2,376(sp)
  16:	6934                	ld	a3,80(a0)
  18:	7032                	0x7032
  1a:	5f30                	lw	a2,120(a4)
  1c:	3261                	addiw	tp,tp,-8
  1e:	3070                	fld	fa2,224(s0)
	...

Disassembly of section .comment:

0000000000000000 <.comment>:
   0:	3a434347          	fmsub.d	ft6,ft6,ft4,ft7,rmm
   4:	2820                	fld	fs0,80(s0)
   6:	29554e47          	fmsub.s	ft8,fa0,fs5,ft5,rmm
   a:	3920                	fld	fs0,112(a0)
   c:	322e                	fld	ft4,232(sp)
   e:	302e                	fld	ft0,232(sp)
	...
