
/mnt/users/ssd0/no_backup/petrisko/pre-alpha-release/bp_common/test/mem/hello_world.riscv:     file format elf64-littleriscv


Disassembly of section .text.init:

0000000080000000 <_start>:
    80000000:	00008137          	lui	sp,0x8
    80000004:	00f1011b          	addiw	sp,sp,15
    80000008:	01011113          	slli	sp,sp,0x10
    8000000c:	f14020f3          	csrr	ra,mhartid
    80000010:	00d09093          	slli	ra,ra,0xd
    80000014:	40110133          	sub	sp,sp,ra
    80000018:	34011073          	csrw	mscratch,sp
    8000001c:	00100093          	li	ra,1
    80000020:	00c09093          	slli	ra,ra,0xc
    80000024:	40110133          	sub	sp,sp,ra
    80000028:	00000097          	auipc	ra,0x0
    8000002c:	7400b083          	ld	ra,1856(ra) # 80000768 <_GLOBAL_OFFSET_TABLE_+0x8>
    80000030:	30509073          	csrw	mtvec,ra
    80000034:	00000093          	li	ra,0
    80000038:	00000193          	li	gp,0
    8000003c:	00000213          	li	tp,0
    80000040:	00000293          	li	t0,0
    80000044:	00000313          	li	t1,0
    80000048:	00000393          	li	t2,0
    8000004c:	00000413          	li	s0,0
    80000050:	00000493          	li	s1,0
    80000054:	00000513          	li	a0,0
    80000058:	00000593          	li	a1,0
    8000005c:	00000613          	li	a2,0
    80000060:	00000693          	li	a3,0
    80000064:	00000713          	li	a4,0
    80000068:	00000793          	li	a5,0
    8000006c:	00000813          	li	a6,0
    80000070:	00000893          	li	a7,0
    80000074:	00000913          	li	s2,0
    80000078:	00000993          	li	s3,0
    8000007c:	00000a13          	li	s4,0
    80000080:	00000a93          	li	s5,0
    80000084:	00000b13          	li	s6,0
    80000088:	00000b93          	li	s7,0
    8000008c:	00000c13          	li	s8,0
    80000090:	00000c93          	li	s9,0
    80000094:	00000d13          	li	s10,0
    80000098:	00000d93          	li	s11,0
    8000009c:	00000e13          	li	t3,0
    800000a0:	00000e93          	li	t4,0
    800000a4:	00000f13          	li	t5,0
    800000a8:	00000f93          	li	t6,0
    800000ac:	00c000ef          	jal	ra,800000b8 <main>

00000000800000b0 <loop>:
    800000b0:	00000013          	nop
    800000b4:	ffdff06f          	j	800000b0 <loop>

Disassembly of section .text:

00000000800000b8 <main>:
    800000b8:	f1402273          	csrr	tp,mhartid
    800000bc:	00321213          	slli	tp,tp,0x3
    800000c0:	001011b7          	lui	gp,0x101
    800000c4:	004181b3          	add	gp,gp,tp
    800000c8:	04800113          	li	sp,72
    800000cc:	00218023          	sb	sp,0(gp) # 101000 <_start-0x7feff000>
    800000d0:	06500113          	li	sp,101
    800000d4:	00218023          	sb	sp,0(gp) # 800011c0 <__global_pointer$>
    800000d8:	06c00113          	li	sp,108
    800000dc:	00218023          	sb	sp,0(gp) # 800011c0 <__global_pointer$>
    800000e0:	06c00113          	li	sp,108
    800000e4:	00218023          	sb	sp,0(gp) # 800011c0 <__global_pointer$>
    800000e8:	06f00113          	li	sp,111
    800000ec:	00218023          	sb	sp,0(gp) # 800011c0 <__global_pointer$>
    800000f0:	02000113          	li	sp,32
    800000f4:	00218023          	sb	sp,0(gp) # 800011c0 <__global_pointer$>
    800000f8:	07700113          	li	sp,119
    800000fc:	00218023          	sb	sp,0(gp) # 800011c0 <__global_pointer$>
    80000100:	06f00113          	li	sp,111
    80000104:	00218023          	sb	sp,0(gp) # 800011c0 <__global_pointer$>
    80000108:	07200113          	li	sp,114
    8000010c:	00218023          	sb	sp,0(gp) # 800011c0 <__global_pointer$>
    80000110:	06c00113          	li	sp,108
    80000114:	00218023          	sb	sp,0(gp) # 800011c0 <__global_pointer$>
    80000118:	06400113          	li	sp,100
    8000011c:	00218023          	sb	sp,0(gp) # 800011c0 <__global_pointer$>
    80000120:	02100113          	li	sp,33
    80000124:	00218023          	sb	sp,0(gp) # 800011c0 <__global_pointer$>
    80000128:	00018023          	sb	zero,0(gp) # 800011c0 <__global_pointer$>
    8000012c:	001022b7          	lui	t0,0x102
    80000130:	004282b3          	add	t0,t0,tp
    80000134:	00000313          	li	t1,0
    80000138:	00628023          	sb	t1,0(t0) # 102000 <_start-0x7fefe000>
    8000013c:	00008067          	ret
    80000140:	00000013          	nop
    80000144:	00000013          	nop
    80000148:	00000013          	nop
    8000014c:	00000013          	nop
    80000150:	00000013          	nop

0000000080000154 <bp_mtvec_handler>:
    80000154:	34011173          	csrrw	sp,mscratch,sp
    80000158:	01f13023          	sd	t6,0(sp) # 8000 <_start-0x7fff8000>
    8000015c:	ffe13c23          	sd	t5,-8(sp)
    80000160:	ffd13823          	sd	t4,-16(sp)
    80000164:	ffc13423          	sd	t3,-24(sp)
    80000168:	ffb13023          	sd	s11,-32(sp)
    8000016c:	fda13c23          	sd	s10,-40(sp)
    80000170:	fd913823          	sd	s9,-48(sp)
    80000174:	fd813423          	sd	s8,-56(sp)
    80000178:	fd713023          	sd	s7,-64(sp)
    8000017c:	fb613c23          	sd	s6,-72(sp)
    80000180:	fb513823          	sd	s5,-80(sp)
    80000184:	fb413423          	sd	s4,-88(sp)
    80000188:	fb313023          	sd	s3,-96(sp)
    8000018c:	f9213c23          	sd	s2,-104(sp)
    80000190:	f9113823          	sd	a7,-112(sp)
    80000194:	f9013423          	sd	a6,-120(sp)
    80000198:	f8f13023          	sd	a5,-128(sp)
    8000019c:	f6e13c23          	sd	a4,-136(sp)
    800001a0:	f6d13823          	sd	a3,-144(sp)
    800001a4:	f6c13423          	sd	a2,-152(sp)
    800001a8:	f6b13023          	sd	a1,-160(sp)
    800001ac:	f4a13c23          	sd	a0,-168(sp)
    800001b0:	f4913823          	sd	s1,-176(sp)
    800001b4:	f4813423          	sd	s0,-184(sp)
    800001b8:	f4713023          	sd	t2,-192(sp)
    800001bc:	f2613c23          	sd	t1,-200(sp)
    800001c0:	f2513823          	sd	t0,-208(sp)
    800001c4:	f2413423          	sd	tp,-216(sp)
    800001c8:	f2313023          	sd	gp,-224(sp)
    800001cc:	340022f3          	csrr	t0,mscratch
    800001d0:	f0513c23          	sd	t0,-232(sp)
    800001d4:	f0113823          	sd	ra,-240(sp)
    800001d8:	f0013423          	sd	zero,-248(sp)
    800001dc:	f0010113          	addi	sp,sp,-256
    800001e0:	00810513          	addi	a0,sp,8
    800001e4:	342025f3          	csrr	a1,mcause
    800001e8:	34302673          	csrr	a2,mtval
    800001ec:	1e8000ef          	jal	ra,800003d4 <decode_illegal>
    800001f0:	341022f3          	csrr	t0,mepc
    800001f4:	00428293          	addi	t0,t0,4
    800001f8:	34129073          	csrw	mepc,t0
    800001fc:	10010113          	addi	sp,sp,256
    80000200:	34011073          	csrw	mscratch,sp
    80000204:	f0813003          	ld	zero,-248(sp)
    80000208:	f1013083          	ld	ra,-240(sp)
    8000020c:	f2013183          	ld	gp,-224(sp)
    80000210:	f2813203          	ld	tp,-216(sp)
    80000214:	f3013283          	ld	t0,-208(sp)
    80000218:	f3813303          	ld	t1,-200(sp)
    8000021c:	f4013383          	ld	t2,-192(sp)
    80000220:	f4813403          	ld	s0,-184(sp)
    80000224:	f5013483          	ld	s1,-176(sp)
    80000228:	f5813503          	ld	a0,-168(sp)
    8000022c:	f6013583          	ld	a1,-160(sp)
    80000230:	f6813603          	ld	a2,-152(sp)
    80000234:	f7013683          	ld	a3,-144(sp)
    80000238:	f7813703          	ld	a4,-136(sp)
    8000023c:	f8013783          	ld	a5,-128(sp)
    80000240:	f8813803          	ld	a6,-120(sp)
    80000244:	f9013883          	ld	a7,-112(sp)
    80000248:	f9813903          	ld	s2,-104(sp)
    8000024c:	fa013983          	ld	s3,-96(sp)
    80000250:	fa813a03          	ld	s4,-88(sp)
    80000254:	fb013a83          	ld	s5,-80(sp)
    80000258:	fb813b03          	ld	s6,-72(sp)
    8000025c:	fc013b83          	ld	s7,-64(sp)
    80000260:	fc813c03          	ld	s8,-56(sp)
    80000264:	fd013c83          	ld	s9,-48(sp)
    80000268:	fd813d03          	ld	s10,-40(sp)
    8000026c:	fe013d83          	ld	s11,-32(sp)
    80000270:	fe813e03          	ld	t3,-24(sp)
    80000274:	ff013e83          	ld	t4,-16(sp)
    80000278:	ff813f03          	ld	t5,-8(sp)
    8000027c:	00013f83          	ld	t6,0(sp)
    80000280:	f1813103          	ld	sp,-232(sp)
    80000284:	30200073          	mret

0000000080000288 <get_byte>:
    80000288:	fe010113          	addi	sp,sp,-32
    8000028c:	00813c23          	sd	s0,24(sp)
    80000290:	02010413          	addi	s0,sp,32
    80000294:	fea43423          	sd	a0,-24(s0)
    80000298:	00058793          	mv	a5,a1
    8000029c:	fef403a3          	sb	a5,-25(s0)
    800002a0:	fe744783          	lbu	a5,-25(s0)
    800002a4:	0007879b          	sext.w	a5,a5
    800002a8:	0037979b          	slliw	a5,a5,0x3
    800002ac:	0007879b          	sext.w	a5,a5
    800002b0:	00078713          	mv	a4,a5
    800002b4:	fe843783          	ld	a5,-24(s0)
    800002b8:	00e7d7b3          	srl	a5,a5,a4
    800002bc:	0ff7f793          	andi	a5,a5,255
    800002c0:	00078513          	mv	a0,a5
    800002c4:	01813403          	ld	s0,24(sp)
    800002c8:	02010113          	addi	sp,sp,32
    800002cc:	00008067          	ret

00000000800002d0 <print_reg>:
    800002d0:	fc010113          	addi	sp,sp,-64
    800002d4:	02113c23          	sd	ra,56(sp)
    800002d8:	02813823          	sd	s0,48(sp)
    800002dc:	04010413          	addi	s0,sp,64
    800002e0:	00050793          	mv	a5,a0
    800002e4:	fcb43023          	sd	a1,-64(s0)
    800002e8:	fcf407a3          	sb	a5,-49(s0)
    800002ec:	00900793          	li	a5,9
    800002f0:	01c79793          	slli	a5,a5,0x1c
    800002f4:	fff78793          	addi	a5,a5,-1
    800002f8:	fef43023          	sd	a5,-32(s0)
    800002fc:	00000797          	auipc	a5,0x0
    80000300:	45c78793          	addi	a5,a5,1116 # 80000758 <amo_minuw+0x2c>
    80000304:	0007b783          	ld	a5,0(a5)
    80000308:	fcf43c23          	sd	a5,-40(s0)
    8000030c:	fd843783          	ld	a5,-40(s0)
    80000310:	07200713          	li	a4,114
    80000314:	00e78023          	sb	a4,0(a5)
    80000318:	fd843783          	ld	a5,-40(s0)
    8000031c:	06500713          	li	a4,101
    80000320:	00e78023          	sb	a4,0(a5)
    80000324:	fd843783          	ld	a5,-40(s0)
    80000328:	06700713          	li	a4,103
    8000032c:	00e78023          	sb	a4,0(a5)
    80000330:	fd843783          	ld	a5,-40(s0)
    80000334:	02000713          	li	a4,32
    80000338:	00e78023          	sb	a4,0(a5)
    8000033c:	fe043783          	ld	a5,-32(s0)
    80000340:	fcf44703          	lbu	a4,-49(s0)
    80000344:	00e78023          	sb	a4,0(a5)
    80000348:	fd843783          	ld	a5,-40(s0)
    8000034c:	02000713          	li	a4,32
    80000350:	00e78023          	sb	a4,0(a5)
    80000354:	00700793          	li	a5,7
    80000358:	fef42623          	sw	a5,-20(s0)
    8000035c:	0340006f          	j	80000390 <print_reg+0xc0>
    80000360:	fec42783          	lw	a5,-20(s0)
    80000364:	0ff7f793          	andi	a5,a5,255
    80000368:	00078593          	mv	a1,a5
    8000036c:	fc043503          	ld	a0,-64(s0)
    80000370:	f19ff0ef          	jal	ra,80000288 <get_byte>
    80000374:	00050793          	mv	a5,a0
    80000378:	00078713          	mv	a4,a5
    8000037c:	fe043783          	ld	a5,-32(s0)
    80000380:	00e78023          	sb	a4,0(a5)
    80000384:	fec42783          	lw	a5,-20(s0)
    80000388:	fff7879b          	addiw	a5,a5,-1
    8000038c:	fef42623          	sw	a5,-20(s0)
    80000390:	fec42783          	lw	a5,-20(s0)
    80000394:	0007879b          	sext.w	a5,a5
    80000398:	fc07d4e3          	bgez	a5,80000360 <print_reg+0x90>
    8000039c:	fd843783          	ld	a5,-40(s0)
    800003a0:	02000713          	li	a4,32
    800003a4:	00e78023          	sb	a4,0(a5)
    800003a8:	fd843783          	ld	a5,-40(s0)
    800003ac:	02000713          	li	a4,32
    800003b0:	00e78023          	sb	a4,0(a5)
    800003b4:	fd843783          	ld	a5,-40(s0)
    800003b8:	02000713          	li	a4,32
    800003bc:	00e78023          	sb	a4,0(a5)
    800003c0:	00000013          	nop
    800003c4:	03813083          	ld	ra,56(sp)
    800003c8:	03013403          	ld	s0,48(sp)
    800003cc:	04010113          	addi	sp,sp,64
    800003d0:	00008067          	ret

00000000800003d4 <decode_illegal>:
    800003d4:	fa010113          	addi	sp,sp,-96
    800003d8:	04113c23          	sd	ra,88(sp)
    800003dc:	04813823          	sd	s0,80(sp)
    800003e0:	04913423          	sd	s1,72(sp)
    800003e4:	06010413          	addi	s0,sp,96
    800003e8:	faa43c23          	sd	a0,-72(s0)
    800003ec:	fab43823          	sd	a1,-80(s0)
    800003f0:	fac43423          	sd	a2,-88(s0)
    800003f4:	fa843783          	ld	a5,-88(s0)
    800003f8:	0147d793          	srli	a5,a5,0x14
    800003fc:	03079793          	slli	a5,a5,0x30
    80000400:	0307d793          	srli	a5,a5,0x30
    80000404:	7ff7f793          	andi	a5,a5,2047
    80000408:	fcf41f23          	sh	a5,-34(s0)
    8000040c:	fa843783          	ld	a5,-88(s0)
    80000410:	01b7d793          	srli	a5,a5,0x1b
    80000414:	0ff7f793          	andi	a5,a5,255
    80000418:	01f7f793          	andi	a5,a5,31
    8000041c:	fcf40ea3          	sb	a5,-35(s0)
    80000420:	fa843783          	ld	a5,-88(s0)
    80000424:	0147d793          	srli	a5,a5,0x14
    80000428:	0ff7f793          	andi	a5,a5,255
    8000042c:	01f7f793          	andi	a5,a5,31
    80000430:	fcf40e23          	sb	a5,-36(s0)
    80000434:	fa843783          	ld	a5,-88(s0)
    80000438:	00f7d793          	srli	a5,a5,0xf
    8000043c:	0ff7f793          	andi	a5,a5,255
    80000440:	01f7f793          	andi	a5,a5,31
    80000444:	fcf40da3          	sb	a5,-37(s0)
    80000448:	fa843783          	ld	a5,-88(s0)
    8000044c:	00c7d793          	srli	a5,a5,0xc
    80000450:	0ff7f793          	andi	a5,a5,255
    80000454:	0077f793          	andi	a5,a5,7
    80000458:	fcf40d23          	sb	a5,-38(s0)
    8000045c:	fa843783          	ld	a5,-88(s0)
    80000460:	0077d793          	srli	a5,a5,0x7
    80000464:	0ff7f793          	andi	a5,a5,255
    80000468:	01f7f793          	andi	a5,a5,31
    8000046c:	fcf40ca3          	sb	a5,-39(s0)
    80000470:	fa843783          	ld	a5,-88(s0)
    80000474:	0ff7f793          	andi	a5,a5,255
    80000478:	07f7f793          	andi	a5,a5,127
    8000047c:	fcf40c23          	sb	a5,-40(s0)
    80000480:	fdb44783          	lbu	a5,-37(s0)
    80000484:	00379793          	slli	a5,a5,0x3
    80000488:	fb843703          	ld	a4,-72(s0)
    8000048c:	00f707b3          	add	a5,a4,a5
    80000490:	0007b783          	ld	a5,0(a5)
    80000494:	fcf43823          	sd	a5,-48(s0)
    80000498:	fdc44783          	lbu	a5,-36(s0)
    8000049c:	00379793          	slli	a5,a5,0x3
    800004a0:	fb843703          	ld	a4,-72(s0)
    800004a4:	00f707b3          	add	a5,a4,a5
    800004a8:	0007b783          	ld	a5,0(a5)
    800004ac:	fcf43423          	sd	a5,-56(s0)
    800004b0:	fd844783          	lbu	a5,-40(s0)
    800004b4:	0ff7f713          	andi	a4,a5,255
    800004b8:	02f00793          	li	a5,47
    800004bc:	04f71c63          	bne	a4,a5,80000514 <decode_illegal+0x140>
    800004c0:	fda44783          	lbu	a5,-38(s0)
    800004c4:	0007879b          	sext.w	a5,a5
    800004c8:	00000717          	auipc	a4,0x0
    800004cc:	4b870713          	addi	a4,a4,1208 # 80000980 <amo_jt>
    800004d0:	00379793          	slli	a5,a5,0x3
    800004d4:	00f707b3          	add	a5,a4,a5
    800004d8:	0007b703          	ld	a4,0(a5)
    800004dc:	fdd44783          	lbu	a5,-35(s0)
    800004e0:	00379793          	slli	a5,a5,0x3
    800004e4:	00f707b3          	add	a5,a4,a5
    800004e8:	0007b683          	ld	a3,0(a5)
    800004ec:	fd944783          	lbu	a5,-39(s0)
    800004f0:	00379793          	slli	a5,a5,0x3
    800004f4:	fb843703          	ld	a4,-72(s0)
    800004f8:	00f704b3          	add	s1,a4,a5
    800004fc:	fc843583          	ld	a1,-56(s0)
    80000500:	fd043503          	ld	a0,-48(s0)
    80000504:	000680e7          	jalr	a3
    80000508:	00050793          	mv	a5,a0
    8000050c:	00f4b023          	sd	a5,0(s1)
    80000510:	0080006f          	j	80000518 <decode_illegal+0x144>
    80000514:	0000006f          	j	80000514 <decode_illegal+0x140>
    80000518:	05813083          	ld	ra,88(sp)
    8000051c:	05013403          	ld	s0,80(sp)
    80000520:	04813483          	ld	s1,72(sp)
    80000524:	06010113          	addi	sp,sp,96
    80000528:	00008067          	ret

000000008000052c <amo_swapw>:
    8000052c:	100522af          	lr.w	t0,(a0)
    80000530:	18b5232f          	sc.w	t1,a1,(a0)
    80000534:	fe031ce3          	bnez	t1,8000052c <amo_swapw>
    80000538:	00028513          	mv	a0,t0
    8000053c:	00008067          	ret

0000000080000540 <amo_swapd>:
    80000540:	100532af          	lr.d	t0,(a0)
    80000544:	18b5332f          	sc.d	t1,a1,(a0)
    80000548:	fe031ce3          	bnez	t1,80000540 <amo_swapd>
    8000054c:	00028513          	mv	a0,t0
    80000550:	00008067          	ret

0000000080000554 <amo_addw>:
    80000554:	100522af          	lr.w	t0,(a0)
    80000558:	00b2833b          	addw	t1,t0,a1
    8000055c:	1865232f          	sc.w	t1,t1,(a0)
    80000560:	fe031ae3          	bnez	t1,80000554 <amo_addw>
    80000564:	00028513          	mv	a0,t0
    80000568:	00008067          	ret

000000008000056c <amo_addd>:
    8000056c:	100532af          	lr.d	t0,(a0)
    80000570:	00b28333          	add	t1,t0,a1
    80000574:	1865332f          	sc.d	t1,t1,(a0)
    80000578:	fe031ae3          	bnez	t1,8000056c <amo_addd>
    8000057c:	00028513          	mv	a0,t0
    80000580:	00008067          	ret

0000000080000584 <amo_andw>:
    80000584:	100522af          	lr.w	t0,(a0)
    80000588:	00b2f333          	and	t1,t0,a1
    8000058c:	1865232f          	sc.w	t1,t1,(a0)
    80000590:	fe031ae3          	bnez	t1,80000584 <amo_andw>
    80000594:	00028513          	mv	a0,t0
    80000598:	00008067          	ret

000000008000059c <amo_andd>:
    8000059c:	100532af          	lr.d	t0,(a0)
    800005a0:	00b2f333          	and	t1,t0,a1
    800005a4:	1865332f          	sc.d	t1,t1,(a0)
    800005a8:	fe031ae3          	bnez	t1,8000059c <amo_andd>
    800005ac:	00028513          	mv	a0,t0
    800005b0:	00008067          	ret

00000000800005b4 <amo_orw>:
    800005b4:	100522af          	lr.w	t0,(a0)
    800005b8:	00b2e333          	or	t1,t0,a1
    800005bc:	1865232f          	sc.w	t1,t1,(a0)
    800005c0:	fe031ae3          	bnez	t1,800005b4 <amo_orw>
    800005c4:	00028513          	mv	a0,t0
    800005c8:	00008067          	ret

00000000800005cc <amo_ord>:
    800005cc:	100532af          	lr.d	t0,(a0)
    800005d0:	00b2e333          	or	t1,t0,a1
    800005d4:	1865332f          	sc.d	t1,t1,(a0)
    800005d8:	fe031ae3          	bnez	t1,800005cc <amo_ord>
    800005dc:	00028513          	mv	a0,t0
    800005e0:	00008067          	ret

00000000800005e4 <amo_xorw>:
    800005e4:	100522af          	lr.w	t0,(a0)
    800005e8:	00b2c333          	xor	t1,t0,a1
    800005ec:	1865232f          	sc.w	t1,t1,(a0)
    800005f0:	fe031ae3          	bnez	t1,800005e4 <amo_xorw>
    800005f4:	00028513          	mv	a0,t0
    800005f8:	00008067          	ret

00000000800005fc <amo_xord>:
    800005fc:	100532af          	lr.d	t0,(a0)
    80000600:	00b2c333          	xor	t1,t0,a1
    80000604:	1865332f          	sc.d	t1,t1,(a0)
    80000608:	fe031ae3          	bnez	t1,800005fc <amo_xord>
    8000060c:	00028513          	mv	a0,t0
    80000610:	00008067          	ret

0000000080000614 <amo_maxd>:
    80000614:	100532af          	lr.d	t0,(a0)
    80000618:	00b2a333          	slt	t1,t0,a1
    8000061c:	40600333          	neg	t1,t1
    80000620:	00b2c3b3          	xor	t2,t0,a1
    80000624:	00737e33          	and	t3,t1,t2
    80000628:	01c2ce33          	xor	t3,t0,t3
    8000062c:	19c5332f          	sc.d	t1,t3,(a0)
    80000630:	fe0312e3          	bnez	t1,80000614 <amo_maxd>
    80000634:	00028513          	mv	a0,t0
    80000638:	00008067          	ret

000000008000063c <amo_maxw>:
    8000063c:	100522af          	lr.w	t0,(a0)
    80000640:	00b2a333          	slt	t1,t0,a1
    80000644:	4060033b          	negw	t1,t1
    80000648:	00b2c3b3          	xor	t2,t0,a1
    8000064c:	00737e33          	and	t3,t1,t2
    80000650:	01c2ce33          	xor	t3,t0,t3
    80000654:	19c5232f          	sc.w	t1,t3,(a0)
    80000658:	fe0312e3          	bnez	t1,8000063c <amo_maxw>
    8000065c:	00028513          	mv	a0,t0
    80000660:	00008067          	ret

0000000080000664 <amo_maxud>:
    80000664:	100532af          	lr.d	t0,(a0)
    80000668:	00b2b333          	sltu	t1,t0,a1
    8000066c:	40600333          	neg	t1,t1
    80000670:	00b2c3b3          	xor	t2,t0,a1
    80000674:	00737e33          	and	t3,t1,t2
    80000678:	01c2ce33          	xor	t3,t0,t3
    8000067c:	19c5332f          	sc.d	t1,t3,(a0)
    80000680:	fe0312e3          	bnez	t1,80000664 <amo_maxud>
    80000684:	00028513          	mv	a0,t0
    80000688:	00008067          	ret

000000008000068c <amo_maxuw>:
    8000068c:	100522af          	lr.w	t0,(a0)
    80000690:	00b2b333          	sltu	t1,t0,a1
    80000694:	4060033b          	negw	t1,t1
    80000698:	00b2c3b3          	xor	t2,t0,a1
    8000069c:	00737e33          	and	t3,t1,t2
    800006a0:	01c2ce33          	xor	t3,t0,t3
    800006a4:	19c5232f          	sc.w	t1,t3,(a0)
    800006a8:	fe0312e3          	bnez	t1,8000068c <amo_maxuw>
    800006ac:	00028513          	mv	a0,t0
    800006b0:	00008067          	ret

00000000800006b4 <amo_mind>:
    800006b4:	100532af          	lr.d	t0,(a0)
    800006b8:	00b2a333          	slt	t1,t0,a1
    800006bc:	40600333          	neg	t1,t1
    800006c0:	00b2c3b3          	xor	t2,t0,a1
    800006c4:	00737e33          	and	t3,t1,t2
    800006c8:	01c5ce33          	xor	t3,a1,t3
    800006cc:	19c5332f          	sc.d	t1,t3,(a0)
    800006d0:	fe0312e3          	bnez	t1,800006b4 <amo_mind>
    800006d4:	00028513          	mv	a0,t0
    800006d8:	00008067          	ret

00000000800006dc <amo_minw>:
    800006dc:	100522af          	lr.w	t0,(a0)
    800006e0:	00b2a333          	slt	t1,t0,a1
    800006e4:	4060033b          	negw	t1,t1
    800006e8:	00b2c3b3          	xor	t2,t0,a1
    800006ec:	00737e33          	and	t3,t1,t2
    800006f0:	01c5ce33          	xor	t3,a1,t3
    800006f4:	19c5232f          	sc.w	t1,t3,(a0)
    800006f8:	fe0312e3          	bnez	t1,800006dc <amo_minw>
    800006fc:	00028513          	mv	a0,t0
    80000700:	00008067          	ret

0000000080000704 <amo_minud>:
    80000704:	100532af          	lr.d	t0,(a0)
    80000708:	00b2b333          	sltu	t1,t0,a1
    8000070c:	40600333          	neg	t1,t1
    80000710:	00b2c3b3          	xor	t2,t0,a1
    80000714:	00737e33          	and	t3,t1,t2
    80000718:	01c5ce33          	xor	t3,a1,t3
    8000071c:	19c5332f          	sc.d	t1,t3,(a0)
    80000720:	fe0312e3          	bnez	t1,80000704 <amo_minud>
    80000724:	00028513          	mv	a0,t0
    80000728:	00008067          	ret

000000008000072c <amo_minuw>:
    8000072c:	100522af          	lr.w	t0,(a0)
    80000730:	00b2b333          	sltu	t1,t0,a1
    80000734:	4060033b          	negw	t1,t1
    80000738:	00b2c3b3          	xor	t2,t0,a1
    8000073c:	00737e33          	and	t3,t1,t2
    80000740:	01c5ce33          	xor	t3,a1,t3
    80000744:	19c5232f          	sc.w	t1,t3,(a0)
    80000748:	fe0312e3          	bnez	t1,8000072c <amo_minuw>
    8000074c:	00028513          	mv	a0,t0
    80000750:	00008067          	ret
