
rv64ui-p-simple:     file format elf64-littleriscv


Disassembly of section .text.init:

0000000080000000 <_start>:
    80000000:	04c0006f          	jal	x0,8000004c <reset_vector>

0000000080000004 <trap_vector>:
    80000004:	34202f73          	csrrs	x30,mcause,x0
    80000008:	00800f93          	addi	x31,x0,8
    8000000c:	03ff0a63          	beq	x30,x31,80000040 <write_tohost>
    80000010:	00900f93          	addi	x31,x0,9
    80000014:	03ff0663          	beq	x30,x31,80000040 <write_tohost>
    80000018:	00b00f93          	addi	x31,x0,11
    8000001c:	03ff0263          	beq	x30,x31,80000040 <write_tohost>
    80000020:	80000f17          	auipc	x30,0x80000
    80000024:	fe0f0f13          	addi	x30,x30,-32 # 0 <_start-0x80000000>
    80000028:	000f0463          	beq	x30,x0,80000030 <trap_vector+0x2c>
    8000002c:	000f0067          	jalr	x0,0(x30)
    80000030:	34202f73          	csrrs	x30,mcause,x0
    80000034:	000f5463          	bge	x30,x0,8000003c <handle_exception>
    80000038:	0040006f          	jal	x0,8000003c <handle_exception>

000000008000003c <handle_exception>:
    8000003c:	5391e193          	ori	x3,x3,1337

0000000080000040 <write_tohost>:
    80000040:	00001f17          	auipc	x30,0x1
    80000044:	fc3f2023          	sw	x3,-64(x30) # 80001000 <tohost>
    80000048:	ff9ff06f          	jal	x0,80000040 <write_tohost>

000000008000004c <reset_vector>:
    8000004c:	f1402573          	csrrs	x10,mhartid,x0
    80000050:	00051063          	bne	x10,x0,80000050 <reset_vector+0x4>
    80000054:	00000297          	auipc	x5,0x0
    80000058:	01028293          	addi	x5,x5,16 # 80000064 <reset_vector+0x18>
    8000005c:	30529073          	csrrw	x0,mtvec,x5
    80000060:	18005073          	csrrwi	x0,satp,0
    80000064:	00000297          	auipc	x5,0x0
    80000068:	02428293          	addi	x5,x5,36 # 80000088 <reset_vector+0x3c>
    8000006c:	30529073          	csrrw	x0,mtvec,x5
    80000070:	0010029b          	addiw	x5,x0,1
    80000074:	03529293          	slli	x5,x5,0x35
    80000078:	fff28293          	addi	x5,x5,-1
    8000007c:	3b029073          	csrrw	x0,pmpaddr0,x5
    80000080:	01f00293          	addi	x5,x0,31
    80000084:	3a029073          	csrrw	x0,pmpcfg0,x5
    80000088:	00000297          	auipc	x5,0x0
    8000008c:	01828293          	addi	x5,x5,24 # 800000a0 <reset_vector+0x54>
    80000090:	30529073          	csrrw	x0,mtvec,x5
    80000094:	30205073          	csrrwi	x0,medeleg,0
    80000098:	30305073          	csrrwi	x0,mideleg,0
    8000009c:	30405073          	csrrwi	x0,mie,0
    800000a0:	00000193          	addi	x3,x0,0
    800000a4:	00000297          	auipc	x5,0x0
    800000a8:	f6028293          	addi	x5,x5,-160 # 80000004 <trap_vector>
    800000ac:	30529073          	csrrw	x0,mtvec,x5
    800000b0:	00100513          	addi	x10,x0,1
    800000b4:	01f51513          	slli	x10,x10,0x1f
    800000b8:	02055c63          	bge	x10,x0,800000f0 <reset_vector+0xa4>
    800000bc:	0ff0000f          	fence	iorw,iorw
    800000c0:	000c02b7          	lui	x5,0xc0
    800000c4:	0df2829b          	addiw	x5,x5,223
    800000c8:	00c29293          	slli	x5,x5,0xc
    800000cc:	ad028293          	addi	x5,x5,-1328 # bfad0 <_start-0x7ff40530>
    800000d0:	00018513          	addi	x10,x3,0
    800000d4:	000105b7          	lui	x11,0x10
    800000d8:	fff5859b          	addiw	x11,x11,-1
    800000dc:	00b57533          	and	x10,x10,x11
    800000e0:	00a2a023          	sw	x10,0(x5)
    800000e4:	0ff0000f          	fence	iorw,iorw
    800000e8:	00100193          	addi	x3,x0,1
    800000ec:	00000073          	ecall
    800000f0:	80000297          	auipc	x5,0x80000
    800000f4:	f1028293          	addi	x5,x5,-240 # 0 <_start-0x80000000>
    800000f8:	00028e63          	beq	x5,x0,80000114 <reset_vector+0xc8>
    800000fc:	10529073          	csrrw	x0,stvec,x5
    80000100:	0000b2b7          	lui	x5,0xb
    80000104:	1092829b          	addiw	x5,x5,265
    80000108:	30229073          	csrrw	x0,medeleg,x5
    8000010c:	30202373          	csrrs	x6,medeleg,x0
    80000110:	f26296e3          	bne	x5,x6,8000003c <handle_exception>
    80000114:	30005073          	csrrwi	x0,mstatus,0
    80000118:	00000297          	auipc	x5,0x0
    8000011c:	01428293          	addi	x5,x5,20 # 8000012c <reset_vector+0xe0>
    80000120:	34129073          	csrrw	x0,mepc,x5
    80000124:	f1402573          	csrrs	x10,mhartid,x0
    80000128:	30200073          	mret
    8000012c:	0ff0000f          	fence	iorw,iorw
    80000130:	000c02b7          	lui	x5,0xc0
    80000134:	0df2829b          	addiw	x5,x5,223
    80000138:	00c29293          	slli	x5,x5,0xc
    8000013c:	ad028293          	addi	x5,x5,-1328 # bfad0 <_start-0x7ff40530>
    80000140:	00018513          	addi	x10,x3,0
    80000144:	000105b7          	lui	x11,0x10
    80000148:	fff5859b          	addiw	x11,x11,-1
    8000014c:	00b57533          	and	x10,x10,x11
    80000150:	00a2a023          	sw	x10,0(x5)
    80000154:	0ff0000f          	fence	iorw,iorw
    80000158:	00100193          	addi	x3,x0,1
    8000015c:	00000073          	ecall
    80000160:	c0001073          	unimp
	...

Disassembly of section .tohost:

0000000080001000 <tohost>:
	...

0000000080001040 <fromhost>:
	...

Disassembly of section .riscv.attributes:

0000000000000000 <.riscv.attributes>:
   0:	2d41                	c.addiw	x26,16
   2:	0000                	c.unimp
   4:	7200                	c.ld	x8,32(x12)
   6:	7369                	c.lui	x6,0xffffa
   8:	01007663          	bgeu	x0,x16,14 <_start-0x7fffffec>
   c:	00000023          	sb	x0,0(x0) # 0 <_start-0x80000000>
  10:	7205                	c.lui	x4,0xfffe1
  12:	3676                	c.fldsp	f12,376(x2)
  14:	6934                	c.ld	x13,80(x10)
  16:	7032                	0x7032
  18:	5f30                	c.lw	x12,120(x14)
  1a:	326d                	c.addiw	x4,-5
  1c:	3070                	c.fld	f12,224(x8)
  1e:	615f 7032 5f30      	0x5f307032615f
  24:	3266                	c.fldsp	f4,120(x2)
  26:	3070                	c.fld	f12,224(x8)
  28:	645f 7032 0030      	0x307032645f
